

Microchip MPLAB XC8 Assembler V2.31 build 20201012212115 
                                                                                               Thu Jun 03 23:08:03 2021

Microchip MPLAB XC8 C Compiler v2.31 (Free license) build 20201012212115 Og1 
     1                           	processor	16F887
     2                           	pagewidth 120
     3                           	opt	flic
     4                           	psect	idataBANK1,global,class=CODE,delta=2,noexec
     5                           	psect	cinit,global,class=CODE,merge=1,delta=2
     6                           	psect	bssCOMMON,global,class=COMMON,space=1,delta=1,noexec
     7                           	psect	bssBANK0,global,class=BANK0,space=1,delta=1,noexec
     8                           	psect	bssBANK1,global,class=BANK1,space=1,delta=1,noexec
     9                           	psect	dataBANK1,global,class=BANK1,space=1,delta=1,noexec
    10                           	psect	cstackBANK1,global,class=BANK1,space=1,delta=1,noexec
    11                           	psect	cstackCOMMON,global,class=COMMON,space=1,delta=1,noexec
    12                           	psect	cstackBANK0,global,class=BANK0,space=1,delta=1,noexec
    13                           	psect	maintext,global,class=CODE,split=1,delta=2
    14                           	psect	text1,local,class=CODE,merge=1,delta=2
    15                           	psect	text2,local,class=CODE,merge=1,delta=2
    16                           	psect	text3,local,class=CODE,merge=1,delta=2
    17                           	psect	text4,local,class=CODE,merge=1,delta=2
    18                           	psect	text5,local,class=CODE,merge=1,delta=2
    19                           	psect	text6,local,class=CODE,merge=1,delta=2,group=1
    20                           	psect	text7,local,class=CODE,merge=1,delta=2,group=1
    21                           	psect	text8,local,class=CODE,merge=1,delta=2,group=1
    22                           	psect	text9,local,class=CODE,merge=1,delta=2,group=1
    23                           	psect	text10,local,class=CODE,merge=1,delta=2,group=1
    24                           	psect	text11,local,class=CODE,merge=1,delta=2
    25                           	psect	intentry,global,class=CODE,delta=2
    26                           	psect	config,global,abs,ovrld,class=CONFIG,space=4,delta=2,noexec
    27                           	dabs	1,0x7E,2
    28  0000                     
    29                           ; Version 2.20
    30                           ; Generated 12/02/2020 GMT
    31                           ; 
    32                           ; Copyright © 2020, Microchip Technology Inc. and its subsidiaries ("Microchip")
    33                           ; All rights reserved.
    34                           ; 
    35                           ; This software is developed by Microchip Technology Inc. and its subsidiaries ("Microch
      +                          ip").
    36                           ; 
    37                           ; Redistribution and use in source and binary forms, with or without modification, are
    38                           ; permitted provided that the following conditions are met:
    39                           ; 
    40                           ;     1. Redistributions of source code must retain the above copyright notice, this lis
      +                          t of
    41                           ;        conditions and the following disclaimer.
    42                           ; 
    43                           ;     2. Redistributions in binary form must reproduce the above copyright notice, this 
      +                          list
    44                           ;        of conditions and the following disclaimer in the documentation and/or other
    45                           ;        materials provided with the distribution.
    46                           ; 
    47                           ;     3. Microchip's name may not be used to endorse or promote products derived from th
      +                          is
    48                           ;        software without specific prior written permission.
    49                           ; 
    50                           ; THIS SOFTWARE IS PROVIDED BY MICROCHIP "AS IS" AND ANY EXPRESS OR IMPLIED WARRANTIES,
    51                           ; INCLUDING, BUT NOT LIMITED TO, THE IMPLIED WARRANTIES OF MERCHANTABILITY AND FITNESS F
      +                          OR
    52                           ; PURPOSE ARE DISCLAIMED.  IN NO EVENT SHALL MICROCHIP BE LIABLE FOR ANY DIRECT, INDIREC
      +                          T,
    53                           ; INCIDENTAL, SPECIAL, EXEMPLARY, OR CONSEQUENTIAL DAMAGES (INCLUDING BUT NOT LIMITED TO
    54                           ; PROCUREMENT OF SUBSTITUTE GOODS OR SERVICES; LOSS OF USE, DATA OR PROFITS; OR BUSINESS
    55                           ; INTERRUPTION) HOWSOEVER CAUSED AND ON ANY THEORY OF LIABILITY, WHETHER IN CONTRACT, ST
      +                          RICT
    56                           ; LIABILITY, OR TORT (INCLUDING NEGLIGENCE OR OTHERWISE) ARISING IN ANY WAY OUT OF THE U
      +                          SE OF
    57                           ; THIS SOFTWARE, EVEN IF ADVISED OF THE POSSIBILITY OF SUCH DAMAGE.
    58                           ; 
    59                           ; 
    60                           ; Code-generator required, PIC16F887 Definitions
    61                           ; 
    62                           ; SFR Addresses
    63  0000                     	;# 
    64  0001                     	;# 
    65  0002                     	;# 
    66  0003                     	;# 
    67  0004                     	;# 
    68  0005                     	;# 
    69  0006                     	;# 
    70  0007                     	;# 
    71  0008                     	;# 
    72  0009                     	;# 
    73  000A                     	;# 
    74  000B                     	;# 
    75  000C                     	;# 
    76  000D                     	;# 
    77  000E                     	;# 
    78  000E                     	;# 
    79  000F                     	;# 
    80  0010                     	;# 
    81  0011                     	;# 
    82  0012                     	;# 
    83  0013                     	;# 
    84  0014                     	;# 
    85  0015                     	;# 
    86  0015                     	;# 
    87  0016                     	;# 
    88  0017                     	;# 
    89  0018                     	;# 
    90  0019                     	;# 
    91  001A                     	;# 
    92  001B                     	;# 
    93  001B                     	;# 
    94  001C                     	;# 
    95  001D                     	;# 
    96  001E                     	;# 
    97  001F                     	;# 
    98  0081                     	;# 
    99  0085                     	;# 
   100  0086                     	;# 
   101  0087                     	;# 
   102  0088                     	;# 
   103  0089                     	;# 
   104  008C                     	;# 
   105  008D                     	;# 
   106  008E                     	;# 
   107  008F                     	;# 
   108  0090                     	;# 
   109  0091                     	;# 
   110  0092                     	;# 
   111  0093                     	;# 
   112  0093                     	;# 
   113  0093                     	;# 
   114  0094                     	;# 
   115  0095                     	;# 
   116  0096                     	;# 
   117  0097                     	;# 
   118  0098                     	;# 
   119  0099                     	;# 
   120  009A                     	;# 
   121  009B                     	;# 
   122  009C                     	;# 
   123  009D                     	;# 
   124  009E                     	;# 
   125  009F                     	;# 
   126  0105                     	;# 
   127  0107                     	;# 
   128  0108                     	;# 
   129  0109                     	;# 
   130  010C                     	;# 
   131  010C                     	;# 
   132  010D                     	;# 
   133  010E                     	;# 
   134  010F                     	;# 
   135  0185                     	;# 
   136  0187                     	;# 
   137  0188                     	;# 
   138  0189                     	;# 
   139  018C                     	;# 
   140  018D                     	;# 
   141  0000                     	;# 
   142  0001                     	;# 
   143  0002                     	;# 
   144  0003                     	;# 
   145  0004                     	;# 
   146  0005                     	;# 
   147  0006                     	;# 
   148  0007                     	;# 
   149  0008                     	;# 
   150  0009                     	;# 
   151  000A                     	;# 
   152  000B                     	;# 
   153  000C                     	;# 
   154  000D                     	;# 
   155  000E                     	;# 
   156  000E                     	;# 
   157  000F                     	;# 
   158  0010                     	;# 
   159  0011                     	;# 
   160  0012                     	;# 
   161  0013                     	;# 
   162  0014                     	;# 
   163  0015                     	;# 
   164  0015                     	;# 
   165  0016                     	;# 
   166  0017                     	;# 
   167  0018                     	;# 
   168  0019                     	;# 
   169  001A                     	;# 
   170  001B                     	;# 
   171  001B                     	;# 
   172  001C                     	;# 
   173  001D                     	;# 
   174  001E                     	;# 
   175  001F                     	;# 
   176  0081                     	;# 
   177  0085                     	;# 
   178  0086                     	;# 
   179  0087                     	;# 
   180  0088                     	;# 
   181  0089                     	;# 
   182  008C                     	;# 
   183  008D                     	;# 
   184  008E                     	;# 
   185  008F                     	;# 
   186  0090                     	;# 
   187  0091                     	;# 
   188  0092                     	;# 
   189  0093                     	;# 
   190  0093                     	;# 
   191  0093                     	;# 
   192  0094                     	;# 
   193  0095                     	;# 
   194  0096                     	;# 
   195  0097                     	;# 
   196  0098                     	;# 
   197  0099                     	;# 
   198  009A                     	;# 
   199  009B                     	;# 
   200  009C                     	;# 
   201  009D                     	;# 
   202  009E                     	;# 
   203  009F                     	;# 
   204  0105                     	;# 
   205  0107                     	;# 
   206  0108                     	;# 
   207  0109                     	;# 
   208  010C                     	;# 
   209  010C                     	;# 
   210  010D                     	;# 
   211  010E                     	;# 
   212  010F                     	;# 
   213  0185                     	;# 
   214  0187                     	;# 
   215  0188                     	;# 
   216  0189                     	;# 
   217  018C                     	;# 
   218  018D                     	;# 
   219                           
   220                           	psect	idataBANK1
   221  07F0                     __pidataBANK1:
   222                           
   223                           ;initializer for _RB1_FLAG
   224  07F0  3401               	retlw	1
   225  07F1  3400               	retlw	0
   226                           
   227                           ;initializer for _RB0_FLAG
   228  07F2  3401               	retlw	1
   229  07F3  3400               	retlw	0
   230  000D                     _PIR2bits	set	13
   231  0018                     _RCSTAbits	set	24
   232  001F                     _ADCON0bits	set	31
   233  001D                     _CCP2CONbits	set	29
   234  0017                     _CCP1CON	set	23
   235  0012                     _T2CON	set	18
   236  0007                     _PORTC	set	7
   237  0006                     _PORTB	set	6
   238  0005                     _PORTA	set	5
   239  0008                     _PORTD	set	8
   240  001B                     _CCPR2L	set	27
   241  0015                     _CCPR1L	set	21
   242  0009                     _PORTE	set	9
   243  001A                     _RCREG	set	26
   244  000C                     _PIR1bits	set	12
   245  001E                     _ADRESH	set	30
   246  0007                     _PORTCbits	set	7
   247  0001                     _TMR0	set	1
   248  000B                     _INTCONbits	set	11
   249  0031                     _RB1	set	49
   250  0035                     _RB5	set	53
   251  0034                     _RB4	set	52
   252  0037                     _RB7	set	55
   253  0036                     _RB6	set	54
   254  0030                     _RB0	set	48
   255  0066                     _ADIF	set	102
   256  005A                     _T0IF	set	90
   257  009A                     _SPBRGH	set	154
   258  0099                     _SPBRG	set	153
   259  0098                     _TXSTAbits	set	152
   260  008C                     _PIE1bits	set	140
   261  009F                     _ADCON1bits	set	159
   262  0092                     _PR2	set	146
   263  0096                     _IOCB	set	150
   264  0095                     _WPUB	set	149
   265  0081                     _OPTION_REG	set	129
   266  008F                     _OSCCONbits	set	143
   267  0086                     _TRISB	set	134
   268  0089                     _TRISE	set	137
   269  0088                     _TRISD	set	136
   270  0087                     _TRISC	set	135
   271  0085                     _TRISA	set	133
   272  010C                     _EEDATA	set	268
   273  010C                     _EEDAT	set	268
   274  010D                     _EEADR	set	269
   275  018D                     _EECON2	set	397
   276  018C                     _EECON1bits	set	396
   277  0187                     _BAUDCTLbits	set	391
   278  0189                     _ANSELH	set	393
   279  0188                     _ANSEL	set	392
   280                           
   281                           	psect	cinit
   282  0013                     start_initialization:	
   283                           ; #config settings
   284                           
   285  0013                     __initialization:
   286                           
   287                           ; Initialize objects allocated to BANK1
   288  0013  1683               	bsf	3,5	;RP0=1, select bank1
   289  0014  1303               	bcf	3,6	;RP1=0, select bank1
   290  0015  120A  118A  27F0  120A  118A  	fcall	__pidataBANK1	;fetch initializer
   291  001A  00B1               	movwf	__pdataBANK1& (0+127)
   292  001B  120A  118A  27F1  120A  118A  	fcall	__pidataBANK1+1	;fetch initializer
   293  0020  00B2               	movwf	(__pdataBANK1+1)& (0+127)
   294  0021  120A  118A  27F2  120A  118A  	fcall	__pidataBANK1+2	;fetch initializer
   295  0026  00B3               	movwf	(__pdataBANK1+2)& (0+127)
   296  0027  120A  118A  27F3  120A  118A  	fcall	__pidataBANK1+3	;fetch initializer
   297  002C  00B4               	movwf	(__pdataBANK1+3)& (0+127)
   298                           
   299                           ; Clear objects allocated to BANK1
   300  002D  01A0               	clrf	__pbssBANK1& (0+127)
   301  002E  01A1               	clrf	(__pbssBANK1+1)& (0+127)
   302  002F  01A2               	clrf	(__pbssBANK1+2)& (0+127)
   303  0030  01A3               	clrf	(__pbssBANK1+3)& (0+127)
   304  0031  01A4               	clrf	(__pbssBANK1+4)& (0+127)
   305  0032  01A5               	clrf	(__pbssBANK1+5)& (0+127)
   306  0033  01A6               	clrf	(__pbssBANK1+6)& (0+127)
   307  0034  01A7               	clrf	(__pbssBANK1+7)& (0+127)
   308  0035  01A8               	clrf	(__pbssBANK1+8)& (0+127)
   309  0036  01A9               	clrf	(__pbssBANK1+9)& (0+127)
   310  0037  01AA               	clrf	(__pbssBANK1+10)& (0+127)
   311  0038  01AB               	clrf	(__pbssBANK1+11)& (0+127)
   312                           
   313                           ; Clear objects allocated to BANK0
   314  0039  1283               	bcf	3,5	;RP0=0, select bank0
   315  003A  1303               	bcf	3,6	;RP1=0, select bank0
   316  003B  01E9               	clrf	__pbssBANK0& (0+127)
   317  003C  01EA               	clrf	(__pbssBANK0+1)& (0+127)
   318  003D  01EB               	clrf	(__pbssBANK0+2)& (0+127)
   319  003E  01EC               	clrf	(__pbssBANK0+3)& (0+127)
   320  003F  01ED               	clrf	(__pbssBANK0+4)& (0+127)
   321  0040  01EE               	clrf	(__pbssBANK0+5)& (0+127)
   322                           
   323                           ; Clear objects allocated to COMMON
   324  0041  01F5               	clrf	__pbssCOMMON& (0+127)
   325  0042  01F6               	clrf	(__pbssCOMMON+1)& (0+127)
   326  0043  01F7               	clrf	(__pbssCOMMON+2)& (0+127)
   327  0044  01F8               	clrf	(__pbssCOMMON+3)& (0+127)
   328  0045                     end_of_initialization:	
   329                           ;End of C runtime variable initialization code
   330                           
   331  0045                     __end_of__initialization:
   332  0045  0183               	clrf	3
   333  0046  120A  158A  2D8F   	ljmp	_main	;jump to C main() function
   334                           
   335                           	psect	bssCOMMON
   336  0075                     __pbssCOMMON:
   337  0075                     _POT0:
   338  0075                     	ds	2
   339  0077                     _PWM3:
   340  0077                     	ds	2
   341                           
   342                           	psect	bssBANK0
   343  0069                     __pbssBANK0:
   344  0069                     _POT2:
   345  0069                     	ds	2
   346  006B                     _POT1:
   347  006B                     	ds	2
   348  006D                     _DATO:
   349  006D                     	ds	2
   350                           
   351                           	psect	bssBANK1
   352  00A0                     __pbssBANK1:
   353  00A0                     _POS_TX:
   354  00A0                     	ds	2
   355  00A2                     _FLAG_TX:
   356  00A2                     	ds	2
   357  00A4                     _SEL:
   358  00A4                     	ds	2
   359  00A6                     _SEL_G:
   360  00A6                     	ds	2
   361  00A8                     _VALORAN:
   362  00A8                     	ds	2
   363  00AA                     _POT3:
   364  00AA                     	ds	2
   365                           
   366                           	psect	dataBANK1
   367  00B1                     __pdataBANK1:
   368  00B1                     _RB1_FLAG:
   369  00B1                     	ds	2
   370  00B3                     _RB0_FLAG:
   371  00B3                     	ds	2
   372                           
   373                           	psect	cstackBANK1
   374  00AC                     __pcstackBANK1:
   375  00AC                     ??_ANALOGICOS:
   376                           
   377                           ; 1 bytes @ 0x0
   378  00AC                     	ds	3
   379  00AF                     ??_main:
   380                           
   381                           ; 1 bytes @ 0x3
   382  00AF                     	ds	2
   383                           
   384                           	psect	cstackCOMMON
   385  0070                     __pcstackCOMMON:
   386  0070                     ?_setup:
   387  0070                     ?_isr:	
   388                           ; 1 bytes @ 0x0
   389                           
   390  0070                     ??_isr:	
   391                           ; 1 bytes @ 0x0
   392                           
   393  0070                     ?_main:	
   394                           ; 1 bytes @ 0x0
   395                           
   396                           
   397                           ; 1 bytes @ 0x0
   398  0070                     	ds	5
   399  0075                     ??_GUARDAR:
   400  0075                     ??_EEPROM_W:	
   401                           ; 1 bytes @ 0x5
   402                           
   403                           
   404                           	psect	cstackBANK0
   405  0020                     __pcstackBANK0:	
   406                           ; 1 bytes @ 0x5
   407                           
   408  0020                     ??_setup:
   409  0020                     ?_EEPROM_W:	
   410                           ; 1 bytes @ 0x0
   411                           
   412  0020                     ?_EEPROM_R:	
   413                           ; 1 bytes @ 0x0
   414                           
   415  0020                     ?__Umul8_16:	
   416                           ; 2 bytes @ 0x0
   417                           
   418  0020                     ?___xxtofl:	
   419                           ; 2 bytes @ 0x0
   420                           
   421  0020                     __Umul8_16@multiplicand:	
   422                           ; 4 bytes @ 0x0
   423                           
   424  0020                     EEPROM_W@dato:	
   425                           ; 1 bytes @ 0x0
   426                           
   427  0020                     EEPROM_R@add:	
   428                           ; 2 bytes @ 0x0
   429                           
   430  0020                     ___xxtofl@val:	
   431                           ; 2 bytes @ 0x0
   432                           
   433                           
   434                           ; 4 bytes @ 0x0
   435  0020                     	ds	2
   436  0022                     ??_EEPROM_R:
   437  0022                     ??__Umul8_16:	
   438                           ; 1 bytes @ 0x2
   439                           
   440  0022                     EEPROM_W@add:	
   441                           ; 1 bytes @ 0x2
   442                           
   443                           
   444                           ; 2 bytes @ 0x2
   445  0022                     	ds	2
   446  0024                     ?_GUARDAR:
   447  0024                     ??___xxtofl:	
   448                           ; 1 bytes @ 0x4
   449                           
   450  0024                     GUARDAR@POT0:	
   451                           ; 1 bytes @ 0x4
   452                           
   453  0024                     EEPROM_R@dato:	
   454                           ; 2 bytes @ 0x4
   455                           
   456  0024                     __Umul8_16@product:	
   457                           ; 2 bytes @ 0x4
   458                           
   459                           
   460                           ; 2 bytes @ 0x4
   461  0024                     	ds	2
   462  0026                     GUARDAR@POT1:
   463  0026                     __Umul8_16@word_mpld:	
   464                           ; 2 bytes @ 0x6
   465                           
   466                           
   467                           ; 2 bytes @ 0x6
   468  0026                     	ds	2
   469  0028                     __Umul8_16@multiplier:
   470  0028                     ___xxtofl@sign:	
   471                           ; 1 bytes @ 0x8
   472                           
   473  0028                     GUARDAR@POT2:	
   474                           ; 1 bytes @ 0x8
   475                           
   476                           
   477                           ; 2 bytes @ 0x8
   478  0028                     	ds	1
   479  0029                     ___xxtofl@exp:
   480                           
   481                           ; 1 bytes @ 0x9
   482  0029                     	ds	1
   483  002A                     GUARDAR@POT3:
   484  002A                     ___xxtofl@arg:	
   485                           ; 2 bytes @ 0xA
   486                           
   487                           
   488                           ; 4 bytes @ 0xA
   489  002A                     	ds	4
   490  002E                     ?___flmul:
   491  002E                     ___flmul@b:	
   492                           ; 4 bytes @ 0xE
   493                           
   494                           
   495                           ; 4 bytes @ 0xE
   496  002E                     	ds	4
   497  0032                     ___flmul@a:
   498                           
   499                           ; 4 bytes @ 0x12
   500  0032                     	ds	4
   501  0036                     ??___flmul:
   502                           
   503                           ; 1 bytes @ 0x16
   504  0036                     	ds	5
   505  003B                     ___flmul@sign:
   506                           
   507                           ; 1 bytes @ 0x1B
   508  003B                     	ds	1
   509  003C                     ___flmul@aexp:
   510                           
   511                           ; 1 bytes @ 0x1C
   512  003C                     	ds	1
   513  003D                     ___flmul@grs:
   514                           
   515                           ; 4 bytes @ 0x1D
   516  003D                     	ds	4
   517  0041                     ___flmul@bexp:
   518                           
   519                           ; 1 bytes @ 0x21
   520  0041                     	ds	1
   521  0042                     ___flmul@prod:
   522                           
   523                           ; 4 bytes @ 0x22
   524  0042                     	ds	4
   525  0046                     ___flmul@temp:
   526                           
   527                           ; 2 bytes @ 0x26
   528  0046                     	ds	2
   529  0048                     ?___fladd:
   530  0048                     ___fladd@b:	
   531                           ; 4 bytes @ 0x28
   532                           
   533                           
   534                           ; 4 bytes @ 0x28
   535  0048                     	ds	4
   536  004C                     ___fladd@a:
   537                           
   538                           ; 4 bytes @ 0x2C
   539  004C                     	ds	4
   540  0050                     ??___fladd:
   541                           
   542                           ; 1 bytes @ 0x30
   543  0050                     	ds	8
   544  0058                     ___fladd@signs:
   545                           
   546                           ; 1 bytes @ 0x38
   547  0058                     	ds	1
   548  0059                     ___fladd@aexp:
   549                           
   550                           ; 1 bytes @ 0x39
   551  0059                     	ds	1
   552  005A                     ___fladd@bexp:
   553                           
   554                           ; 1 bytes @ 0x3A
   555  005A                     	ds	1
   556  005B                     ___fladd@grs:
   557                           
   558                           ; 1 bytes @ 0x3B
   559  005B                     	ds	1
   560  005C                     ?___fltol:
   561  005C                     ___fltol@f1:	
   562                           ; 4 bytes @ 0x3C
   563                           
   564                           
   565                           ; 4 bytes @ 0x3C
   566  005C                     	ds	4
   567  0060                     ??___fltol:
   568                           
   569                           ; 1 bytes @ 0x40
   570  0060                     	ds	5
   571  0065                     ___fltol@sign1:
   572                           
   573                           ; 1 bytes @ 0x45
   574  0065                     	ds	1
   575  0066                     ___fltol@exp1:
   576                           
   577                           ; 1 bytes @ 0x46
   578  0066                     	ds	1
   579  0067                     ?_ANALOGICOS:
   580  0067                     ANALOGICOS@VALORAN:	
   581                           ; 1 bytes @ 0x47
   582                           
   583                           
   584                           ; 2 bytes @ 0x47
   585  0067                     	ds	2
   586                           
   587                           	psect	maintext
   588  0D8F                     __pmaintext:	
   589 ;;
   590 ;;Main: autosize = 0, tempsize = 2, incstack = 0, save=0
   591 ;;
   592 ;; *************** function _main *****************
   593 ;; Defined at:
   594 ;;		line 113 in file "main.c"
   595 ;; Parameters:    Size  Location     Type
   596 ;;		None
   597 ;; Auto vars:     Size  Location     Type
   598 ;;		None
   599 ;; Return value:  Size  Location     Type
   600 ;;                  1    wreg      void 
   601 ;; Registers used:
   602 ;;		wreg, fsr0l, fsr0h, status,2, status,0, btemp+1, pclath, cstack
   603 ;; Tracked objects:
   604 ;;		On entry : B00/0
   605 ;;		On exit  : 0/0
   606 ;;		Unchanged: 0/0
   607 ;; Data sizes:     COMMON   BANK0   BANK1   BANK3   BANK2
   608 ;;      Params:         0       0       0       0       0
   609 ;;      Locals:         0       0       0       0       0
   610 ;;      Temps:          0       0       2       0       0
   611 ;;      Totals:         0       0       2       0       0
   612 ;;Total ram usage:        2 bytes
   613 ;; Hardware stack levels required when called:    4
   614 ;; This function calls:
   615 ;;		_ANALOGICOS
   616 ;;		_EEPROM_R
   617 ;;		_GUARDAR
   618 ;;		___fladd
   619 ;;		___flmul
   620 ;;		___fltol
   621 ;;		___xxtofl
   622 ;;		_setup
   623 ;; This function is called by:
   624 ;;		Startup code after reset
   625 ;; This function uses a non-reentrant model
   626 ;;
   627                           
   628                           
   629                           ;psect for function _main
   630  0D8F                     _main:
   631  0D8F                     l3008:	
   632                           ;incstack = 0
   633                           ; Regs used in _main: [wreg-fsr0h+status,2+status,0+btemp+1+pclath+cstack]
   634                           
   635                           
   636                           ;main.c: 114:     setup();
   637  0D8F  120A  158A  22B4  120A  158A  	fcall	_setup
   638  0D94  2DE6               	goto	l3022
   639  0D95                     l3010:
   640                           
   641                           ;main.c: 117:             PORTE = 0X01;
   642  0D95  3001               	movlw	1
   643  0D96  0089               	movwf	9	;volatile
   644  0D97                     l3012:
   645                           
   646                           ;main.c: 119:         ANALOGICOS(VALORAN);
   647  0D97  1683               	bsf	3,5	;RP0=1, select bank1
   648  0D98  1303               	bcf	3,6	;RP1=0, select bank1
   649  0D99  0829               	movf	(_VALORAN+1)^(0+128),w
   650  0D9A  1283               	bcf	3,5	;RP0=0, select bank0
   651  0D9B  1303               	bcf	3,6	;RP1=0, select bank0
   652  0D9C  00E8               	movwf	ANALOGICOS@VALORAN+1
   653  0D9D  1683               	bsf	3,5	;RP0=1, select bank1
   654  0D9E  1303               	bcf	3,6	;RP1=0, select bank1
   655  0D9F  0828               	movf	_VALORAN^(0+128),w
   656  0DA0  1283               	bcf	3,5	;RP0=0, select bank0
   657  0DA1  1303               	bcf	3,6	;RP1=0, select bank0
   658  0DA2  00E7               	movwf	ANALOGICOS@VALORAN
   659  0DA3  120A  118A  2632  120A  158A  	fcall	_ANALOGICOS
   660  0DA8                     l3014:
   661                           
   662                           ;main.c: 125:         if (RB0 == 1 && RB0_FLAG == 0){
   663  0DA8  1283               	bcf	3,5	;RP0=0, select bank0
   664  0DA9  1303               	bcf	3,6	;RP1=0, select bank0
   665  0DAA  1C06               	btfss	6,0	;volatile
   666  0DAB  2DAD               	goto	u3401
   667  0DAC  2DAE               	goto	u3400
   668  0DAD                     u3401:
   669  0DAD  2DD5               	goto	l3020
   670  0DAE                     u3400:
   671  0DAE                     l3016:
   672  0DAE  1683               	bsf	3,5	;RP0=1, select bank1
   673  0DAF  1303               	bcf	3,6	;RP1=0, select bank1
   674  0DB0  0833               	movf	_RB0_FLAG^(0+128),w
   675  0DB1  0434               	iorwf	(_RB0_FLAG+1)^(0+128),w
   676  0DB2  1D03               	btfss	3,2
   677  0DB3  2DB5               	goto	u3411
   678  0DB4  2DB6               	goto	u3410
   679  0DB5                     u3411:
   680  0DB5  2DD5               	goto	l3020
   681  0DB6                     u3410:
   682  0DB6                     l3018:
   683                           
   684                           ;main.c: 126:             GUARDAR(POT0, POT1, POT2, POT3);
   685  0DB6  0876               	movf	_POT0+1,w
   686  0DB7  1283               	bcf	3,5	;RP0=0, select bank0
   687  0DB8  1303               	bcf	3,6	;RP1=0, select bank0
   688  0DB9  00A5               	movwf	GUARDAR@POT0+1
   689  0DBA  0875               	movf	_POT0,w
   690  0DBB  00A4               	movwf	GUARDAR@POT0
   691  0DBC  086C               	movf	_POT1+1,w
   692  0DBD  00A7               	movwf	GUARDAR@POT1+1
   693  0DBE  086B               	movf	_POT1,w
   694  0DBF  00A6               	movwf	GUARDAR@POT1
   695  0DC0  086A               	movf	_POT2+1,w
   696  0DC1  00A9               	movwf	GUARDAR@POT2+1
   697  0DC2  0869               	movf	_POT2,w
   698  0DC3  00A8               	movwf	GUARDAR@POT2
   699  0DC4  1683               	bsf	3,5	;RP0=1, select bank1
   700  0DC5  1303               	bcf	3,6	;RP1=0, select bank1
   701  0DC6  082B               	movf	(_POT3+1)^(0+128),w
   702  0DC7  1283               	bcf	3,5	;RP0=0, select bank0
   703  0DC8  1303               	bcf	3,6	;RP1=0, select bank0
   704  0DC9  00AB               	movwf	GUARDAR@POT3+1
   705  0DCA  1683               	bsf	3,5	;RP0=1, select bank1
   706  0DCB  1303               	bcf	3,6	;RP1=0, select bank1
   707  0DCC  082A               	movf	_POT3^(0+128),w
   708  0DCD  1283               	bcf	3,5	;RP0=0, select bank0
   709  0DCE  1303               	bcf	3,6	;RP1=0, select bank0
   710  0DCF  00AA               	movwf	GUARDAR@POT3
   711  0DD0  120A  158A  2426  120A  158A  	fcall	_GUARDAR
   712  0DD5                     l3020:
   713                           
   714                           ;main.c: 129:         RB0_FLAG = RB0;
   715  0DD5  1003               	clrc
   716  0DD6  1283               	bcf	3,5	;RP0=0, select bank0
   717  0DD7  1303               	bcf	3,6	;RP1=0, select bank0
   718  0DD8  1806               	btfsc	6,0	;volatile
   719  0DD9  1403               	setc
   720  0DDA  3000               	movlw	0
   721  0DDB  1803               	skipnc
   722  0DDC  3001               	movlw	1
   723  0DDD  1683               	bsf	3,5	;RP0=1, select bank1
   724  0DDE  1303               	bcf	3,6	;RP1=0, select bank1
   725  0DDF  00AF               	movwf	??_main^(0+128)
   726  0DE0  01B0               	clrf	(??_main^(0+128)+1)
   727  0DE1  082F               	movf	??_main^(0+128),w
   728  0DE2  00B3               	movwf	_RB0_FLAG^(0+128)
   729  0DE3  0830               	movf	(??_main+1)^(0+128),w
   730  0DE4  00B4               	movwf	(_RB0_FLAG+1)^(0+128)
   731  0DE5  2DE6               	goto	l3022
   732  0DE6                     l159:	
   733                           ;main.c: 130:         }
   734                           
   735  0DE6                     l3022:
   736                           
   737                           ;main.c: 116:         while(RB6 == 1 && RB7 ==1){
   738  0DE6  1283               	bcf	3,5	;RP0=0, select bank0
   739  0DE7  1303               	bcf	3,6	;RP1=0, select bank0
   740  0DE8  1F06               	btfss	6,6	;volatile
   741  0DE9  2DEB               	goto	u3421
   742  0DEA  2DEC               	goto	u3420
   743  0DEB                     u3421:
   744  0DEB  2E93               	goto	l3048
   745  0DEC                     u3420:
   746  0DEC                     l3024:
   747  0DEC  1B86               	btfsc	6,7	;volatile
   748  0DED  2DEF               	goto	u3431
   749  0DEE  2DF0               	goto	u3430
   750  0DEF                     u3431:
   751  0DEF  2D95               	goto	l3010
   752  0DF0                     u3430:
   753  0DF0  2E93               	goto	l3048
   754  0DF1                     l3026:
   755                           
   756                           ;main.c: 133:             PORTE = 0X02;
   757  0DF1  3002               	movlw	2
   758  0DF2  0089               	movwf	9	;volatile
   759  0DF3                     l3028:
   760                           
   761                           ;main.c: 135:             if (RB4 == 0 && RB5 == 1){
   762  0DF3  1A06               	btfsc	6,4	;volatile
   763  0DF4  2DF6               	goto	u3441
   764  0DF5  2DF7               	goto	u3440
   765  0DF6                     u3441:
   766  0DF6  2E23               	goto	l3034
   767  0DF7                     u3440:
   768  0DF7                     l3030:
   769  0DF7  1E86               	btfss	6,5	;volatile
   770  0DF8  2DFA               	goto	u3451
   771  0DF9  2DFB               	goto	u3450
   772  0DFA                     u3451:
   773  0DFA  2E23               	goto	l3034
   774  0DFB                     u3450:
   775  0DFB                     l3032:
   776                           
   777                           ;main.c: 136:                 POT0 = EEPROM_R(0);
   778  0DFB  3000               	movlw	0
   779  0DFC  00A0               	movwf	EEPROM_R@add
   780  0DFD  00A1               	movwf	EEPROM_R@add+1
   781  0DFE  120A  158A  224F  120A  158A  	fcall	_EEPROM_R
   782  0E03  1283               	bcf	3,5	;RP0=0, select bank0
   783  0E04  1303               	bcf	3,6	;RP1=0, select bank0
   784  0E05  0821               	movf	?_EEPROM_R+1,w
   785  0E06  00F6               	movwf	_POT0+1
   786  0E07  0820               	movf	?_EEPROM_R,w
   787  0E08  00F5               	movwf	_POT0
   788                           
   789                           ;main.c: 137:                 CCPR1L = EEPROM_R(1);
   790  0E09  3001               	movlw	1
   791  0E0A  00A0               	movwf	EEPROM_R@add
   792  0E0B  3000               	movlw	0
   793  0E0C  00A1               	movwf	EEPROM_R@add+1
   794  0E0D  120A  158A  224F  120A  158A  	fcall	_EEPROM_R
   795  0E12  1283               	bcf	3,5	;RP0=0, select bank0
   796  0E13  1303               	bcf	3,6	;RP1=0, select bank0
   797  0E14  0820               	movf	?_EEPROM_R,w
   798  0E15  0095               	movwf	21	;volatile
   799                           
   800                           ;main.c: 138:                 CCPR2L = EEPROM_R(2);
   801  0E16  3002               	movlw	2
   802  0E17  00A0               	movwf	EEPROM_R@add
   803  0E18  3000               	movlw	0
   804  0E19  00A1               	movwf	EEPROM_R@add+1
   805  0E1A  120A  158A  224F  120A  158A  	fcall	_EEPROM_R
   806  0E1F  1283               	bcf	3,5	;RP0=0, select bank0
   807  0E20  1303               	bcf	3,6	;RP1=0, select bank0
   808  0E21  0820               	movf	?_EEPROM_R,w
   809  0E22  009B               	movwf	27	;volatile
   810  0E23                     l3034:
   811                           
   812                           ;main.c: 140:             if (RB4 == 1 && RB5 == 0){
   813  0E23  1E06               	btfss	6,4	;volatile
   814  0E24  2E26               	goto	u3461
   815  0E25  2E27               	goto	u3460
   816  0E26                     u3461:
   817  0E26  2E54               	goto	l3040
   818  0E27                     u3460:
   819  0E27                     l3036:
   820  0E27  1A86               	btfsc	6,5	;volatile
   821  0E28  2E2A               	goto	u3471
   822  0E29  2E2B               	goto	u3470
   823  0E2A                     u3471:
   824  0E2A  2E54               	goto	l3040
   825  0E2B                     u3470:
   826  0E2B                     l3038:
   827                           
   828                           ;main.c: 141:                 POT0 = EEPROM_R(3);
   829  0E2B  3003               	movlw	3
   830  0E2C  00A0               	movwf	EEPROM_R@add
   831  0E2D  3000               	movlw	0
   832  0E2E  00A1               	movwf	EEPROM_R@add+1
   833  0E2F  120A  158A  224F  120A  158A  	fcall	_EEPROM_R
   834  0E34  1283               	bcf	3,5	;RP0=0, select bank0
   835  0E35  1303               	bcf	3,6	;RP1=0, select bank0
   836  0E36  0821               	movf	?_EEPROM_R+1,w
   837  0E37  00F6               	movwf	_POT0+1
   838  0E38  0820               	movf	?_EEPROM_R,w
   839  0E39  00F5               	movwf	_POT0
   840                           
   841                           ;main.c: 142:                 CCPR1L = EEPROM_R(4);
   842  0E3A  3004               	movlw	4
   843  0E3B  00A0               	movwf	EEPROM_R@add
   844  0E3C  3000               	movlw	0
   845  0E3D  00A1               	movwf	EEPROM_R@add+1
   846  0E3E  120A  158A  224F  120A  158A  	fcall	_EEPROM_R
   847  0E43  1283               	bcf	3,5	;RP0=0, select bank0
   848  0E44  1303               	bcf	3,6	;RP1=0, select bank0
   849  0E45  0820               	movf	?_EEPROM_R,w
   850  0E46  0095               	movwf	21	;volatile
   851                           
   852                           ;main.c: 143:                 CCPR2L = EEPROM_R(5);
   853  0E47  3005               	movlw	5
   854  0E48  00A0               	movwf	EEPROM_R@add
   855  0E49  3000               	movlw	0
   856  0E4A  00A1               	movwf	EEPROM_R@add+1
   857  0E4B  120A  158A  224F  120A  158A  	fcall	_EEPROM_R
   858  0E50  1283               	bcf	3,5	;RP0=0, select bank0
   859  0E51  1303               	bcf	3,6	;RP1=0, select bank0
   860  0E52  0820               	movf	?_EEPROM_R,w
   861  0E53  009B               	movwf	27	;volatile
   862  0E54                     l3040:
   863                           
   864                           ;main.c: 145:             if (RB4 == 0 && RB5 == 0){
   865  0E54  1A06               	btfsc	6,4	;volatile
   866  0E55  2E57               	goto	u3481
   867  0E56  2E58               	goto	u3480
   868  0E57                     u3481:
   869  0E57  2E85               	goto	l3046
   870  0E58                     u3480:
   871  0E58                     l3042:
   872  0E58  1A86               	btfsc	6,5	;volatile
   873  0E59  2E5B               	goto	u3491
   874  0E5A  2E5C               	goto	u3490
   875  0E5B                     u3491:
   876  0E5B  2E85               	goto	l3046
   877  0E5C                     u3490:
   878  0E5C                     l3044:
   879                           
   880                           ;main.c: 146:                 POT0 = EEPROM_R(6);
   881  0E5C  3006               	movlw	6
   882  0E5D  00A0               	movwf	EEPROM_R@add
   883  0E5E  3000               	movlw	0
   884  0E5F  00A1               	movwf	EEPROM_R@add+1
   885  0E60  120A  158A  224F  120A  158A  	fcall	_EEPROM_R
   886  0E65  1283               	bcf	3,5	;RP0=0, select bank0
   887  0E66  1303               	bcf	3,6	;RP1=0, select bank0
   888  0E67  0821               	movf	?_EEPROM_R+1,w
   889  0E68  00F6               	movwf	_POT0+1
   890  0E69  0820               	movf	?_EEPROM_R,w
   891  0E6A  00F5               	movwf	_POT0
   892                           
   893                           ;main.c: 147:                 CCPR1L = EEPROM_R(7);
   894  0E6B  3007               	movlw	7
   895  0E6C  00A0               	movwf	EEPROM_R@add
   896  0E6D  3000               	movlw	0
   897  0E6E  00A1               	movwf	EEPROM_R@add+1
   898  0E6F  120A  158A  224F  120A  158A  	fcall	_EEPROM_R
   899  0E74  1283               	bcf	3,5	;RP0=0, select bank0
   900  0E75  1303               	bcf	3,6	;RP1=0, select bank0
   901  0E76  0820               	movf	?_EEPROM_R,w
   902  0E77  0095               	movwf	21	;volatile
   903                           
   904                           ;main.c: 148:                 CCPR2L = EEPROM_R(8);
   905  0E78  3008               	movlw	8
   906  0E79  00A0               	movwf	EEPROM_R@add
   907  0E7A  3000               	movlw	0
   908  0E7B  00A1               	movwf	EEPROM_R@add+1
   909  0E7C  120A  158A  224F  120A  158A  	fcall	_EEPROM_R
   910  0E81  1283               	bcf	3,5	;RP0=0, select bank0
   911  0E82  1303               	bcf	3,6	;RP1=0, select bank0
   912  0E83  0820               	movf	?_EEPROM_R,w
   913  0E84  009B               	movwf	27	;volatile
   914  0E85                     l3046:
   915                           
   916                           ;main.c: 150:             RB1_FLAG = RB1;
   917  0E85  1003               	clrc
   918  0E86  1886               	btfsc	6,1	;volatile
   919  0E87  1403               	setc
   920  0E88  3000               	movlw	0
   921  0E89  1803               	skipnc
   922  0E8A  3001               	movlw	1
   923  0E8B  1683               	bsf	3,5	;RP0=1, select bank1
   924  0E8C  1303               	bcf	3,6	;RP1=0, select bank1
   925  0E8D  00AF               	movwf	??_main^(0+128)
   926  0E8E  01B0               	clrf	(??_main^(0+128)+1)
   927  0E8F  082F               	movf	??_main^(0+128),w
   928  0E90  00B1               	movwf	_RB1_FLAG^(0+128)
   929  0E91  0830               	movf	(??_main+1)^(0+128),w
   930  0E92  00B2               	movwf	(_RB1_FLAG+1)^(0+128)
   931  0E93                     l3048:
   932                           
   933                           ;main.c: 132:         while (RB6 == 0 && RB7 == 1){
   934  0E93  1283               	bcf	3,5	;RP0=0, select bank0
   935  0E94  1B06               	btfsc	6,6	;volatile
   936  0E95  2E97               	goto	u3501
   937  0E96  2E98               	goto	u3500
   938  0E97                     u3501:
   939  0E97  2FF3               	goto	l173
   940  0E98                     u3500:
   941  0E98                     l3050:
   942  0E98  1B86               	btfsc	6,7	;volatile
   943  0E99  2E9B               	goto	u3511
   944  0E9A  2E9C               	goto	u3510
   945  0E9B                     u3511:
   946  0E9B  2DF1               	goto	l3026
   947  0E9C                     u3510:
   948  0E9C  2FF3               	goto	l173
   949  0E9D                     l3052:
   950                           
   951                           ;main.c: 154:             PORTE = 0X04;
   952  0E9D  3004               	movlw	4
   953  0E9E  0089               	movwf	9	;volatile
   954                           
   955                           ;main.c: 157:             switch(SEL){
   956  0E9F  2FD8               	goto	l3088
   957  0EA0                     l3054:
   958                           
   959                           ;main.c: 161:                     PORTD = 0X01;
   960  0EA0  3001               	movlw	1
   961  0EA1  1283               	bcf	3,5	;RP0=0, select bank0
   962  0EA2  1303               	bcf	3,6	;RP1=0, select bank0
   963  0EA3  0088               	movwf	8	;volatile
   964  0EA4                     l3056:
   965                           
   966                           ;main.c: 162:                     POT0 =(1.1*(DATO-48)+5);
   967  0EA4  086D               	movf	_DATO,w
   968  0EA5  3ED0               	addlw	208
   969  0EA6  00A0               	movwf	___xxtofl@val
   970  0EA7  086E               	movf	_DATO+1,w
   971  0EA8  1803               	skipnc
   972  0EA9  3E01               	addlw	1
   973  0EAA  3EFF               	addlw	255
   974  0EAB  00A1               	movwf	___xxtofl@val+1
   975  0EAC  01A2               	clrf	___xxtofl@val+2
   976  0EAD  1BA1               	btfsc	___xxtofl@val+1,7
   977  0EAE  03A2               	decf	___xxtofl@val+2,f
   978  0EAF  0822               	movf	___xxtofl@val+2,w
   979  0EB0  00A3               	movwf	___xxtofl@val+3
   980  0EB1  3001               	movlw	1
   981  0EB2  120A  158A  24D3  120A  158A  	fcall	___xxtofl
   982  0EB7  1283               	bcf	3,5	;RP0=0, select bank0
   983  0EB8  1303               	bcf	3,6	;RP1=0, select bank0
   984  0EB9  0823               	movf	?___xxtofl+3,w
   985  0EBA  00B5               	movwf	___flmul@a+3
   986  0EBB  0822               	movf	?___xxtofl+2,w
   987  0EBC  00B4               	movwf	___flmul@a+2
   988  0EBD  0821               	movf	?___xxtofl+1,w
   989  0EBE  00B3               	movwf	___flmul@a+1
   990  0EBF  0820               	movf	?___xxtofl,w
   991  0EC0  00B2               	movwf	___flmul@a
   992  0EC1  303F               	movlw	63
   993  0EC2  00B1               	movwf	___flmul@b+3
   994  0EC3  308C               	movlw	140
   995  0EC4  00B0               	movwf	___flmul@b+2
   996  0EC5  30CC               	movlw	204
   997  0EC6  00AF               	movwf	___flmul@b+1
   998  0EC7  30CD               	movlw	205
   999  0EC8  00AE               	movwf	___flmul@b
  1000  0EC9  120A  118A  2049  120A  158A  	fcall	___flmul
  1001  0ECE  1283               	bcf	3,5	;RP0=0, select bank0
  1002  0ECF  1303               	bcf	3,6	;RP1=0, select bank0
  1003  0ED0  0831               	movf	?___flmul+3,w
  1004  0ED1  00CF               	movwf	___fladd@a+3
  1005  0ED2  0830               	movf	?___flmul+2,w
  1006  0ED3  00CE               	movwf	___fladd@a+2
  1007  0ED4  082F               	movf	?___flmul+1,w
  1008  0ED5  00CD               	movwf	___fladd@a+1
  1009  0ED6  082E               	movf	?___flmul,w
  1010  0ED7  00CC               	movwf	___fladd@a
  1011  0ED8  3040               	movlw	64
  1012  0ED9  00CB               	movwf	___fladd@b+3
  1013  0EDA  30A0               	movlw	160
  1014  0EDB  00CA               	movwf	___fladd@b+2
  1015  0EDC  3000               	movlw	0
  1016  0EDD  00C9               	movwf	___fladd@b+1
  1017  0EDE  3000               	movlw	0
  1018  0EDF  00C8               	movwf	___fladd@b
  1019  0EE0  120A  118A  23AA  120A  158A  	fcall	___fladd
  1020  0EE5  1283               	bcf	3,5	;RP0=0, select bank0
  1021  0EE6  1303               	bcf	3,6	;RP1=0, select bank0
  1022  0EE7  084B               	movf	?___fladd+3,w
  1023  0EE8  00DF               	movwf	___fltol@f1+3
  1024  0EE9  084A               	movf	?___fladd+2,w
  1025  0EEA  00DE               	movwf	___fltol@f1+2
  1026  0EEB  0849               	movf	?___fladd+1,w
  1027  0EEC  00DD               	movwf	___fltol@f1+1
  1028  0EED  0848               	movf	?___fladd,w
  1029  0EEE  00DC               	movwf	___fltol@f1
  1030  0EEF  120A  158A  232D  120A  158A  	fcall	___fltol
  1031  0EF4  1283               	bcf	3,5	;RP0=0, select bank0
  1032  0EF5  1303               	bcf	3,6	;RP1=0, select bank0
  1033  0EF6  085D               	movf	?___fltol+1,w
  1034  0EF7  00F6               	movwf	_POT0+1
  1035  0EF8  085C               	movf	?___fltol,w
  1036  0EF9  00F5               	movwf	_POT0
  1037                           
  1038                           ;main.c: 163:                     break;
  1039  0EFA  2FF3               	goto	l173
  1040  0EFB                     l3058:
  1041                           
  1042                           ;main.c: 165:                     PORTD = 0X02;
  1043  0EFB  3002               	movlw	2
  1044  0EFC  1283               	bcf	3,5	;RP0=0, select bank0
  1045  0EFD  1303               	bcf	3,6	;RP1=0, select bank0
  1046  0EFE  0088               	movwf	8	;volatile
  1047  0EFF                     l3060:
  1048                           
  1049                           ;main.c: 166:                     POT2 = (6.55*(DATO-48)+31);
  1050  0EFF  086D               	movf	_DATO,w
  1051  0F00  3ED0               	addlw	208
  1052  0F01  00A0               	movwf	___xxtofl@val
  1053  0F02  086E               	movf	_DATO+1,w
  1054  0F03  1803               	skipnc
  1055  0F04  3E01               	addlw	1
  1056  0F05  3EFF               	addlw	255
  1057  0F06  00A1               	movwf	___xxtofl@val+1
  1058  0F07  01A2               	clrf	___xxtofl@val+2
  1059  0F08  1BA1               	btfsc	___xxtofl@val+1,7
  1060  0F09  03A2               	decf	___xxtofl@val+2,f
  1061  0F0A  0822               	movf	___xxtofl@val+2,w
  1062  0F0B  00A3               	movwf	___xxtofl@val+3
  1063  0F0C  3001               	movlw	1
  1064  0F0D  120A  158A  24D3  120A  158A  	fcall	___xxtofl
  1065  0F12  1283               	bcf	3,5	;RP0=0, select bank0
  1066  0F13  1303               	bcf	3,6	;RP1=0, select bank0
  1067  0F14  0823               	movf	?___xxtofl+3,w
  1068  0F15  00B5               	movwf	___flmul@a+3
  1069  0F16  0822               	movf	?___xxtofl+2,w
  1070  0F17  00B4               	movwf	___flmul@a+2
  1071  0F18  0821               	movf	?___xxtofl+1,w
  1072  0F19  00B3               	movwf	___flmul@a+1
  1073  0F1A  0820               	movf	?___xxtofl,w
  1074  0F1B  00B2               	movwf	___flmul@a
  1075  0F1C  3040               	movlw	64
  1076  0F1D  00B1               	movwf	___flmul@b+3
  1077  0F1E  30D1               	movlw	209
  1078  0F1F  00B0               	movwf	___flmul@b+2
  1079  0F20  3099               	movlw	153
  1080  0F21  00AF               	movwf	___flmul@b+1
  1081  0F22  309A               	movlw	154
  1082  0F23  00AE               	movwf	___flmul@b
  1083  0F24  120A  118A  2049  120A  158A  	fcall	___flmul
  1084  0F29  1283               	bcf	3,5	;RP0=0, select bank0
  1085  0F2A  1303               	bcf	3,6	;RP1=0, select bank0
  1086  0F2B  0831               	movf	?___flmul+3,w
  1087  0F2C  00CF               	movwf	___fladd@a+3
  1088  0F2D  0830               	movf	?___flmul+2,w
  1089  0F2E  00CE               	movwf	___fladd@a+2
  1090  0F2F  082F               	movf	?___flmul+1,w
  1091  0F30  00CD               	movwf	___fladd@a+1
  1092  0F31  082E               	movf	?___flmul,w
  1093  0F32  00CC               	movwf	___fladd@a
  1094  0F33  3041               	movlw	65
  1095  0F34  00CB               	movwf	___fladd@b+3
  1096  0F35  30F8               	movlw	248
  1097  0F36  00CA               	movwf	___fladd@b+2
  1098  0F37  3000               	movlw	0
  1099  0F38  00C9               	movwf	___fladd@b+1
  1100  0F39  3000               	movlw	0
  1101  0F3A  00C8               	movwf	___fladd@b
  1102  0F3B  120A  118A  23AA  120A  158A  	fcall	___fladd
  1103  0F40  1283               	bcf	3,5	;RP0=0, select bank0
  1104  0F41  1303               	bcf	3,6	;RP1=0, select bank0
  1105  0F42  084B               	movf	?___fladd+3,w
  1106  0F43  00DF               	movwf	___fltol@f1+3
  1107  0F44  084A               	movf	?___fladd+2,w
  1108  0F45  00DE               	movwf	___fltol@f1+2
  1109  0F46  0849               	movf	?___fladd+1,w
  1110  0F47  00DD               	movwf	___fltol@f1+1
  1111  0F48  0848               	movf	?___fladd,w
  1112  0F49  00DC               	movwf	___fltol@f1
  1113  0F4A  120A  158A  232D  120A  158A  	fcall	___fltol
  1114  0F4F  1283               	bcf	3,5	;RP0=0, select bank0
  1115  0F50  1303               	bcf	3,6	;RP1=0, select bank0
  1116  0F51  085D               	movf	?___fltol+1,w
  1117  0F52  00EA               	movwf	_POT2+1
  1118  0F53  085C               	movf	?___fltol,w
  1119  0F54  00E9               	movwf	_POT2
  1120  0F55                     l3062:
  1121                           
  1122                           ;main.c: 167:                     CCPR2L = POT2;
  1123  0F55  0869               	movf	_POT2,w
  1124  0F56  009B               	movwf	27	;volatile
  1125                           
  1126                           ;main.c: 168:                     break;
  1127  0F57  2FF3               	goto	l173
  1128  0F58                     l3064:
  1129                           
  1130                           ;main.c: 170:                     PORTD = 0X03;
  1131  0F58  3003               	movlw	3
  1132  0F59  1283               	bcf	3,5	;RP0=0, select bank0
  1133  0F5A  1303               	bcf	3,6	;RP1=0, select bank0
  1134  0F5B  0088               	movwf	8	;volatile
  1135  0F5C                     l3066:
  1136                           
  1137                           ;main.c: 171:                     POT1 = (8*(DATO-48)+75);
  1138  0F5C  086E               	movf	_DATO+1,w
  1139  0F5D  1683               	bsf	3,5	;RP0=1, select bank1
  1140  0F5E  1303               	bcf	3,6	;RP1=0, select bank1
  1141  0F5F  00B0               	movwf	(??_main^(0+128)+1)
  1142  0F60  1283               	bcf	3,5	;RP0=0, select bank0
  1143  0F61  1303               	bcf	3,6	;RP1=0, select bank0
  1144  0F62  086D               	movf	_DATO,w
  1145  0F63  1683               	bsf	3,5	;RP0=1, select bank1
  1146  0F64  1303               	bcf	3,6	;RP1=0, select bank1
  1147  0F65  00AF               	movwf	??_main^(0+128)
  1148  0F66  1003               	clrc
  1149  0F67  0DAF               	rlf	??_main^(0+128),f
  1150  0F68  0DB0               	rlf	(??_main^(0+128)+1),f
  1151  0F69  1003               	clrc
  1152  0F6A  0DAF               	rlf	??_main^(0+128),f
  1153  0F6B  0DB0               	rlf	(??_main^(0+128)+1),f
  1154  0F6C  1003               	clrc
  1155  0F6D  0DAF               	rlf	??_main^(0+128),f
  1156  0F6E  0DB0               	rlf	(??_main^(0+128)+1),f
  1157  0F6F  082F               	movf	??_main^(0+128),w
  1158  0F70  3ECB               	addlw	203
  1159  0F71  1283               	bcf	3,5	;RP0=0, select bank0
  1160  0F72  1303               	bcf	3,6	;RP1=0, select bank0
  1161  0F73  00EB               	movwf	_POT1
  1162  0F74  1683               	bsf	3,5	;RP0=1, select bank1
  1163  0F75  1303               	bcf	3,6	;RP1=0, select bank1
  1164  0F76  0830               	movf	(??_main+1)^(0+128),w
  1165  0F77  1803               	skipnc
  1166  0F78  3E01               	addlw	1
  1167  0F79  3EFE               	addlw	254
  1168  0F7A  1283               	bcf	3,5	;RP0=0, select bank0
  1169  0F7B  1303               	bcf	3,6	;RP1=0, select bank0
  1170  0F7C  00EC               	movwf	_POT1+1
  1171  0F7D                     l3068:
  1172                           
  1173                           ;main.c: 172:                     CCPR1L = POT1;
  1174  0F7D  086B               	movf	_POT1,w
  1175  0F7E  0095               	movwf	21	;volatile
  1176                           
  1177                           ;main.c: 173:                     break;
  1178  0F7F  2FF3               	goto	l173
  1179  0F80                     l3070:
  1180                           
  1181                           ;main.c: 176:                     PORTD = 0X04;
  1182  0F80  3004               	movlw	4
  1183  0F81  1283               	bcf	3,5	;RP0=0, select bank0
  1184  0F82  1303               	bcf	3,6	;RP1=0, select bank0
  1185  0F83  0088               	movwf	8	;volatile
  1186                           
  1187                           ;main.c: 178:                     switch (DATO - 48){
  1188  0F84  2F94               	goto	l3080
  1189  0F85                     l3072:
  1190                           
  1191                           ;main.c: 180:                             POT3 = 9;
  1192  0F85  3009               	movlw	9
  1193  0F86  00AA               	movwf	_POT3^(0+128)
  1194  0F87  3000               	movlw	0
  1195  0F88  00AB               	movwf	(_POT3^(0+128)+1)
  1196                           
  1197                           ;main.c: 181:                             break;
  1198  0F89  2FF3               	goto	l173
  1199  0F8A                     l3074:
  1200                           
  1201                           ;main.c: 183:                             POT3 = 12;
  1202  0F8A  300C               	movlw	12
  1203  0F8B  00AA               	movwf	_POT3^(0+128)
  1204  0F8C  3000               	movlw	0
  1205  0F8D  00AB               	movwf	(_POT3^(0+128)+1)
  1206                           
  1207                           ;main.c: 184:                             break;
  1208  0F8E  2FF3               	goto	l173
  1209  0F8F                     l3076:
  1210                           
  1211                           ;main.c: 186:                             POT3 = 15;
  1212  0F8F  300F               	movlw	15
  1213  0F90  00AA               	movwf	_POT3^(0+128)
  1214  0F91  3000               	movlw	0
  1215  0F92  00AB               	movwf	(_POT3^(0+128)+1)
  1216                           
  1217                           ;main.c: 187:                             break;
  1218  0F93  2FF3               	goto	l173
  1219  0F94                     l3080:
  1220  0F94  086D               	movf	_DATO,w
  1221  0F95  3ED0               	addlw	208
  1222  0F96  1683               	bsf	3,5	;RP0=1, select bank1
  1223  0F97  1303               	bcf	3,6	;RP1=0, select bank1
  1224  0F98  00AF               	movwf	??_main^(0+128)
  1225  0F99  1283               	bcf	3,5	;RP0=0, select bank0
  1226  0F9A  1303               	bcf	3,6	;RP1=0, select bank0
  1227  0F9B  086E               	movf	_DATO+1,w
  1228  0F9C  1803               	skipnc
  1229  0F9D  3E01               	addlw	1
  1230  0F9E  3EFF               	addlw	255
  1231  0F9F  1683               	bsf	3,5	;RP0=1, select bank1
  1232  0FA0  1303               	bcf	3,6	;RP1=0, select bank1
  1233  0FA1  00B0               	movwf	(??_main+1)^(0+128)
  1234                           
  1235                           ; Switch on 2 bytes has been partitioned into a top level switch of size 1, and 1 sub-sw
      +                          itches
  1236                           ; Switch size 1, requested type "simple"
  1237                           ; Number of cases is 1, Range of values is 0 to 0
  1238                           ; switch strategies available:
  1239                           ; Name         Instructions Cycles
  1240                           ; simple_byte            4     3 (average)
  1241                           ; direct_byte           11     8 (fixed)
  1242                           ; jumptable            260     6 (fixed)
  1243                           ;	Chosen strategy is simple_byte
  1244  0FA2  0830               	movf	(??_main+1)^(0+128),w
  1245  0FA3  3A00               	xorlw	0	; case 0
  1246  0FA4  1903               	skipnz
  1247  0FA5  2FA7               	goto	l3224
  1248  0FA6  2FF3               	goto	l173
  1249  0FA7                     l3224:
  1250                           
  1251                           ; Switch size 1, requested type "simple"
  1252                           ; Number of cases is 3, Range of values is 0 to 2
  1253                           ; switch strategies available:
  1254                           ; Name         Instructions Cycles
  1255                           ; simple_byte           10     6 (average)
  1256                           ; direct_byte           17     8 (fixed)
  1257                           ; jumptable            260     6 (fixed)
  1258                           ;	Chosen strategy is simple_byte
  1259  0FA7  082F               	movf	??_main^(0+128),w
  1260  0FA8  3A00               	xorlw	0	; case 0
  1261  0FA9  1903               	skipnz
  1262  0FAA  2F85               	goto	l3072
  1263  0FAB  3A01               	xorlw	1	; case 1
  1264  0FAC  1903               	skipnz
  1265  0FAD  2F8A               	goto	l3074
  1266  0FAE  3A03               	xorlw	3	; case 2
  1267  0FAF  1903               	skipnz
  1268  0FB0  2F8F               	goto	l3076
  1269  0FB1  2FF3               	goto	l173
  1270  0FB2                     l3082:
  1271                           
  1272                           ;main.c: 191:                     GUARDAR(POT0, POT1, POT2, POT3);
  1273  0FB2  0876               	movf	_POT0+1,w
  1274  0FB3  1283               	bcf	3,5	;RP0=0, select bank0
  1275  0FB4  1303               	bcf	3,6	;RP1=0, select bank0
  1276  0FB5  00A5               	movwf	GUARDAR@POT0+1
  1277  0FB6  0875               	movf	_POT0,w
  1278  0FB7  00A4               	movwf	GUARDAR@POT0
  1279  0FB8  086C               	movf	_POT1+1,w
  1280  0FB9  00A7               	movwf	GUARDAR@POT1+1
  1281  0FBA  086B               	movf	_POT1,w
  1282  0FBB  00A6               	movwf	GUARDAR@POT1
  1283  0FBC  086A               	movf	_POT2+1,w
  1284  0FBD  00A9               	movwf	GUARDAR@POT2+1
  1285  0FBE  0869               	movf	_POT2,w
  1286  0FBF  00A8               	movwf	GUARDAR@POT2
  1287  0FC0  1683               	bsf	3,5	;RP0=1, select bank1
  1288  0FC1  1303               	bcf	3,6	;RP1=0, select bank1
  1289  0FC2  082B               	movf	(_POT3+1)^(0+128),w
  1290  0FC3  1283               	bcf	3,5	;RP0=0, select bank0
  1291  0FC4  1303               	bcf	3,6	;RP1=0, select bank0
  1292  0FC5  00AB               	movwf	GUARDAR@POT3+1
  1293  0FC6  1683               	bsf	3,5	;RP0=1, select bank1
  1294  0FC7  1303               	bcf	3,6	;RP1=0, select bank1
  1295  0FC8  082A               	movf	_POT3^(0+128),w
  1296  0FC9  1283               	bcf	3,5	;RP0=0, select bank0
  1297  0FCA  1303               	bcf	3,6	;RP1=0, select bank0
  1298  0FCB  00AA               	movwf	GUARDAR@POT3
  1299  0FCC  120A  158A  2426  120A  158A  	fcall	_GUARDAR
  1300  0FD1                     l3084:
  1301                           
  1302                           ;main.c: 192:                     SEL = 96;
  1303  0FD1  3060               	movlw	96
  1304  0FD2  1683               	bsf	3,5	;RP0=1, select bank1
  1305  0FD3  1303               	bcf	3,6	;RP1=0, select bank1
  1306  0FD4  00A4               	movwf	_SEL^(0+128)
  1307  0FD5  3000               	movlw	0
  1308  0FD6  00A5               	movwf	(_SEL^(0+128)+1)
  1309                           
  1310                           ;main.c: 193:                     break;
  1311  0FD7  2FF3               	goto	l173
  1312  0FD8                     l3088:
  1313                           
  1314                           ; Switch on 2 bytes has been partitioned into a top level switch of size 1, and 1 sub-sw
      +                          itches
  1315                           ; Switch size 1, requested type "simple"
  1316                           ; Number of cases is 1, Range of values is 0 to 0
  1317                           ; switch strategies available:
  1318                           ; Name         Instructions Cycles
  1319                           ; simple_byte            4     3 (average)
  1320                           ; direct_byte           11     8 (fixed)
  1321                           ; jumptable            260     6 (fixed)
  1322                           ;	Chosen strategy is simple_byte
  1323  0FD8  1683               	bsf	3,5	;RP0=1, select bank1
  1324  0FD9  1303               	bcf	3,6	;RP1=0, select bank1
  1325  0FDA  0825               	movf	(_SEL+1)^(0+128),w
  1326  0FDB  3A00               	xorlw	0	; case 0
  1327  0FDC  1903               	skipnz
  1328  0FDD  2FDF               	goto	l3226
  1329  0FDE  2FF3               	goto	l173
  1330  0FDF                     l3226:
  1331                           
  1332                           ; Switch size 1, requested type "simple"
  1333                           ; Number of cases is 6, Range of values is 96 to 101
  1334                           ; switch strategies available:
  1335                           ; Name         Instructions Cycles
  1336                           ; simple_byte           19    10 (average)
  1337                           ; direct_byte           29    11 (fixed)
  1338                           ; jumptable            263     9 (fixed)
  1339                           ;	Chosen strategy is simple_byte
  1340  0FDF  0824               	movf	_SEL^(0+128),w
  1341  0FE0  3A60               	xorlw	96	; case 96
  1342  0FE1  1903               	skipnz
  1343  0FE2  2FF3               	goto	l173
  1344  0FE3  3A01               	xorlw	1	; case 97
  1345  0FE4  1903               	skipnz
  1346  0FE5  2EA0               	goto	l3054
  1347  0FE6  3A03               	xorlw	3	; case 98
  1348  0FE7  1903               	skipnz
  1349  0FE8  2EFB               	goto	l3058
  1350  0FE9  3A01               	xorlw	1	; case 99
  1351  0FEA  1903               	skipnz
  1352  0FEB  2F58               	goto	l3064
  1353  0FEC  3A07               	xorlw	7	; case 100
  1354  0FED  1903               	skipnz
  1355  0FEE  2F80               	goto	l3070
  1356  0FEF  3A01               	xorlw	1	; case 101
  1357  0FF0  1903               	skipnz
  1358  0FF1  2FB2               	goto	l3082
  1359  0FF2  2FF3               	goto	l173
  1360  0FF3                     l173:	
  1361                           ;main.c: 196:         }
  1362                           
  1363                           
  1364                           ;main.c: 153:         while (RB6 == 1 && RB7 == 0){
  1365  0FF3  1283               	bcf	3,5	;RP0=0, select bank0
  1366  0FF4  1F06               	btfss	6,6	;volatile
  1367  0FF5  2FF7               	goto	u3521
  1368  0FF6  2FF8               	goto	u3520
  1369  0FF7                     u3521:
  1370  0FF7  2DE6               	goto	l159
  1371  0FF8                     u3520:
  1372  0FF8                     l3090:
  1373  0FF8  1F86               	btfss	6,7	;volatile
  1374  0FF9  2FFB               	goto	u3531
  1375  0FFA  2FFC               	goto	u3530
  1376  0FFB                     u3531:
  1377  0FFB  2E9D               	goto	l3052
  1378  0FFC                     u3530:
  1379  0FFC  2DE6               	goto	l3022
  1380  0FFD  120A  118A  2810   	ljmp	start
  1381  1000                     __end_of_main:
  1382                           
  1383                           	psect	text1
  1384  0AB4                     __ptext1:	
  1385 ;; *************** function _setup *****************
  1386 ;; Defined at:
  1387 ;;		line 200 in file "main.c"
  1388 ;; Parameters:    Size  Location     Type
  1389 ;;		None
  1390 ;; Auto vars:     Size  Location     Type
  1391 ;;		None
  1392 ;; Return value:  Size  Location     Type
  1393 ;;                  1    wreg      void 
  1394 ;; Registers used:
  1395 ;;		wreg, status,2, status,0
  1396 ;; Tracked objects:
  1397 ;;		On entry : 0/0
  1398 ;;		On exit  : 0/0
  1399 ;;		Unchanged: 0/0
  1400 ;; Data sizes:     COMMON   BANK0   BANK1   BANK3   BANK2
  1401 ;;      Params:         0       0       0       0       0
  1402 ;;      Locals:         0       0       0       0       0
  1403 ;;      Temps:          0       1       0       0       0
  1404 ;;      Totals:         0       1       0       0       0
  1405 ;;Total ram usage:        1 bytes
  1406 ;; Hardware stack levels used:    1
  1407 ;; Hardware stack levels required when called:    1
  1408 ;; This function calls:
  1409 ;;		Nothing
  1410 ;; This function is called by:
  1411 ;;		_main
  1412 ;; This function uses a non-reentrant model
  1413 ;;
  1414                           
  1415                           
  1416                           ;psect for function _setup
  1417  0AB4                     _setup:
  1418  0AB4                     l2810:	
  1419                           ;incstack = 0
  1420                           ; Regs used in _setup: [wreg+status,2+status,0]
  1421                           
  1422                           
  1423                           ;main.c: 202:     ANSEL = 0B00000111;
  1424  0AB4  3007               	movlw	7
  1425  0AB5  1683               	bsf	3,5	;RP0=1, select bank3
  1426  0AB6  1703               	bsf	3,6	;RP1=1, select bank3
  1427  0AB7  0088               	movwf	8	;volatile
  1428                           
  1429                           ;main.c: 203:     ANSELH = 0X02;
  1430  0AB8  3002               	movlw	2
  1431  0AB9  0089               	movwf	9	;volatile
  1432                           
  1433                           ;main.c: 205:     TRISA = 0B00001111;
  1434  0ABA  300F               	movlw	15
  1435  0ABB  1683               	bsf	3,5	;RP0=1, select bank1
  1436  0ABC  1303               	bcf	3,6	;RP1=0, select bank1
  1437  0ABD  0085               	movwf	5	;volatile
  1438                           
  1439                           ;main.c: 206:     TRISC = 0B10000000;
  1440  0ABE  3080               	movlw	128
  1441  0ABF  0087               	movwf	7	;volatile
  1442  0AC0                     l2812:
  1443                           
  1444                           ;main.c: 207:     TRISD = 0X00;
  1445  0AC0  0188               	clrf	8	;volatile
  1446  0AC1                     l2814:
  1447                           
  1448                           ;main.c: 208:     TRISE = 0X00;
  1449  0AC1  0189               	clrf	9	;volatile
  1450                           
  1451                           ;main.c: 209:     TRISB = 0B11111111;
  1452  0AC2  30FF               	movlw	255
  1453  0AC3  0086               	movwf	6	;volatile
  1454  0AC4                     l2816:
  1455                           
  1456                           ;main.c: 211:     PORTA = 0X00;
  1457  0AC4  1283               	bcf	3,5	;RP0=0, select bank0
  1458  0AC5  1303               	bcf	3,6	;RP1=0, select bank0
  1459  0AC6  0185               	clrf	5	;volatile
  1460  0AC7                     l2818:
  1461                           
  1462                           ;main.c: 212:     PORTB = 0X00;
  1463  0AC7  0186               	clrf	6	;volatile
  1464  0AC8                     l2820:
  1465                           
  1466                           ;main.c: 213:     PORTC = 0X00;
  1467  0AC8  0187               	clrf	7	;volatile
  1468  0AC9                     l2822:
  1469                           
  1470                           ;main.c: 214:     PORTD = 0X00;
  1471  0AC9  0188               	clrf	8	;volatile
  1472  0ACA                     l2824:
  1473                           
  1474                           ;main.c: 215:     PORTE = 0X00;
  1475  0ACA  0189               	clrf	9	;volatile
  1476  0ACB                     l2826:
  1477                           
  1478                           ;main.c: 218:     OSCCONbits.IRCF2 = 1;
  1479  0ACB  1683               	bsf	3,5	;RP0=1, select bank1
  1480  0ACC  1303               	bcf	3,6	;RP1=0, select bank1
  1481  0ACD  170F               	bsf	15,6	;volatile
  1482  0ACE                     l2828:
  1483                           
  1484                           ;main.c: 219:     OSCCONbits.IRCF1 = 1;
  1485  0ACE  168F               	bsf	15,5	;volatile
  1486  0ACF                     l2830:
  1487                           
  1488                           ;main.c: 220:     OSCCONbits.IRCF0 = 0;
  1489  0ACF  120F               	bcf	15,4	;volatile
  1490  0AD0                     l2832:
  1491                           
  1492                           ;main.c: 221:     OSCCONbits.SCS = 1;
  1493  0AD0  140F               	bsf	15,0	;volatile
  1494  0AD1                     l2834:
  1495                           
  1496                           ;main.c: 224:     OPTION_REG = 0B01000000;
  1497  0AD1  3040               	movlw	64
  1498  0AD2  0081               	movwf	1	;volatile
  1499  0AD3                     l2836:
  1500                           
  1501                           ;main.c: 225:     TMR0 = 206;
  1502  0AD3  30CE               	movlw	206
  1503  0AD4  1283               	bcf	3,5	;RP0=0, select bank0
  1504  0AD5  1303               	bcf	3,6	;RP1=0, select bank0
  1505  0AD6  0081               	movwf	1	;volatile
  1506  0AD7                     l2838:
  1507                           
  1508                           ;main.c: 234:     WPUB = 0B11110011;
  1509  0AD7  30F3               	movlw	243
  1510  0AD8  1683               	bsf	3,5	;RP0=1, select bank1
  1511  0AD9  1303               	bcf	3,6	;RP1=0, select bank1
  1512  0ADA  0095               	movwf	21	;volatile
  1513  0ADB                     l2840:
  1514                           
  1515                           ;main.c: 235:     IOCB = 0B11110011;
  1516  0ADB  30F3               	movlw	243
  1517  0ADC  0096               	movwf	22	;volatile
  1518  0ADD                     l2842:
  1519                           
  1520                           ;main.c: 237:     T2CON = 0B11111111;
  1521  0ADD  30FF               	movlw	255
  1522  0ADE  1283               	bcf	3,5	;RP0=0, select bank0
  1523  0ADF  1303               	bcf	3,6	;RP1=0, select bank0
  1524  0AE0  0092               	movwf	18	;volatile
  1525  0AE1                     l2844:
  1526                           
  1527                           ;main.c: 238:     PR2 = 187;
  1528  0AE1  30BB               	movlw	187
  1529  0AE2  1683               	bsf	3,5	;RP0=1, select bank1
  1530  0AE3  1303               	bcf	3,6	;RP1=0, select bank1
  1531  0AE4  0092               	movwf	18	;volatile
  1532  0AE5                     l2846:
  1533                           
  1534                           ;main.c: 240:     CCP1CON = 0B00001100;
  1535  0AE5  300C               	movlw	12
  1536  0AE6  1283               	bcf	3,5	;RP0=0, select bank0
  1537  0AE7  1303               	bcf	3,6	;RP1=0, select bank0
  1538  0AE8  0097               	movwf	23	;volatile
  1539  0AE9                     l2848:
  1540                           
  1541                           ;main.c: 242:     CCP2CONbits.CCP2M0 = 1;
  1542  0AE9  141D               	bsf	29,0	;volatile
  1543  0AEA                     l2850:
  1544                           
  1545                           ;main.c: 243:     CCP2CONbits.CCP2M1 = 1;
  1546  0AEA  149D               	bsf	29,1	;volatile
  1547  0AEB                     l2852:
  1548                           
  1549                           ;main.c: 244:     CCP2CONbits.CCP2M2 = 1;
  1550  0AEB  151D               	bsf	29,2	;volatile
  1551  0AEC                     l2854:
  1552                           
  1553                           ;main.c: 245:     CCP2CONbits.CCP2M3 = 1;
  1554  0AEC  159D               	bsf	29,3	;volatile
  1555  0AED                     l2856:
  1556                           
  1557                           ;main.c: 246:     CCP2CONbits.DC2B0 = 0;
  1558  0AED  121D               	bcf	29,4	;volatile
  1559  0AEE                     l2858:
  1560                           
  1561                           ;main.c: 247:     CCP2CONbits.DC2B1 = 0;
  1562  0AEE  129D               	bcf	29,5	;volatile
  1563  0AEF                     l2860:
  1564                           
  1565                           ;main.c: 249:     ADCON0bits.ADON = 0X01;
  1566  0AEF  141F               	bsf	31,0	;volatile
  1567  0AF0                     l2862:
  1568                           
  1569                           ;main.c: 250:     ADCON0bits.CHS = 0;
  1570  0AF0  30C3               	movlw	-61
  1571  0AF1  059F               	andwf	31,f	;volatile
  1572  0AF2                     l2864:
  1573                           
  1574                           ;main.c: 251:     _delay((unsigned long)((100)*(4000000/4000000.0)));
  1575  0AF2  3020               	movlw	32
  1576  0AF3  1283               	bcf	3,5	;RP0=0, select bank0
  1577  0AF4  1303               	bcf	3,6	;RP1=0, select bank0
  1578  0AF5  00A0               	movwf	??_setup
  1579  0AF6                     u3547:
  1580  0AF6  0BA0               	decfsz	??_setup,f
  1581  0AF7  2AF6               	goto	u3547
  1582  0AF8  0000               	nop
  1583  0AF9                     l2866:
  1584                           
  1585                           ;main.c: 252:     ADCON0bits.ADCS = 0X01;
  1586  0AF9  1283               	bcf	3,5	;RP0=0, select bank0
  1587  0AFA  1303               	bcf	3,6	;RP1=0, select bank0
  1588  0AFB  081F               	movf	31,w	;volatile
  1589  0AFC  393F               	andlw	-193
  1590  0AFD  3840               	iorlw	64
  1591  0AFE  009F               	movwf	31	;volatile
  1592  0AFF                     l2868:
  1593                           
  1594                           ;main.c: 253:     ADCON1bits.ADFM = 0;
  1595  0AFF  1683               	bsf	3,5	;RP0=1, select bank1
  1596  0B00  1303               	bcf	3,6	;RP1=0, select bank1
  1597  0B01  139F               	bcf	31,7	;volatile
  1598  0B02                     l2870:
  1599                           
  1600                           ;main.c: 254:     ADCON1bits.VCFG0 = 0;
  1601  0B02  121F               	bcf	31,4	;volatile
  1602  0B03                     l2872:
  1603                           
  1604                           ;main.c: 255:     ADCON1bits.VCFG1 = 0;
  1605  0B03  129F               	bcf	31,5	;volatile
  1606  0B04                     l2874:
  1607                           
  1608                           ;main.c: 257:     INTCONbits.GIE = 1;
  1609  0B04  178B               	bsf	11,7	;volatile
  1610  0B05                     l2876:
  1611                           
  1612                           ;main.c: 258:     INTCONbits.T0IE = 1;
  1613  0B05  168B               	bsf	11,5	;volatile
  1614  0B06                     l2878:
  1615                           
  1616                           ;main.c: 259:     INTCONbits.T0IF = 0;
  1617  0B06  110B               	bcf	11,2	;volatile
  1618  0B07                     l2880:
  1619                           
  1620                           ;main.c: 260:     PIE1bits.ADIE = 1;
  1621  0B07  170C               	bsf	12,6	;volatile
  1622  0B08                     l2882:
  1623                           
  1624                           ;main.c: 261:     PIR1bits.ADIF = 0;
  1625  0B08  1283               	bcf	3,5	;RP0=0, select bank0
  1626  0B09  1303               	bcf	3,6	;RP1=0, select bank0
  1627  0B0A  130C               	bcf	12,6	;volatile
  1628  0B0B                     l2884:
  1629                           
  1630                           ;main.c: 262:     INTCONbits.RBIE = 0;
  1631  0B0B  118B               	bcf	11,3	;volatile
  1632  0B0C                     l2886:
  1633                           
  1634                           ;main.c: 263:     INTCONbits.RBIF = 0;
  1635  0B0C  100B               	bcf	11,0	;volatile
  1636  0B0D                     l2888:
  1637                           
  1638                           ;main.c: 264:     INTCONbits.PEIE = 1;
  1639  0B0D  170B               	bsf	11,6	;volatile
  1640  0B0E                     l2890:
  1641                           
  1642                           ;main.c: 265:     PIE1bits.RCIE = 1;
  1643  0B0E  1683               	bsf	3,5	;RP0=1, select bank1
  1644  0B0F  1303               	bcf	3,6	;RP1=0, select bank1
  1645  0B10  168C               	bsf	12,5	;volatile
  1646  0B11                     l2892:
  1647                           
  1648                           ;main.c: 266:     PIR1bits.RCIF = 0;
  1649  0B11  1283               	bcf	3,5	;RP0=0, select bank0
  1650  0B12  1303               	bcf	3,6	;RP1=0, select bank0
  1651  0B13  128C               	bcf	12,5	;volatile
  1652  0B14                     l2894:
  1653                           
  1654                           ;main.c: 268:     TXSTAbits.TXEN = 1;
  1655  0B14  1683               	bsf	3,5	;RP0=1, select bank1
  1656  0B15  1303               	bcf	3,6	;RP1=0, select bank1
  1657  0B16  1698               	bsf	24,5	;volatile
  1658  0B17                     l2896:
  1659                           
  1660                           ;main.c: 269:     TXSTAbits.SYNC = 0;
  1661  0B17  1218               	bcf	24,4	;volatile
  1662  0B18                     l2898:
  1663                           
  1664                           ;main.c: 270:     RCSTAbits.SPEN = 1;
  1665  0B18  1283               	bcf	3,5	;RP0=0, select bank0
  1666  0B19  1303               	bcf	3,6	;RP1=0, select bank0
  1667  0B1A  1798               	bsf	24,7	;volatile
  1668  0B1B                     l2900:
  1669                           
  1670                           ;main.c: 271:     TXSTAbits.TX9 = 0;
  1671  0B1B  1683               	bsf	3,5	;RP0=1, select bank1
  1672  0B1C  1303               	bcf	3,6	;RP1=0, select bank1
  1673  0B1D  1318               	bcf	24,6	;volatile
  1674  0B1E                     l2902:
  1675                           
  1676                           ;main.c: 273:     RCSTAbits.CREN = 1;
  1677  0B1E  1283               	bcf	3,5	;RP0=0, select bank0
  1678  0B1F  1303               	bcf	3,6	;RP1=0, select bank0
  1679  0B20  1618               	bsf	24,4	;volatile
  1680  0B21                     l2904:
  1681                           
  1682                           ;main.c: 274:     RCSTAbits.RX9 = 0;
  1683  0B21  1318               	bcf	24,6	;volatile
  1684  0B22                     l2906:
  1685                           
  1686                           ;main.c: 276:     BAUDCTLbits.BRG16 = 0;
  1687  0B22  1683               	bsf	3,5	;RP0=1, select bank3
  1688  0B23  1703               	bsf	3,6	;RP1=1, select bank3
  1689  0B24  1187               	bcf	7,3	;volatile
  1690  0B25                     l2908:
  1691                           
  1692                           ;main.c: 277:     SPBRG = 25;
  1693  0B25  3019               	movlw	25
  1694  0B26  1683               	bsf	3,5	;RP0=1, select bank1
  1695  0B27  1303               	bcf	3,6	;RP1=0, select bank1
  1696  0B28  0099               	movwf	25	;volatile
  1697  0B29                     l2910:
  1698                           
  1699                           ;main.c: 278:     SPBRGH = 1;
  1700  0B29  3001               	movlw	1
  1701  0B2A  009A               	movwf	26	;volatile
  1702  0B2B                     l2912:
  1703                           
  1704                           ;main.c: 279:     TXSTAbits.BRGH = 1;
  1705  0B2B  1518               	bsf	24,2	;volatile
  1706  0B2C                     l196:
  1707  0B2C  0008               	return
  1708  0B2D                     __end_of_setup:
  1709                           
  1710                           	psect	text2
  1711  0C26                     __ptext2:	
  1712 ;; *************** function _GUARDAR *****************
  1713 ;; Defined at:
  1714 ;;		line 282 in file "main.c"
  1715 ;; Parameters:    Size  Location     Type
  1716 ;;  POT0            2    4[BANK0 ] unsigned int 
  1717 ;;  POT1            2    6[BANK0 ] unsigned int 
  1718 ;;  POT2            2    8[BANK0 ] unsigned int 
  1719 ;;  POT3            2   10[BANK0 ] unsigned int 
  1720 ;; Auto vars:     Size  Location     Type
  1721 ;;		None
  1722 ;; Return value:  Size  Location     Type
  1723 ;;                  1    wreg      void 
  1724 ;; Registers used:
  1725 ;;		wreg, fsr0l, fsr0h, status,2, status,0, pclath, cstack
  1726 ;; Tracked objects:
  1727 ;;		On entry : 0/0
  1728 ;;		On exit  : 0/0
  1729 ;;		Unchanged: 0/0
  1730 ;; Data sizes:     COMMON   BANK0   BANK1   BANK3   BANK2
  1731 ;;      Params:         0       8       0       0       0
  1732 ;;      Locals:         0       0       0       0       0
  1733 ;;      Temps:          0       0       0       0       0
  1734 ;;      Totals:         0       8       0       0       0
  1735 ;;Total ram usage:        8 bytes
  1736 ;; Hardware stack levels used:    1
  1737 ;; Hardware stack levels required when called:    2
  1738 ;; This function calls:
  1739 ;;		_EEPROM_W
  1740 ;; This function is called by:
  1741 ;;		_main
  1742 ;; This function uses a non-reentrant model
  1743 ;;
  1744                           
  1745                           
  1746                           ;psect for function _GUARDAR
  1747  0C26                     _GUARDAR:
  1748  0C26                     l2976:	
  1749                           ;incstack = 0
  1750                           ; Regs used in _GUARDAR: [wreg-fsr0h+status,2+status,0+pclath+cstack]
  1751                           
  1752                           
  1753                           ;main.c: 283:     switch (SEL_G){
  1754  0C26  2CC0               	goto	l2992
  1755  0C27                     l2978:
  1756                           
  1757                           ;main.c: 285:                     EEPROM_W(POT0, 0);
  1758  0C27  1283               	bcf	3,5	;RP0=0, select bank0
  1759  0C28  1303               	bcf	3,6	;RP1=0, select bank0
  1760  0C29  0825               	movf	GUARDAR@POT0+1,w
  1761  0C2A  00A1               	movwf	EEPROM_W@dato+1
  1762  0C2B  0824               	movf	GUARDAR@POT0,w
  1763  0C2C  00A0               	movwf	EEPROM_W@dato
  1764  0C2D  3000               	movlw	0
  1765  0C2E  00A2               	movwf	EEPROM_W@add
  1766  0C2F  00A3               	movwf	EEPROM_W@add+1
  1767  0C30  120A  158A  2269  120A  158A  	fcall	_EEPROM_W
  1768                           
  1769                           ;main.c: 286:                     EEPROM_W(POT1, 1);
  1770  0C35  1283               	bcf	3,5	;RP0=0, select bank0
  1771  0C36  1303               	bcf	3,6	;RP1=0, select bank0
  1772  0C37  0827               	movf	GUARDAR@POT1+1,w
  1773  0C38  00A1               	movwf	EEPROM_W@dato+1
  1774  0C39  0826               	movf	GUARDAR@POT1,w
  1775  0C3A  00A0               	movwf	EEPROM_W@dato
  1776  0C3B  3001               	movlw	1
  1777  0C3C  00A2               	movwf	EEPROM_W@add
  1778  0C3D  3000               	movlw	0
  1779  0C3E  00A3               	movwf	EEPROM_W@add+1
  1780  0C3F  120A  158A  2269  120A  158A  	fcall	_EEPROM_W
  1781                           
  1782                           ;main.c: 287:                     EEPROM_W(POT2, 2);
  1783  0C44  1283               	bcf	3,5	;RP0=0, select bank0
  1784  0C45  1303               	bcf	3,6	;RP1=0, select bank0
  1785  0C46  0829               	movf	GUARDAR@POT2+1,w
  1786  0C47  00A1               	movwf	EEPROM_W@dato+1
  1787  0C48  0828               	movf	GUARDAR@POT2,w
  1788  0C49  00A0               	movwf	EEPROM_W@dato
  1789  0C4A  3002               	movlw	2
  1790  0C4B  00A2               	movwf	EEPROM_W@add
  1791  0C4C  3000               	movlw	0
  1792  0C4D  00A3               	movwf	EEPROM_W@add+1
  1793  0C4E  120A  158A  2269  120A  158A  	fcall	_EEPROM_W
  1794  0C53                     l2980:
  1795                           
  1796                           ;main.c: 288:                     SEL_G = 1;
  1797  0C53  3001               	movlw	1
  1798  0C54  1683               	bsf	3,5	;RP0=1, select bank1
  1799  0C55  1303               	bcf	3,6	;RP1=0, select bank1
  1800  0C56  00A6               	movwf	_SEL_G^(0+128)
  1801  0C57  3000               	movlw	0
  1802  0C58  00A7               	movwf	(_SEL_G^(0+128)+1)
  1803                           
  1804                           ;main.c: 289:                     break;
  1805  0C59  2CD2               	goto	l204
  1806  0C5A                     l2982:
  1807                           
  1808                           ;main.c: 291:                     EEPROM_W(POT0, 3);
  1809  0C5A  1283               	bcf	3,5	;RP0=0, select bank0
  1810  0C5B  1303               	bcf	3,6	;RP1=0, select bank0
  1811  0C5C  0825               	movf	GUARDAR@POT0+1,w
  1812  0C5D  00A1               	movwf	EEPROM_W@dato+1
  1813  0C5E  0824               	movf	GUARDAR@POT0,w
  1814  0C5F  00A0               	movwf	EEPROM_W@dato
  1815  0C60  3003               	movlw	3
  1816  0C61  00A2               	movwf	EEPROM_W@add
  1817  0C62  3000               	movlw	0
  1818  0C63  00A3               	movwf	EEPROM_W@add+1
  1819  0C64  120A  158A  2269  120A  158A  	fcall	_EEPROM_W
  1820                           
  1821                           ;main.c: 292:                     EEPROM_W(POT1, 4);
  1822  0C69  1283               	bcf	3,5	;RP0=0, select bank0
  1823  0C6A  1303               	bcf	3,6	;RP1=0, select bank0
  1824  0C6B  0827               	movf	GUARDAR@POT1+1,w
  1825  0C6C  00A1               	movwf	EEPROM_W@dato+1
  1826  0C6D  0826               	movf	GUARDAR@POT1,w
  1827  0C6E  00A0               	movwf	EEPROM_W@dato
  1828  0C6F  3004               	movlw	4
  1829  0C70  00A2               	movwf	EEPROM_W@add
  1830  0C71  3000               	movlw	0
  1831  0C72  00A3               	movwf	EEPROM_W@add+1
  1832  0C73  120A  158A  2269  120A  158A  	fcall	_EEPROM_W
  1833                           
  1834                           ;main.c: 293:                     EEPROM_W(POT2, 5);
  1835  0C78  1283               	bcf	3,5	;RP0=0, select bank0
  1836  0C79  1303               	bcf	3,6	;RP1=0, select bank0
  1837  0C7A  0829               	movf	GUARDAR@POT2+1,w
  1838  0C7B  00A1               	movwf	EEPROM_W@dato+1
  1839  0C7C  0828               	movf	GUARDAR@POT2,w
  1840  0C7D  00A0               	movwf	EEPROM_W@dato
  1841  0C7E  3005               	movlw	5
  1842  0C7F  00A2               	movwf	EEPROM_W@add
  1843  0C80  3000               	movlw	0
  1844  0C81  00A3               	movwf	EEPROM_W@add+1
  1845  0C82  120A  158A  2269  120A  158A  	fcall	_EEPROM_W
  1846  0C87                     l2984:
  1847                           
  1848                           ;main.c: 294:                     SEL_G = 2;
  1849  0C87  3002               	movlw	2
  1850  0C88  1683               	bsf	3,5	;RP0=1, select bank1
  1851  0C89  1303               	bcf	3,6	;RP1=0, select bank1
  1852  0C8A  00A6               	movwf	_SEL_G^(0+128)
  1853  0C8B  3000               	movlw	0
  1854  0C8C  00A7               	movwf	(_SEL_G^(0+128)+1)
  1855                           
  1856                           ;main.c: 295:                     break;
  1857  0C8D  2CD2               	goto	l204
  1858  0C8E                     l2986:
  1859                           
  1860                           ;main.c: 297:                     EEPROM_W(POT0, 6);
  1861  0C8E  1283               	bcf	3,5	;RP0=0, select bank0
  1862  0C8F  1303               	bcf	3,6	;RP1=0, select bank0
  1863  0C90  0825               	movf	GUARDAR@POT0+1,w
  1864  0C91  00A1               	movwf	EEPROM_W@dato+1
  1865  0C92  0824               	movf	GUARDAR@POT0,w
  1866  0C93  00A0               	movwf	EEPROM_W@dato
  1867  0C94  3006               	movlw	6
  1868  0C95  00A2               	movwf	EEPROM_W@add
  1869  0C96  3000               	movlw	0
  1870  0C97  00A3               	movwf	EEPROM_W@add+1
  1871  0C98  120A  158A  2269  120A  158A  	fcall	_EEPROM_W
  1872                           
  1873                           ;main.c: 298:                     EEPROM_W(POT1, 7);
  1874  0C9D  1283               	bcf	3,5	;RP0=0, select bank0
  1875  0C9E  1303               	bcf	3,6	;RP1=0, select bank0
  1876  0C9F  0827               	movf	GUARDAR@POT1+1,w
  1877  0CA0  00A1               	movwf	EEPROM_W@dato+1
  1878  0CA1  0826               	movf	GUARDAR@POT1,w
  1879  0CA2  00A0               	movwf	EEPROM_W@dato
  1880  0CA3  3007               	movlw	7
  1881  0CA4  00A2               	movwf	EEPROM_W@add
  1882  0CA5  3000               	movlw	0
  1883  0CA6  00A3               	movwf	EEPROM_W@add+1
  1884  0CA7  120A  158A  2269  120A  158A  	fcall	_EEPROM_W
  1885                           
  1886                           ;main.c: 299:                     EEPROM_W(POT2, 8);
  1887  0CAC  1283               	bcf	3,5	;RP0=0, select bank0
  1888  0CAD  1303               	bcf	3,6	;RP1=0, select bank0
  1889  0CAE  0829               	movf	GUARDAR@POT2+1,w
  1890  0CAF  00A1               	movwf	EEPROM_W@dato+1
  1891  0CB0  0828               	movf	GUARDAR@POT2,w
  1892  0CB1  00A0               	movwf	EEPROM_W@dato
  1893  0CB2  3008               	movlw	8
  1894  0CB3  00A2               	movwf	EEPROM_W@add
  1895  0CB4  3000               	movlw	0
  1896  0CB5  00A3               	movwf	EEPROM_W@add+1
  1897  0CB6  120A  158A  2269  120A  158A  	fcall	_EEPROM_W
  1898  0CBB                     l2988:
  1899                           
  1900                           ;main.c: 300:                     SEL_G = 0;
  1901  0CBB  1683               	bsf	3,5	;RP0=1, select bank1
  1902  0CBC  1303               	bcf	3,6	;RP1=0, select bank1
  1903  0CBD  01A6               	clrf	_SEL_G^(0+128)
  1904  0CBE  01A7               	clrf	(_SEL_G+1)^(0+128)
  1905                           
  1906                           ;main.c: 301:                     break;
  1907  0CBF  2CD2               	goto	l204
  1908  0CC0                     l2992:
  1909                           
  1910                           ; Switch on 2 bytes has been partitioned into a top level switch of size 1, and 1 sub-sw
      +                          itches
  1911                           ; Switch size 1, requested type "simple"
  1912                           ; Number of cases is 1, Range of values is 0 to 0
  1913                           ; switch strategies available:
  1914                           ; Name         Instructions Cycles
  1915                           ; simple_byte            4     3 (average)
  1916                           ; direct_byte           11     8 (fixed)
  1917                           ; jumptable            260     6 (fixed)
  1918                           ;	Chosen strategy is simple_byte
  1919  0CC0  1683               	bsf	3,5	;RP0=1, select bank1
  1920  0CC1  1303               	bcf	3,6	;RP1=0, select bank1
  1921  0CC2  0827               	movf	(_SEL_G+1)^(0+128),w
  1922  0CC3  3A00               	xorlw	0	; case 0
  1923  0CC4  1903               	skipnz
  1924  0CC5  2CC7               	goto	l3228
  1925  0CC6  2CD2               	goto	l204
  1926  0CC7                     l3228:
  1927                           
  1928                           ; Switch size 1, requested type "simple"
  1929                           ; Number of cases is 3, Range of values is 0 to 2
  1930                           ; switch strategies available:
  1931                           ; Name         Instructions Cycles
  1932                           ; simple_byte           10     6 (average)
  1933                           ; direct_byte           17     8 (fixed)
  1934                           ; jumptable            260     6 (fixed)
  1935                           ;	Chosen strategy is simple_byte
  1936  0CC7  0826               	movf	_SEL_G^(0+128),w
  1937  0CC8  3A00               	xorlw	0	; case 0
  1938  0CC9  1903               	skipnz
  1939  0CCA  2C27               	goto	l2978
  1940  0CCB  3A01               	xorlw	1	; case 1
  1941  0CCC  1903               	skipnz
  1942  0CCD  2C5A               	goto	l2982
  1943  0CCE  3A03               	xorlw	3	; case 2
  1944  0CCF  1903               	skipnz
  1945  0CD0  2C8E               	goto	l2986
  1946  0CD1  2CD2               	goto	l204
  1947  0CD2                     l204:
  1948  0CD2  0008               	return
  1949  0CD3                     __end_of_GUARDAR:
  1950                           
  1951                           	psect	text3
  1952  0A69                     __ptext3:	
  1953 ;; *************** function _EEPROM_W *****************
  1954 ;; Defined at:
  1955 ;;		line 348 in file "main.c"
  1956 ;; Parameters:    Size  Location     Type
  1957 ;;  dato            2    0[BANK0 ] unsigned int 
  1958 ;;  add             2    2[BANK0 ] int 
  1959 ;; Auto vars:     Size  Location     Type
  1960 ;;		None
  1961 ;; Return value:  Size  Location     Type
  1962 ;;                  1    wreg      void 
  1963 ;; Registers used:
  1964 ;;		wreg
  1965 ;; Tracked objects:
  1966 ;;		On entry : 0/0
  1967 ;;		On exit  : 0/0
  1968 ;;		Unchanged: 0/0
  1969 ;; Data sizes:     COMMON   BANK0   BANK1   BANK3   BANK2
  1970 ;;      Params:         0       4       0       0       0
  1971 ;;      Locals:         0       0       0       0       0
  1972 ;;      Temps:          0       0       0       0       0
  1973 ;;      Totals:         0       4       0       0       0
  1974 ;;Total ram usage:        4 bytes
  1975 ;; Hardware stack levels used:    1
  1976 ;; Hardware stack levels required when called:    1
  1977 ;; This function calls:
  1978 ;;		Nothing
  1979 ;; This function is called by:
  1980 ;;		_GUARDAR
  1981 ;; This function uses a non-reentrant model
  1982 ;;
  1983                           
  1984                           
  1985                           ;psect for function _EEPROM_W
  1986  0A69                     _EEPROM_W:
  1987  0A69                     l2616:	
  1988                           ;incstack = 0
  1989                           ; Regs used in _EEPROM_W: [wreg]
  1990                           
  1991                           
  1992                           ;main.c: 349:     EEADR = add;
  1993  0A69  1283               	bcf	3,5	;RP0=0, select bank0
  1994  0A6A  1303               	bcf	3,6	;RP1=0, select bank0
  1995  0A6B  0822               	movf	EEPROM_W@add,w
  1996  0A6C  1283               	bcf	3,5	;RP0=0, select bank2
  1997  0A6D  1703               	bsf	3,6	;RP1=1, select bank2
  1998  0A6E  008D               	movwf	13	;volatile
  1999                           
  2000                           ;main.c: 350:     EEDAT = dato;
  2001  0A6F  1283               	bcf	3,5	;RP0=0, select bank0
  2002  0A70  1303               	bcf	3,6	;RP1=0, select bank0
  2003  0A71  0820               	movf	EEPROM_W@dato,w
  2004  0A72  1283               	bcf	3,5	;RP0=0, select bank2
  2005  0A73  1703               	bsf	3,6	;RP1=1, select bank2
  2006  0A74  008C               	movwf	12	;volatile
  2007  0A75                     l2618:
  2008                           
  2009                           ;main.c: 351:     EECON1bits.EEPGD = 0;
  2010  0A75  1683               	bsf	3,5	;RP0=1, select bank3
  2011  0A76  1703               	bsf	3,6	;RP1=1, select bank3
  2012  0A77  138C               	bcf	12,7	;volsfr
  2013  0A78                     l2620:
  2014                           
  2015                           ;main.c: 352:     EECON1bits.WREN = 1;
  2016  0A78  150C               	bsf	12,2	;volsfr
  2017  0A79                     l2622:
  2018                           
  2019                           ;main.c: 353:     INTCONbits.GIE = 0;
  2020  0A79  138B               	bcf	11,7	;volatile
  2021                           
  2022                           ;main.c: 354:     EECON2 = 0X55;
  2023  0A7A  3055               	movlw	85
  2024  0A7B  008D               	movwf	13	;volsfr
  2025                           
  2026                           ;main.c: 355:     EECON2 = 0XAA;
  2027  0A7C  30AA               	movlw	170
  2028  0A7D  008D               	movwf	13	;volsfr
  2029  0A7E                     l2624:
  2030                           
  2031                           ;main.c: 356:     EECON1bits.WR = 1;
  2032  0A7E  148C               	bsf	12,1	;volsfr
  2033  0A7F                     l221:	
  2034                           ;main.c: 357:     while(PIR2bits.EEIF == 0);
  2035                           
  2036  0A7F  1283               	bcf	3,5	;RP0=0, select bank0
  2037  0A80  1303               	bcf	3,6	;RP1=0, select bank0
  2038  0A81  1E0D               	btfss	13,4	;volatile
  2039  0A82  2A84               	goto	u2821
  2040  0A83  2A85               	goto	u2820
  2041  0A84                     u2821:
  2042  0A84  2A7F               	goto	l221
  2043  0A85                     u2820:
  2044  0A85                     l223:
  2045                           
  2046                           ;main.c: 358:     PIR2bits.EEIF = 0;
  2047  0A85  120D               	bcf	13,4	;volatile
  2048                           
  2049                           ;main.c: 359:     EECON1bits.WREN = 0;
  2050  0A86  1683               	bsf	3,5	;RP0=1, select bank3
  2051  0A87  1703               	bsf	3,6	;RP1=1, select bank3
  2052  0A88  110C               	bcf	12,2	;volsfr
  2053                           
  2054                           ;main.c: 360:     INTCONbits.GIE = 1;
  2055  0A89  178B               	bsf	11,7	;volatile
  2056  0A8A                     l224:
  2057  0A8A  0008               	return
  2058  0A8B                     __end_of_EEPROM_W:
  2059                           
  2060                           	psect	text4
  2061  0A4F                     __ptext4:	
  2062 ;; *************** function _EEPROM_R *****************
  2063 ;; Defined at:
  2064 ;;		line 364 in file "main.c"
  2065 ;; Parameters:    Size  Location     Type
  2066 ;;  add             2    0[BANK0 ] unsigned int 
  2067 ;; Auto vars:     Size  Location     Type
  2068 ;;  dato            2    4[BANK0 ] unsigned int 
  2069 ;; Return value:  Size  Location     Type
  2070 ;;                  2    0[BANK0 ] unsigned int 
  2071 ;; Registers used:
  2072 ;;		wreg
  2073 ;; Tracked objects:
  2074 ;;		On entry : 0/0
  2075 ;;		On exit  : 0/0
  2076 ;;		Unchanged: 0/0
  2077 ;; Data sizes:     COMMON   BANK0   BANK1   BANK3   BANK2
  2078 ;;      Params:         0       2       0       0       0
  2079 ;;      Locals:         0       2       0       0       0
  2080 ;;      Temps:          0       2       0       0       0
  2081 ;;      Totals:         0       6       0       0       0
  2082 ;;Total ram usage:        6 bytes
  2083 ;; Hardware stack levels used:    1
  2084 ;; Hardware stack levels required when called:    1
  2085 ;; This function calls:
  2086 ;;		Nothing
  2087 ;; This function is called by:
  2088 ;;		_main
  2089 ;; This function uses a non-reentrant model
  2090 ;;
  2091                           
  2092                           
  2093                           ;psect for function _EEPROM_R
  2094  0A4F                     _EEPROM_R:
  2095  0A4F                     l3000:	
  2096                           ;incstack = 0
  2097                           ; Regs used in _EEPROM_R: [wreg]
  2098                           
  2099                           
  2100                           ;main.c: 365:     EEADR = add;
  2101  0A4F  1283               	bcf	3,5	;RP0=0, select bank0
  2102  0A50  1303               	bcf	3,6	;RP1=0, select bank0
  2103  0A51  0820               	movf	EEPROM_R@add,w
  2104  0A52  1283               	bcf	3,5	;RP0=0, select bank2
  2105  0A53  1703               	bsf	3,6	;RP1=1, select bank2
  2106  0A54  008D               	movwf	13	;volatile
  2107  0A55                     l3002:
  2108                           
  2109                           ;main.c: 366:     EECON1bits.EEPGD = 0;
  2110  0A55  1683               	bsf	3,5	;RP0=1, select bank3
  2111  0A56  1703               	bsf	3,6	;RP1=1, select bank3
  2112  0A57  138C               	bcf	12,7	;volsfr
  2113  0A58                     l3004:
  2114                           
  2115                           ;main.c: 367:     EECON1bits.RD = 1;
  2116  0A58  140C               	bsf	12,0	;volsfr
  2117                           
  2118                           ;main.c: 368:     unsigned int dato = EEDATA;
  2119  0A59  1283               	bcf	3,5	;RP0=0, select bank2
  2120  0A5A  1703               	bsf	3,6	;RP1=1, select bank2
  2121  0A5B  080C               	movf	12,w	;volatile
  2122  0A5C  1283               	bcf	3,5	;RP0=0, select bank0
  2123  0A5D  1303               	bcf	3,6	;RP1=0, select bank0
  2124  0A5E  00A2               	movwf	??_EEPROM_R
  2125  0A5F  01A3               	clrf	??_EEPROM_R+1
  2126  0A60  0822               	movf	??_EEPROM_R,w
  2127  0A61  00A4               	movwf	EEPROM_R@dato
  2128  0A62  0823               	movf	??_EEPROM_R+1,w
  2129  0A63  00A5               	movwf	EEPROM_R@dato+1
  2130                           
  2131                           ;main.c: 369:     return dato;
  2132  0A64  0825               	movf	EEPROM_R@dato+1,w
  2133  0A65  00A1               	movwf	?_EEPROM_R+1
  2134  0A66  0824               	movf	EEPROM_R@dato,w
  2135  0A67  00A0               	movwf	?_EEPROM_R
  2136  0A68                     l227:
  2137  0A68  0008               	return
  2138  0A69                     __end_of_EEPROM_R:
  2139                           
  2140                           	psect	text5
  2141  0632                     __ptext5:	
  2142 ;; *************** function _ANALOGICOS *****************
  2143 ;; Defined at:
  2144 ;;		line 305 in file "main.c"
  2145 ;; Parameters:    Size  Location     Type
  2146 ;;  VALORAN         2   71[BANK0 ] int 
  2147 ;; Auto vars:     Size  Location     Type
  2148 ;;		None
  2149 ;; Return value:  Size  Location     Type
  2150 ;;                  1    wreg      void 
  2151 ;; Registers used:
  2152 ;;		wreg, fsr0l, fsr0h, status,2, status,0, btemp+1, pclath, cstack
  2153 ;; Tracked objects:
  2154 ;;		On entry : 0/0
  2155 ;;		On exit  : 0/0
  2156 ;;		Unchanged: 0/0
  2157 ;; Data sizes:     COMMON   BANK0   BANK1   BANK3   BANK2
  2158 ;;      Params:         0       2       0       0       0
  2159 ;;      Locals:         0       0       0       0       0
  2160 ;;      Temps:          0       0       3       0       0
  2161 ;;      Totals:         0       2       3       0       0
  2162 ;;Total ram usage:        5 bytes
  2163 ;; Hardware stack levels used:    1
  2164 ;; Hardware stack levels required when called:    3
  2165 ;; This function calls:
  2166 ;;		___fladd
  2167 ;;		___flmul
  2168 ;;		___fltol
  2169 ;;		___xxtofl
  2170 ;; This function is called by:
  2171 ;;		_main
  2172 ;; This function uses a non-reentrant model
  2173 ;;
  2174                           
  2175                           
  2176                           ;psect for function _ANALOGICOS
  2177  0632                     _ANALOGICOS:
  2178  0632                     l2914:	
  2179                           ;incstack = 0
  2180                           ; Regs used in _ANALOGICOS: [wreg-fsr0h+status,2+status,0+btemp+1+pclath+cstack]
  2181                           
  2182                           
  2183                           ;main.c: 307:     switch(ADCON0bits.CHS){
  2184  0632  2FD2               	goto	l2968
  2185  0633                     l2916:
  2186                           
  2187                           ;main.c: 309:             POT0 = ((0.0380*VALORAN)+5);
  2188  0633  1283               	bcf	3,5	;RP0=0, select bank0
  2189  0634  1303               	bcf	3,6	;RP1=0, select bank0
  2190  0635  0867               	movf	ANALOGICOS@VALORAN,w
  2191  0636  00A0               	movwf	___xxtofl@val
  2192  0637  0868               	movf	ANALOGICOS@VALORAN+1,w
  2193  0638  00A1               	movwf	___xxtofl@val+1
  2194  0639  3000               	movlw	0
  2195  063A  1BA1               	btfsc	___xxtofl@val+1,7
  2196  063B  30FF               	movlw	255
  2197  063C  00A2               	movwf	___xxtofl@val+2
  2198  063D  00A3               	movwf	___xxtofl@val+3
  2199  063E  3001               	movlw	1
  2200  063F  120A  158A  24D3  120A  118A  	fcall	___xxtofl
  2201  0644  1283               	bcf	3,5	;RP0=0, select bank0
  2202  0645  1303               	bcf	3,6	;RP1=0, select bank0
  2203  0646  0823               	movf	?___xxtofl+3,w
  2204  0647  00B5               	movwf	___flmul@a+3
  2205  0648  0822               	movf	?___xxtofl+2,w
  2206  0649  00B4               	movwf	___flmul@a+2
  2207  064A  0821               	movf	?___xxtofl+1,w
  2208  064B  00B3               	movwf	___flmul@a+1
  2209  064C  0820               	movf	?___xxtofl,w
  2210  064D  00B2               	movwf	___flmul@a
  2211  064E  303D               	movlw	61
  2212  064F  00B1               	movwf	___flmul@b+3
  2213  0650  301B               	movlw	27
  2214  0651  00B0               	movwf	___flmul@b+2
  2215  0652  30A5               	movlw	165
  2216  0653  00AF               	movwf	___flmul@b+1
  2217  0654  30E3               	movlw	227
  2218  0655  00AE               	movwf	___flmul@b
  2219  0656  120A  118A  2049  120A  118A  	fcall	___flmul
  2220  065B  1283               	bcf	3,5	;RP0=0, select bank0
  2221  065C  1303               	bcf	3,6	;RP1=0, select bank0
  2222  065D  0831               	movf	?___flmul+3,w
  2223  065E  00CF               	movwf	___fladd@a+3
  2224  065F  0830               	movf	?___flmul+2,w
  2225  0660  00CE               	movwf	___fladd@a+2
  2226  0661  082F               	movf	?___flmul+1,w
  2227  0662  00CD               	movwf	___fladd@a+1
  2228  0663  082E               	movf	?___flmul,w
  2229  0664  00CC               	movwf	___fladd@a
  2230  0665  3040               	movlw	64
  2231  0666  00CB               	movwf	___fladd@b+3
  2232  0667  30A0               	movlw	160
  2233  0668  00CA               	movwf	___fladd@b+2
  2234  0669  3000               	movlw	0
  2235  066A  00C9               	movwf	___fladd@b+1
  2236  066B  3000               	movlw	0
  2237  066C  00C8               	movwf	___fladd@b
  2238  066D  120A  118A  23AA  120A  118A  	fcall	___fladd
  2239  0672  1283               	bcf	3,5	;RP0=0, select bank0
  2240  0673  1303               	bcf	3,6	;RP1=0, select bank0
  2241  0674  084B               	movf	?___fladd+3,w
  2242  0675  00DF               	movwf	___fltol@f1+3
  2243  0676  084A               	movf	?___fladd+2,w
  2244  0677  00DE               	movwf	___fltol@f1+2
  2245  0678  0849               	movf	?___fladd+1,w
  2246  0679  00DD               	movwf	___fltol@f1+1
  2247  067A  0848               	movf	?___fladd,w
  2248  067B  00DC               	movwf	___fltol@f1
  2249  067C  120A  158A  232D  120A  118A  	fcall	___fltol
  2250  0681  1283               	bcf	3,5	;RP0=0, select bank0
  2251  0682  1303               	bcf	3,6	;RP1=0, select bank0
  2252  0683  085D               	movf	?___fltol+1,w
  2253  0684  00F6               	movwf	_POT0+1
  2254  0685  085C               	movf	?___fltol,w
  2255  0686  00F5               	movwf	_POT0
  2256  0687                     l2918:
  2257                           
  2258                           ;main.c: 310:             ADCON0bits.CHS = 1;
  2259  0687  081F               	movf	31,w	;volatile
  2260  0688  39C3               	andlw	-61
  2261  0689  3804               	iorlw	4
  2262  068A  009F               	movwf	31	;volatile
  2263  068B                     l2920:
  2264                           
  2265                           ;main.c: 311:            _delay((unsigned long)((100)*(4000000/4000000.0)));
  2266  068B  3020               	movlw	32
  2267  068C  1683               	bsf	3,5	;RP0=1, select bank1
  2268  068D  1303               	bcf	3,6	;RP1=0, select bank1
  2269  068E  00AC               	movwf	??_ANALOGICOS^(0+128)
  2270  068F                     u3557:
  2271  068F  0BAC               	decfsz	??_ANALOGICOS^(0+128),f
  2272  0690  2E8F               	goto	u3557
  2273  0691  0000               	nop
  2274  0692                     l2922:
  2275                           
  2276                           ;main.c: 312:             ADCON0bits.GO = 1;
  2277  0692  1283               	bcf	3,5	;RP0=0, select bank0
  2278  0693  1303               	bcf	3,6	;RP1=0, select bank0
  2279  0694  149F               	bsf	31,1	;volatile
  2280                           
  2281                           ;main.c: 313:             break;
  2282  0695  2FEF               	goto	l218
  2283  0696                     l2924:
  2284                           
  2285                           ;main.c: 316:             POT1 = (((0.254*VALORAN)+75));
  2286  0696  1283               	bcf	3,5	;RP0=0, select bank0
  2287  0697  1303               	bcf	3,6	;RP1=0, select bank0
  2288  0698  0867               	movf	ANALOGICOS@VALORAN,w
  2289  0699  00A0               	movwf	___xxtofl@val
  2290  069A  0868               	movf	ANALOGICOS@VALORAN+1,w
  2291  069B  00A1               	movwf	___xxtofl@val+1
  2292  069C  3000               	movlw	0
  2293  069D  1BA1               	btfsc	___xxtofl@val+1,7
  2294  069E  30FF               	movlw	255
  2295  069F  00A2               	movwf	___xxtofl@val+2
  2296  06A0  00A3               	movwf	___xxtofl@val+3
  2297  06A1  3001               	movlw	1
  2298  06A2  120A  158A  24D3  120A  118A  	fcall	___xxtofl
  2299  06A7  1283               	bcf	3,5	;RP0=0, select bank0
  2300  06A8  1303               	bcf	3,6	;RP1=0, select bank0
  2301  06A9  0823               	movf	?___xxtofl+3,w
  2302  06AA  00B5               	movwf	___flmul@a+3
  2303  06AB  0822               	movf	?___xxtofl+2,w
  2304  06AC  00B4               	movwf	___flmul@a+2
  2305  06AD  0821               	movf	?___xxtofl+1,w
  2306  06AE  00B3               	movwf	___flmul@a+1
  2307  06AF  0820               	movf	?___xxtofl,w
  2308  06B0  00B2               	movwf	___flmul@a
  2309  06B1  303E               	movlw	62
  2310  06B2  00B1               	movwf	___flmul@b+3
  2311  06B3  3082               	movlw	130
  2312  06B4  00B0               	movwf	___flmul@b+2
  2313  06B5  300C               	movlw	12
  2314  06B6  00AF               	movwf	___flmul@b+1
  2315  06B7  304A               	movlw	74
  2316  06B8  00AE               	movwf	___flmul@b
  2317  06B9  120A  118A  2049  120A  118A  	fcall	___flmul
  2318  06BE  1283               	bcf	3,5	;RP0=0, select bank0
  2319  06BF  1303               	bcf	3,6	;RP1=0, select bank0
  2320  06C0  0831               	movf	?___flmul+3,w
  2321  06C1  00CF               	movwf	___fladd@a+3
  2322  06C2  0830               	movf	?___flmul+2,w
  2323  06C3  00CE               	movwf	___fladd@a+2
  2324  06C4  082F               	movf	?___flmul+1,w
  2325  06C5  00CD               	movwf	___fladd@a+1
  2326  06C6  082E               	movf	?___flmul,w
  2327  06C7  00CC               	movwf	___fladd@a
  2328  06C8  3042               	movlw	66
  2329  06C9  00CB               	movwf	___fladd@b+3
  2330  06CA  3096               	movlw	150
  2331  06CB  00CA               	movwf	___fladd@b+2
  2332  06CC  3000               	movlw	0
  2333  06CD  00C9               	movwf	___fladd@b+1
  2334  06CE  3000               	movlw	0
  2335  06CF  00C8               	movwf	___fladd@b
  2336  06D0  120A  118A  23AA  120A  118A  	fcall	___fladd
  2337  06D5  1283               	bcf	3,5	;RP0=0, select bank0
  2338  06D6  1303               	bcf	3,6	;RP1=0, select bank0
  2339  06D7  084B               	movf	?___fladd+3,w
  2340  06D8  00DF               	movwf	___fltol@f1+3
  2341  06D9  084A               	movf	?___fladd+2,w
  2342  06DA  00DE               	movwf	___fltol@f1+2
  2343  06DB  0849               	movf	?___fladd+1,w
  2344  06DC  00DD               	movwf	___fltol@f1+1
  2345  06DD  0848               	movf	?___fladd,w
  2346  06DE  00DC               	movwf	___fltol@f1
  2347  06DF  120A  158A  232D  120A  118A  	fcall	___fltol
  2348  06E4  1283               	bcf	3,5	;RP0=0, select bank0
  2349  06E5  1303               	bcf	3,6	;RP1=0, select bank0
  2350  06E6  085D               	movf	?___fltol+1,w
  2351  06E7  00EC               	movwf	_POT1+1
  2352  06E8  085C               	movf	?___fltol,w
  2353  06E9  00EB               	movwf	_POT1
  2354  06EA                     l2926:
  2355                           
  2356                           ;main.c: 317:             CCPR1L = POT1;
  2357  06EA  086B               	movf	_POT1,w
  2358  06EB  0095               	movwf	21	;volatile
  2359  06EC                     l2928:
  2360                           
  2361                           ;main.c: 318:             ADCON0bits.CHS = 2;
  2362  06EC  081F               	movf	31,w	;volatile
  2363  06ED  39C3               	andlw	-61
  2364  06EE  3808               	iorlw	8
  2365  06EF  009F               	movwf	31	;volatile
  2366  06F0                     l2930:
  2367                           
  2368                           ;main.c: 319:             _delay((unsigned long)((100)*(4000000/4000000.0)));
  2369  06F0  3020               	movlw	32
  2370  06F1  1683               	bsf	3,5	;RP0=1, select bank1
  2371  06F2  1303               	bcf	3,6	;RP1=0, select bank1
  2372  06F3  00AC               	movwf	??_ANALOGICOS^(0+128)
  2373  06F4                     u3567:
  2374  06F4  0BAC               	decfsz	??_ANALOGICOS^(0+128),f
  2375  06F5  2EF4               	goto	u3567
  2376  06F6  0000               	nop
  2377  06F7                     l2932:
  2378                           
  2379                           ;main.c: 320:            ADCON0bits.GO = 1;
  2380  06F7  1283               	bcf	3,5	;RP0=0, select bank0
  2381  06F8  1303               	bcf	3,6	;RP1=0, select bank0
  2382  06F9  149F               	bsf	31,1	;volatile
  2383                           
  2384                           ;main.c: 321:             break;
  2385  06FA  2FEF               	goto	l218
  2386  06FB                     l2934:
  2387                           
  2388                           ;main.c: 324:             POT2 = ((0.23*VALORAN)+35);
  2389  06FB  1283               	bcf	3,5	;RP0=0, select bank0
  2390  06FC  1303               	bcf	3,6	;RP1=0, select bank0
  2391  06FD  0867               	movf	ANALOGICOS@VALORAN,w
  2392  06FE  00A0               	movwf	___xxtofl@val
  2393  06FF  0868               	movf	ANALOGICOS@VALORAN+1,w
  2394  0700  00A1               	movwf	___xxtofl@val+1
  2395  0701  3000               	movlw	0
  2396  0702  1BA1               	btfsc	___xxtofl@val+1,7
  2397  0703  30FF               	movlw	255
  2398  0704  00A2               	movwf	___xxtofl@val+2
  2399  0705  00A3               	movwf	___xxtofl@val+3
  2400  0706  3001               	movlw	1
  2401  0707  120A  158A  24D3  120A  118A  	fcall	___xxtofl
  2402  070C  1283               	bcf	3,5	;RP0=0, select bank0
  2403  070D  1303               	bcf	3,6	;RP1=0, select bank0
  2404  070E  0823               	movf	?___xxtofl+3,w
  2405  070F  00B5               	movwf	___flmul@a+3
  2406  0710  0822               	movf	?___xxtofl+2,w
  2407  0711  00B4               	movwf	___flmul@a+2
  2408  0712  0821               	movf	?___xxtofl+1,w
  2409  0713  00B3               	movwf	___flmul@a+1
  2410  0714  0820               	movf	?___xxtofl,w
  2411  0715  00B2               	movwf	___flmul@a
  2412  0716  303E               	movlw	62
  2413  0717  00B1               	movwf	___flmul@b+3
  2414  0718  306B               	movlw	107
  2415  0719  00B0               	movwf	___flmul@b+2
  2416  071A  3085               	movlw	133
  2417  071B  00AF               	movwf	___flmul@b+1
  2418  071C  301F               	movlw	31
  2419  071D  00AE               	movwf	___flmul@b
  2420  071E  120A  118A  2049  120A  118A  	fcall	___flmul
  2421  0723  1283               	bcf	3,5	;RP0=0, select bank0
  2422  0724  1303               	bcf	3,6	;RP1=0, select bank0
  2423  0725  0831               	movf	?___flmul+3,w
  2424  0726  00CF               	movwf	___fladd@a+3
  2425  0727  0830               	movf	?___flmul+2,w
  2426  0728  00CE               	movwf	___fladd@a+2
  2427  0729  082F               	movf	?___flmul+1,w
  2428  072A  00CD               	movwf	___fladd@a+1
  2429  072B  082E               	movf	?___flmul,w
  2430  072C  00CC               	movwf	___fladd@a
  2431  072D  3042               	movlw	66
  2432  072E  00CB               	movwf	___fladd@b+3
  2433  072F  300C               	movlw	12
  2434  0730  00CA               	movwf	___fladd@b+2
  2435  0731  3000               	movlw	0
  2436  0732  00C9               	movwf	___fladd@b+1
  2437  0733  3000               	movlw	0
  2438  0734  00C8               	movwf	___fladd@b
  2439  0735  120A  118A  23AA  120A  118A  	fcall	___fladd
  2440  073A  1283               	bcf	3,5	;RP0=0, select bank0
  2441  073B  1303               	bcf	3,6	;RP1=0, select bank0
  2442  073C  084B               	movf	?___fladd+3,w
  2443  073D  00DF               	movwf	___fltol@f1+3
  2444  073E  084A               	movf	?___fladd+2,w
  2445  073F  00DE               	movwf	___fltol@f1+2
  2446  0740  0849               	movf	?___fladd+1,w
  2447  0741  00DD               	movwf	___fltol@f1+1
  2448  0742  0848               	movf	?___fladd,w
  2449  0743  00DC               	movwf	___fltol@f1
  2450  0744  120A  158A  232D  120A  118A  	fcall	___fltol
  2451  0749  1283               	bcf	3,5	;RP0=0, select bank0
  2452  074A  1303               	bcf	3,6	;RP1=0, select bank0
  2453  074B  085D               	movf	?___fltol+1,w
  2454  074C  00EA               	movwf	_POT2+1
  2455  074D  085C               	movf	?___fltol,w
  2456  074E  00E9               	movwf	_POT2
  2457  074F                     l2936:
  2458                           
  2459                           ;main.c: 325:             CCPR2L = POT2;
  2460  074F  0869               	movf	_POT2,w
  2461  0750  009B               	movwf	27	;volatile
  2462  0751                     l2938:
  2463                           
  2464                           ;main.c: 326:             ADCON0bits.CHS = 9;
  2465  0751  081F               	movf	31,w	;volatile
  2466  0752  39C3               	andlw	-61
  2467  0753  3824               	iorlw	36
  2468  0754  009F               	movwf	31	;volatile
  2469  0755                     l2940:
  2470                           
  2471                           ;main.c: 327:            _delay((unsigned long)((100)*(4000000/4000000.0)));
  2472  0755  3020               	movlw	32
  2473  0756  1683               	bsf	3,5	;RP0=1, select bank1
  2474  0757  1303               	bcf	3,6	;RP1=0, select bank1
  2475  0758  00AC               	movwf	??_ANALOGICOS^(0+128)
  2476  0759                     u3577:
  2477  0759  0BAC               	decfsz	??_ANALOGICOS^(0+128),f
  2478  075A  2F59               	goto	u3577
  2479  075B  0000               	nop
  2480  075C                     l2942:
  2481                           
  2482                           ;main.c: 328:              ADCON0bits.GO = 1;
  2483  075C  1283               	bcf	3,5	;RP0=0, select bank0
  2484  075D  1303               	bcf	3,6	;RP1=0, select bank0
  2485  075E  149F               	bsf	31,1	;volatile
  2486                           
  2487                           ;main.c: 329:             break;
  2488  075F  2FEF               	goto	l218
  2489  0760                     l2944:
  2490                           
  2491                           ;main.c: 331:            if (VALORAN >= 52 && VALORAN<=179){
  2492  0760  1283               	bcf	3,5	;RP0=0, select bank0
  2493  0761  1303               	bcf	3,6	;RP1=0, select bank0
  2494  0762  0868               	movf	ANALOGICOS@VALORAN+1,w
  2495  0763  3A80               	xorlw	128
  2496  0764  00FF               	movwf	btemp+1
  2497  0765  3080               	movlw	128
  2498  0766  027F               	subwf	btemp+1,w
  2499  0767  1D03               	skipz
  2500  0768  2F6B               	goto	u3345
  2501  0769  3034               	movlw	52
  2502  076A  0267               	subwf	ANALOGICOS@VALORAN,w
  2503  076B                     u3345:
  2504  076B  1C03               	skipc
  2505  076C  2F6E               	goto	u3341
  2506  076D  2F6F               	goto	u3340
  2507  076E                     u3341:
  2508  076E  2F85               	goto	l213
  2509  076F                     u3340:
  2510  076F                     l2946:
  2511  076F  1283               	bcf	3,5	;RP0=0, select bank0
  2512  0770  1303               	bcf	3,6	;RP1=0, select bank0
  2513  0771  0868               	movf	ANALOGICOS@VALORAN+1,w
  2514  0772  3A80               	xorlw	128
  2515  0773  00FF               	movwf	btemp+1
  2516  0774  3080               	movlw	128
  2517  0775  027F               	subwf	btemp+1,w
  2518  0776  1D03               	skipz
  2519  0777  2F7A               	goto	u3355
  2520  0778  30B4               	movlw	180
  2521  0779  0267               	subwf	ANALOGICOS@VALORAN,w
  2522  077A                     u3355:
  2523  077A  1803               	skipnc
  2524  077B  2F7D               	goto	u3351
  2525  077C  2F7E               	goto	u3350
  2526  077D                     u3351:
  2527  077D  2F85               	goto	l213
  2528  077E                     u3350:
  2529  077E                     l2948:
  2530                           
  2531                           ;main.c: 332:                POT3 = 12;
  2532  077E  300C               	movlw	12
  2533  077F  1683               	bsf	3,5	;RP0=1, select bank1
  2534  0780  1303               	bcf	3,6	;RP1=0, select bank1
  2535  0781  00AA               	movwf	_POT3^(0+128)
  2536  0782  3000               	movlw	0
  2537  0783  00AB               	movwf	(_POT3^(0+128)+1)
  2538                           
  2539                           ;main.c: 333:            }
  2540  0784  2FC3               	goto	l2960
  2541  0785                     l213:	
  2542                           ;main.c: 334:            else if (VALORAN >= 0 && VALORAN<=51){
  2543                           
  2544  0785  1283               	bcf	3,5	;RP0=0, select bank0
  2545  0786  1303               	bcf	3,6	;RP1=0, select bank0
  2546  0787  1BE8               	btfsc	ANALOGICOS@VALORAN+1,7
  2547  0788  2F8A               	goto	u3361
  2548  0789  2F8B               	goto	u3360
  2549  078A                     u3361:
  2550  078A  2F9F               	goto	l2954
  2551  078B                     u3360:
  2552  078B                     l2950:
  2553  078B  0868               	movf	ANALOGICOS@VALORAN+1,w
  2554  078C  3A80               	xorlw	128
  2555  078D  00FF               	movwf	btemp+1
  2556  078E  3080               	movlw	128
  2557  078F  027F               	subwf	btemp+1,w
  2558  0790  1D03               	skipz
  2559  0791  2F94               	goto	u3375
  2560  0792  3034               	movlw	52
  2561  0793  0267               	subwf	ANALOGICOS@VALORAN,w
  2562  0794                     u3375:
  2563  0794  1803               	skipnc
  2564  0795  2F97               	goto	u3371
  2565  0796  2F98               	goto	u3370
  2566  0797                     u3371:
  2567  0797  2F9F               	goto	l2954
  2568  0798                     u3370:
  2569  0798                     l2952:
  2570                           
  2571                           ;main.c: 335:                POT3 = 10;
  2572  0798  300A               	movlw	10
  2573  0799  1683               	bsf	3,5	;RP0=1, select bank1
  2574  079A  1303               	bcf	3,6	;RP1=0, select bank1
  2575  079B  00AA               	movwf	_POT3^(0+128)
  2576  079C  3000               	movlw	0
  2577  079D  00AB               	movwf	(_POT3^(0+128)+1)
  2578                           
  2579                           ;main.c: 336:            }
  2580  079E  2FC3               	goto	l2960
  2581  079F                     l2954:
  2582  079F  1283               	bcf	3,5	;RP0=0, select bank0
  2583  07A0  1303               	bcf	3,6	;RP1=0, select bank0
  2584  07A1  0868               	movf	ANALOGICOS@VALORAN+1,w
  2585  07A2  3A80               	xorlw	128
  2586  07A3  00FF               	movwf	btemp+1
  2587  07A4  3080               	movlw	128
  2588  07A5  027F               	subwf	btemp+1,w
  2589  07A6  1D03               	skipz
  2590  07A7  2FAA               	goto	u3385
  2591  07A8  30B4               	movlw	180
  2592  07A9  0267               	subwf	ANALOGICOS@VALORAN,w
  2593  07AA                     u3385:
  2594  07AA  1C03               	skipc
  2595  07AB  2FAD               	goto	u3381
  2596  07AC  2FAE               	goto	u3380
  2597  07AD                     u3381:
  2598  07AD  2FC3               	goto	l2960
  2599  07AE                     u3380:
  2600  07AE                     l2956:
  2601  07AE  1283               	bcf	3,5	;RP0=0, select bank0
  2602  07AF  1303               	bcf	3,6	;RP1=0, select bank0
  2603  07B0  0868               	movf	ANALOGICOS@VALORAN+1,w
  2604  07B1  3A80               	xorlw	128
  2605  07B2  00FF               	movwf	btemp+1
  2606  07B3  3081               	movlw	129
  2607  07B4  027F               	subwf	btemp+1,w
  2608  07B5  1D03               	skipz
  2609  07B6  2FB9               	goto	u3395
  2610  07B7  3000               	movlw	0
  2611  07B8  0267               	subwf	ANALOGICOS@VALORAN,w
  2612  07B9                     u3395:
  2613  07B9  1803               	skipnc
  2614  07BA  2FBC               	goto	u3391
  2615  07BB  2FBD               	goto	u3390
  2616  07BC                     u3391:
  2617  07BC  2FC3               	goto	l2960
  2618  07BD                     u3390:
  2619  07BD                     l2958:
  2620                           
  2621                           ;main.c: 338:                POT3 = 15;
  2622  07BD  300F               	movlw	15
  2623  07BE  1683               	bsf	3,5	;RP0=1, select bank1
  2624  07BF  1303               	bcf	3,6	;RP1=0, select bank1
  2625  07C0  00AA               	movwf	_POT3^(0+128)
  2626  07C1  3000               	movlw	0
  2627  07C2  00AB               	movwf	(_POT3^(0+128)+1)
  2628  07C3                     l2960:
  2629                           
  2630                           ;main.c: 341:            ADCON0bits.CHS = 0;
  2631  07C3  30C3               	movlw	-61
  2632  07C4  1283               	bcf	3,5	;RP0=0, select bank0
  2633  07C5  1303               	bcf	3,6	;RP1=0, select bank0
  2634  07C6  059F               	andwf	31,f	;volatile
  2635  07C7                     l2962:
  2636                           
  2637                           ;main.c: 342:            _delay((unsigned long)((100)*(4000000/4000000.0)));
  2638  07C7  3020               	movlw	32
  2639  07C8  1683               	bsf	3,5	;RP0=1, select bank1
  2640  07C9  1303               	bcf	3,6	;RP1=0, select bank1
  2641  07CA  00AC               	movwf	??_ANALOGICOS^(0+128)
  2642  07CB                     u3587:
  2643  07CB  0BAC               	decfsz	??_ANALOGICOS^(0+128),f
  2644  07CC  2FCB               	goto	u3587
  2645  07CD  0000               	nop
  2646  07CE                     l2964:
  2647                           
  2648                           ;main.c: 343:            ADCON0bits.GO = 1;
  2649  07CE  1283               	bcf	3,5	;RP0=0, select bank0
  2650  07CF  1303               	bcf	3,6	;RP1=0, select bank0
  2651  07D0  149F               	bsf	31,1	;volatile
  2652                           
  2653                           ;main.c: 344:            break;
  2654  07D1  2FEF               	goto	l218
  2655  07D2                     l2968:
  2656  07D2  1283               	bcf	3,5	;RP0=0, select bank0
  2657  07D3  1303               	bcf	3,6	;RP1=0, select bank0
  2658  07D4  0C1F               	rrf	31,w	;volatile
  2659  07D5  1683               	bsf	3,5	;RP0=1, select bank1
  2660  07D6  1303               	bcf	3,6	;RP1=0, select bank1
  2661  07D7  00AC               	movwf	??_ANALOGICOS^(0+128)
  2662  07D8  0C2C               	rrf	??_ANALOGICOS^(0+128),w
  2663  07D9  390F               	andlw	15
  2664  07DA  00AD               	movwf	(??_ANALOGICOS+1)^(0+128)
  2665  07DB  01AE               	clrf	((??_ANALOGICOS+1)^(0+128)+1)
  2666                           
  2667                           ; Switch on 2 bytes has been partitioned into a top level switch of size 1, and 1 sub-sw
      +                          itches
  2668                           ; Switch size 1, requested type "simple"
  2669                           ; Number of cases is 1, Range of values is 0 to 0
  2670                           ; switch strategies available:
  2671                           ; Name         Instructions Cycles
  2672                           ; simple_byte            4     3 (average)
  2673                           ; direct_byte           11     8 (fixed)
  2674                           ; jumptable            260     6 (fixed)
  2675                           ;	Chosen strategy is simple_byte
  2676  07DC  082E               	movf	(??_ANALOGICOS+2)^(0+128),w
  2677  07DD  3A00               	xorlw	0	; case 0
  2678  07DE  1903               	skipnz
  2679  07DF  2FE1               	goto	l3230
  2680  07E0  2FEF               	goto	l218
  2681  07E1                     l3230:
  2682                           
  2683                           ; Switch size 1, requested type "simple"
  2684                           ; Number of cases is 4, Range of values is 0 to 9
  2685                           ; switch strategies available:
  2686                           ; Name         Instructions Cycles
  2687                           ; simple_byte           13     7 (average)
  2688                           ; direct_byte           38     8 (fixed)
  2689                           ; jumptable            260     6 (fixed)
  2690                           ;	Chosen strategy is simple_byte
  2691  07E1  082D               	movf	(??_ANALOGICOS+1)^(0+128),w
  2692  07E2  3A00               	xorlw	0	; case 0
  2693  07E3  1903               	skipnz
  2694  07E4  2E33               	goto	l2916
  2695  07E5  3A01               	xorlw	1	; case 1
  2696  07E6  1903               	skipnz
  2697  07E7  2E96               	goto	l2924
  2698  07E8  3A03               	xorlw	3	; case 2
  2699  07E9  1903               	skipnz
  2700  07EA  2EFB               	goto	l2934
  2701  07EB  3A0B               	xorlw	11	; case 9
  2702  07EC  1903               	skipnz
  2703  07ED  2F60               	goto	l2944
  2704  07EE  2FEF               	goto	l218
  2705  07EF                     l218:
  2706  07EF  0008               	return
  2707  07F0                     __end_of_ANALOGICOS:
  2708                           
  2709                           	psect	text6
  2710  0CD3                     __ptext6:	
  2711 ;; *************** function ___xxtofl *****************
  2712 ;; Defined at:
  2713 ;;		line 10 in file "C:\Program Files\Microchip\xc8\v2.31\pic\sources\c90\common\xxtofl.c"
  2714 ;; Parameters:    Size  Location     Type
  2715 ;;  sign            1    wreg     unsigned char 
  2716 ;;  val             4    0[BANK0 ] long 
  2717 ;; Auto vars:     Size  Location     Type
  2718 ;;  sign            1    8[BANK0 ] unsigned char 
  2719 ;;  arg             4   10[BANK0 ] unsigned long 
  2720 ;;  exp             1    9[BANK0 ] unsigned char 
  2721 ;; Return value:  Size  Location     Type
  2722 ;;                  4    0[BANK0 ] unsigned char 
  2723 ;; Registers used:
  2724 ;;		wreg, status,2, status,0
  2725 ;; Tracked objects:
  2726 ;;		On entry : 0/0
  2727 ;;		On exit  : 0/0
  2728 ;;		Unchanged: 0/0
  2729 ;; Data sizes:     COMMON   BANK0   BANK1   BANK3   BANK2
  2730 ;;      Params:         0       4       0       0       0
  2731 ;;      Locals:         0       6       0       0       0
  2732 ;;      Temps:          0       4       0       0       0
  2733 ;;      Totals:         0      14       0       0       0
  2734 ;;Total ram usage:       14 bytes
  2735 ;; Hardware stack levels used:    1
  2736 ;; Hardware stack levels required when called:    1
  2737 ;; This function calls:
  2738 ;;		Nothing
  2739 ;; This function is called by:
  2740 ;;		_main
  2741 ;;		_ANALOGICOS
  2742 ;; This function uses a non-reentrant model
  2743 ;;
  2744                           
  2745                           
  2746                           ;psect for function ___xxtofl
  2747  0CD3                     ___xxtofl:
  2748                           
  2749                           ;incstack = 0
  2750                           ; Regs used in ___xxtofl: [wreg+status,2+status,0]
  2751                           ;___xxtofl@sign stored from wreg
  2752  0CD3  1283               	bcf	3,5	;RP0=0, select bank0
  2753  0CD4  1303               	bcf	3,6	;RP1=0, select bank0
  2754  0CD5  00A8               	movwf	___xxtofl@sign
  2755  0CD6                     l2766:
  2756  0CD6  0828               	movf	___xxtofl@sign,w
  2757  0CD7  1903               	btfsc	3,2
  2758  0CD8  2CDA               	goto	u3201
  2759  0CD9  2CDB               	goto	u3200
  2760  0CDA                     u3201:
  2761  0CDA  2CEF               	goto	l2772
  2762  0CDB                     u3200:
  2763  0CDB                     l2768:
  2764  0CDB  1FA3               	btfss	___xxtofl@val+3,7
  2765  0CDC  2CDE               	goto	u3211
  2766  0CDD  2CDF               	goto	u3210
  2767  0CDE                     u3211:
  2768  0CDE  2CEF               	goto	l2772
  2769  0CDF                     u3210:
  2770  0CDF                     l2770:
  2771  0CDF  0920               	comf	___xxtofl@val,w
  2772  0CE0  00AA               	movwf	___xxtofl@arg
  2773  0CE1  0921               	comf	___xxtofl@val+1,w
  2774  0CE2  00AB               	movwf	___xxtofl@arg+1
  2775  0CE3  0922               	comf	___xxtofl@val+2,w
  2776  0CE4  00AC               	movwf	___xxtofl@arg+2
  2777  0CE5  0923               	comf	___xxtofl@val+3,w
  2778  0CE6  00AD               	movwf	___xxtofl@arg+3
  2779  0CE7  0AAA               	incf	___xxtofl@arg,f
  2780  0CE8  1903               	skipnz
  2781  0CE9  0AAB               	incf	___xxtofl@arg+1,f
  2782  0CEA  1903               	skipnz
  2783  0CEB  0AAC               	incf	___xxtofl@arg+2,f
  2784  0CEC  1903               	skipnz
  2785  0CED  0AAD               	incf	___xxtofl@arg+3,f
  2786  0CEE  2CF7               	goto	l753
  2787  0CEF                     l2772:
  2788  0CEF  0823               	movf	___xxtofl@val+3,w
  2789  0CF0  00AD               	movwf	___xxtofl@arg+3
  2790  0CF1  0822               	movf	___xxtofl@val+2,w
  2791  0CF2  00AC               	movwf	___xxtofl@arg+2
  2792  0CF3  0821               	movf	___xxtofl@val+1,w
  2793  0CF4  00AB               	movwf	___xxtofl@arg+1
  2794  0CF5  0820               	movf	___xxtofl@val,w
  2795  0CF6  00AA               	movwf	___xxtofl@arg
  2796  0CF7                     l753:
  2797  0CF7  0823               	movf	___xxtofl@val+3,w
  2798  0CF8  0422               	iorwf	___xxtofl@val+2,w
  2799  0CF9  0421               	iorwf	___xxtofl@val+1,w
  2800  0CFA  0420               	iorwf	___xxtofl@val,w
  2801  0CFB  1D03               	skipz
  2802  0CFC  2CFE               	goto	u3221
  2803  0CFD  2CFF               	goto	u3220
  2804  0CFE                     u3221:
  2805  0CFE  2D08               	goto	l2778
  2806  0CFF                     u3220:
  2807  0CFF                     l2774:
  2808  0CFF  3000               	movlw	0
  2809  0D00  00A3               	movwf	?___xxtofl+3
  2810  0D01  3000               	movlw	0
  2811  0D02  00A2               	movwf	?___xxtofl+2
  2812  0D03  3000               	movlw	0
  2813  0D04  00A1               	movwf	?___xxtofl+1
  2814  0D05  3000               	movlw	0
  2815  0D06  00A0               	movwf	?___xxtofl
  2816  0D07  2D8E               	goto	l755
  2817  0D08                     l2778:
  2818  0D08  3096               	movlw	150
  2819  0D09  00A4               	movwf	??___xxtofl
  2820  0D0A  0824               	movf	??___xxtofl,w
  2821  0D0B  00A9               	movwf	___xxtofl@exp
  2822  0D0C  2D1A               	goto	l2782
  2823  0D0D                     l2780:
  2824  0D0D  3001               	movlw	1
  2825  0D0E  00A4               	movwf	??___xxtofl
  2826  0D0F  0824               	movf	??___xxtofl,w
  2827  0D10  07A9               	addwf	___xxtofl@exp,f
  2828  0D11  3001               	movlw	1
  2829  0D12                     u3235:
  2830  0D12  1003               	clrc
  2831  0D13  0CAD               	rrf	___xxtofl@arg+3,f
  2832  0D14  0CAC               	rrf	___xxtofl@arg+2,f
  2833  0D15  0CAB               	rrf	___xxtofl@arg+1,f
  2834  0D16  0CAA               	rrf	___xxtofl@arg,f
  2835  0D17  3EFF               	addlw	-1
  2836  0D18  1D03               	skipz
  2837  0D19  2D12               	goto	u3235
  2838  0D1A                     l2782:
  2839  0D1A  30FE               	movlw	254
  2840  0D1B  052D               	andwf	___xxtofl@arg+3,w
  2841  0D1C  1D03               	btfss	3,2
  2842  0D1D  2D1F               	goto	u3241
  2843  0D1E  2D20               	goto	u3240
  2844  0D1F                     u3241:
  2845  0D1F  2D0D               	goto	l2780
  2846  0D20                     u3240:
  2847  0D20  2D3C               	goto	l759
  2848  0D21                     l2784:
  2849  0D21  3001               	movlw	1
  2850  0D22  00A4               	movwf	??___xxtofl
  2851  0D23  0824               	movf	??___xxtofl,w
  2852  0D24  07A9               	addwf	___xxtofl@exp,f
  2853  0D25                     l2786:
  2854  0D25  3001               	movlw	1
  2855  0D26  07AA               	addwf	___xxtofl@arg,f
  2856  0D27  3000               	movlw	0
  2857  0D28  1803               	skipnc
  2858  0D29  3001               	movlw	1
  2859  0D2A  07AB               	addwf	___xxtofl@arg+1,f
  2860  0D2B  3000               	movlw	0
  2861  0D2C  1803               	skipnc
  2862  0D2D  3001               	movlw	1
  2863  0D2E  07AC               	addwf	___xxtofl@arg+2,f
  2864  0D2F  3000               	movlw	0
  2865  0D30  1803               	skipnc
  2866  0D31  3001               	movlw	1
  2867  0D32  07AD               	addwf	___xxtofl@arg+3,f
  2868  0D33                     l2788:
  2869  0D33  3001               	movlw	1
  2870  0D34                     u3255:
  2871  0D34  1003               	clrc
  2872  0D35  0CAD               	rrf	___xxtofl@arg+3,f
  2873  0D36  0CAC               	rrf	___xxtofl@arg+2,f
  2874  0D37  0CAB               	rrf	___xxtofl@arg+1,f
  2875  0D38  0CAA               	rrf	___xxtofl@arg,f
  2876  0D39  3EFF               	addlw	-1
  2877  0D3A  1D03               	skipz
  2878  0D3B  2D34               	goto	u3255
  2879  0D3C                     l759:
  2880  0D3C  30FF               	movlw	255
  2881  0D3D  052D               	andwf	___xxtofl@arg+3,w
  2882  0D3E  1D03               	btfss	3,2
  2883  0D3F  2D41               	goto	u3261
  2884  0D40  2D42               	goto	u3260
  2885  0D41                     u3261:
  2886  0D41  2D21               	goto	l2784
  2887  0D42                     u3260:
  2888  0D42  2D4E               	goto	l2792
  2889  0D43                     l2790:
  2890  0D43  3001               	movlw	1
  2891  0D44  02A9               	subwf	___xxtofl@exp,f
  2892  0D45  3001               	movlw	1
  2893  0D46  00A4               	movwf	??___xxtofl
  2894  0D47                     u3275:
  2895  0D47  1003               	clrc
  2896  0D48  0DAA               	rlf	___xxtofl@arg,f
  2897  0D49  0DAB               	rlf	___xxtofl@arg+1,f
  2898  0D4A  0DAC               	rlf	___xxtofl@arg+2,f
  2899  0D4B  0DAD               	rlf	___xxtofl@arg+3,f
  2900  0D4C  0BA4               	decfsz	??___xxtofl,f
  2901  0D4D  2D47               	goto	u3275
  2902  0D4E                     l2792:
  2903  0D4E  1BAC               	btfsc	___xxtofl@arg+2,7
  2904  0D4F  2D51               	goto	u3281
  2905  0D50  2D52               	goto	u3280
  2906  0D51                     u3281:
  2907  0D51  2D58               	goto	l766
  2908  0D52                     u3280:
  2909  0D52                     l2794:
  2910  0D52  3002               	movlw	2
  2911  0D53  0229               	subwf	___xxtofl@exp,w
  2912  0D54  1803               	skipnc
  2913  0D55  2D57               	goto	u3291
  2914  0D56  2D58               	goto	u3290
  2915  0D57                     u3291:
  2916  0D57  2D43               	goto	l2790
  2917  0D58                     u3290:
  2918  0D58                     l766:
  2919  0D58  1829               	btfsc	___xxtofl@exp,0
  2920  0D59  2D5B               	goto	u3301
  2921  0D5A  2D5C               	goto	u3300
  2922  0D5B                     u3301:
  2923  0D5B  2D64               	goto	l767
  2924  0D5C                     u3300:
  2925  0D5C                     l2796:
  2926  0D5C  30FF               	movlw	255
  2927  0D5D  05AA               	andwf	___xxtofl@arg,f
  2928  0D5E  30FF               	movlw	255
  2929  0D5F  05AB               	andwf	___xxtofl@arg+1,f
  2930  0D60  307F               	movlw	127
  2931  0D61  05AC               	andwf	___xxtofl@arg+2,f
  2932  0D62  30FF               	movlw	255
  2933  0D63  05AD               	andwf	___xxtofl@arg+3,f
  2934  0D64                     l767:
  2935  0D64  1003               	clrc
  2936  0D65  0CA9               	rrf	___xxtofl@exp,f
  2937  0D66                     l2798:
  2938  0D66  0829               	movf	___xxtofl@exp,w
  2939  0D67  00A4               	movwf	??___xxtofl
  2940  0D68  01A5               	clrf	??___xxtofl+1
  2941  0D69  01A6               	clrf	??___xxtofl+2
  2942  0D6A  01A7               	clrf	??___xxtofl+3
  2943  0D6B  3018               	movlw	24
  2944  0D6C                     u3315:
  2945  0D6C  1003               	clrc
  2946  0D6D  0DA4               	rlf	??___xxtofl,f
  2947  0D6E  0DA5               	rlf	??___xxtofl+1,f
  2948  0D6F  0DA6               	rlf	??___xxtofl+2,f
  2949  0D70  0DA7               	rlf	??___xxtofl+3,f
  2950  0D71                     u3310:
  2951  0D71  3EFF               	addlw	-1
  2952  0D72  1D03               	skipz
  2953  0D73  2D6C               	goto	u3315
  2954  0D74  0824               	movf	??___xxtofl,w
  2955  0D75  04AA               	iorwf	___xxtofl@arg,f
  2956  0D76  0825               	movf	??___xxtofl+1,w
  2957  0D77  04AB               	iorwf	___xxtofl@arg+1,f
  2958  0D78  0826               	movf	??___xxtofl+2,w
  2959  0D79  04AC               	iorwf	___xxtofl@arg+2,f
  2960  0D7A  0827               	movf	??___xxtofl+3,w
  2961  0D7B  04AD               	iorwf	___xxtofl@arg+3,f
  2962  0D7C                     l2800:
  2963  0D7C  0828               	movf	___xxtofl@sign,w
  2964  0D7D  1903               	btfsc	3,2
  2965  0D7E  2D80               	goto	u3321
  2966  0D7F  2D81               	goto	u3320
  2967  0D80                     u3321:
  2968  0D80  2D86               	goto	l2806
  2969  0D81                     u3320:
  2970  0D81                     l2802:
  2971  0D81  1FA3               	btfss	___xxtofl@val+3,7
  2972  0D82  2D84               	goto	u3331
  2973  0D83  2D85               	goto	u3330
  2974  0D84                     u3331:
  2975  0D84  2D86               	goto	l2806
  2976  0D85                     u3330:
  2977  0D85                     l2804:
  2978  0D85  17AD               	bsf	___xxtofl@arg+3,7
  2979  0D86                     l2806:
  2980  0D86  082D               	movf	___xxtofl@arg+3,w
  2981  0D87  00A3               	movwf	?___xxtofl+3
  2982  0D88  082C               	movf	___xxtofl@arg+2,w
  2983  0D89  00A2               	movwf	?___xxtofl+2
  2984  0D8A  082B               	movf	___xxtofl@arg+1,w
  2985  0D8B  00A1               	movwf	?___xxtofl+1
  2986  0D8C  082A               	movf	___xxtofl@arg,w
  2987  0D8D  00A0               	movwf	?___xxtofl
  2988  0D8E                     l755:
  2989  0D8E  0008               	return
  2990  0D8F                     __end_of___xxtofl:
  2991                           
  2992                           	psect	text7
  2993  0B2D                     __ptext7:	
  2994 ;; *************** function ___fltol *****************
  2995 ;; Defined at:
  2996 ;;		line 43 in file "C:\Program Files\Microchip\xc8\v2.31\pic\sources\c90\common\fltol.c"
  2997 ;; Parameters:    Size  Location     Type
  2998 ;;  f1              4   60[BANK0 ] unsigned char 
  2999 ;; Auto vars:     Size  Location     Type
  3000 ;;  exp1            1   70[BANK0 ] unsigned char 
  3001 ;;  sign1           1   69[BANK0 ] unsigned char 
  3002 ;; Return value:  Size  Location     Type
  3003 ;;                  4   60[BANK0 ] long 
  3004 ;; Registers used:
  3005 ;;		wreg, status,2, status,0
  3006 ;; Tracked objects:
  3007 ;;		On entry : 0/0
  3008 ;;		On exit  : 0/0
  3009 ;;		Unchanged: 0/0
  3010 ;; Data sizes:     COMMON   BANK0   BANK1   BANK3   BANK2
  3011 ;;      Params:         0       4       0       0       0
  3012 ;;      Locals:         0       2       0       0       0
  3013 ;;      Temps:          0       5       0       0       0
  3014 ;;      Totals:         0      11       0       0       0
  3015 ;;Total ram usage:       11 bytes
  3016 ;; Hardware stack levels used:    1
  3017 ;; Hardware stack levels required when called:    1
  3018 ;; This function calls:
  3019 ;;		Nothing
  3020 ;; This function is called by:
  3021 ;;		_main
  3022 ;;		_ANALOGICOS
  3023 ;; This function uses a non-reentrant model
  3024 ;;
  3025                           
  3026                           
  3027                           ;psect for function ___fltol
  3028  0B2D                     ___fltol:
  3029  0B2D                     l1732:	
  3030                           ;incstack = 0
  3031                           ; Regs used in ___fltol: [wreg+status,2+status,0]
  3032                           
  3033  0B2D  1003               	clrc
  3034  0B2E  1283               	bcf	3,5	;RP0=0, select bank0
  3035  0B2F  1303               	bcf	3,6	;RP1=0, select bank0
  3036  0B30  0D5E               	rlf	___fltol@f1+2,w
  3037  0B31  0D5F               	rlf	___fltol@f1+3,w
  3038  0B32  00E0               	movwf	??___fltol
  3039  0B33  0860               	movf	??___fltol,w
  3040  0B34  00E6               	movwf	___fltol@exp1
  3041  0B35  0866               	movf	___fltol@exp1,w
  3042  0B36  1D03               	btfss	3,2
  3043  0B37  2B39               	goto	u1441
  3044  0B38  2B3A               	goto	u1440
  3045  0B39                     u1441:
  3046  0B39  2B43               	goto	l1738
  3047  0B3A                     u1440:
  3048  0B3A                     l1734:
  3049  0B3A  3000               	movlw	0
  3050  0B3B  00DF               	movwf	?___fltol+3
  3051  0B3C  3000               	movlw	0
  3052  0B3D  00DE               	movwf	?___fltol+2
  3053  0B3E  3000               	movlw	0
  3054  0B3F  00DD               	movwf	?___fltol+1
  3055  0B40  3000               	movlw	0
  3056  0B41  00DC               	movwf	?___fltol
  3057  0B42  2BA8               	goto	l506
  3058  0B43                     l1738:
  3059  0B43  085C               	movf	___fltol@f1,w
  3060  0B44  00E0               	movwf	??___fltol
  3061  0B45  085D               	movf	___fltol@f1+1,w
  3062  0B46  00E1               	movwf	??___fltol+1
  3063  0B47  085E               	movf	___fltol@f1+2,w
  3064  0B48  00E2               	movwf	??___fltol+2
  3065  0B49  085F               	movf	___fltol@f1+3,w
  3066  0B4A  00E3               	movwf	??___fltol+3
  3067  0B4B  301F               	movlw	31
  3068  0B4C                     u1455:
  3069  0B4C  1003               	clrc
  3070  0B4D  0CE3               	rrf	??___fltol+3,f
  3071  0B4E  0CE2               	rrf	??___fltol+2,f
  3072  0B4F  0CE1               	rrf	??___fltol+1,f
  3073  0B50  0CE0               	rrf	??___fltol,f
  3074  0B51                     u1450:
  3075  0B51  3EFF               	addlw	-1
  3076  0B52  1D03               	skipz
  3077  0B53  2B4C               	goto	u1455
  3078  0B54  0860               	movf	??___fltol,w
  3079  0B55  00E4               	movwf	??___fltol+4
  3080  0B56  0864               	movf	??___fltol+4,w
  3081  0B57  00E5               	movwf	___fltol@sign1
  3082  0B58                     l1740:
  3083  0B58  17DE               	bsf	___fltol@f1+2,7
  3084  0B59                     l1742:
  3085  0B59  30FF               	movlw	255
  3086  0B5A  05DC               	andwf	___fltol@f1,f
  3087  0B5B  30FF               	movlw	255
  3088  0B5C  05DD               	andwf	___fltol@f1+1,f
  3089  0B5D  30FF               	movlw	255
  3090  0B5E  05DE               	andwf	___fltol@f1+2,f
  3091  0B5F  3000               	movlw	0
  3092  0B60  05DF               	andwf	___fltol@f1+3,f
  3093  0B61                     l1744:
  3094  0B61  3096               	movlw	150
  3095  0B62  02E6               	subwf	___fltol@exp1,f
  3096  0B63                     l1746:
  3097  0B63  1FE6               	btfss	___fltol@exp1,7
  3098  0B64  2B66               	goto	u1461
  3099  0B65  2B67               	goto	u1460
  3100  0B66                     u1461:
  3101  0B66  2B81               	goto	l1756
  3102  0B67                     u1460:
  3103  0B67                     l1748:
  3104  0B67  0866               	movf	___fltol@exp1,w
  3105  0B68  3A80               	xorlw	128
  3106  0B69  3E97               	addlw	151
  3107  0B6A  1803               	skipnc
  3108  0B6B  2B6D               	goto	u1471
  3109  0B6C  2B6E               	goto	u1470
  3110  0B6D                     u1471:
  3111  0B6D  2B6F               	goto	l1754
  3112  0B6E                     u1470:
  3113  0B6E  2B3A               	goto	l1734
  3114  0B6F                     l1754:
  3115  0B6F  3001               	movlw	1
  3116  0B70                     u1485:
  3117  0B70  1003               	clrc
  3118  0B71  0CDF               	rrf	___fltol@f1+3,f
  3119  0B72  0CDE               	rrf	___fltol@f1+2,f
  3120  0B73  0CDD               	rrf	___fltol@f1+1,f
  3121  0B74  0CDC               	rrf	___fltol@f1,f
  3122  0B75  3EFF               	addlw	-1
  3123  0B76  1D03               	skipz
  3124  0B77  2B70               	goto	u1485
  3125  0B78  3001               	movlw	1
  3126  0B79  00E0               	movwf	??___fltol
  3127  0B7A  0860               	movf	??___fltol,w
  3128  0B7B  07E6               	addwf	___fltol@exp1,f
  3129  0B7C  1D03               	btfss	3,2
  3130  0B7D  2B7F               	goto	u1491
  3131  0B7E  2B80               	goto	u1490
  3132  0B7F                     u1491:
  3133  0B7F  2B6F               	goto	l1754
  3134  0B80                     u1490:
  3135  0B80  2B98               	goto	l1764
  3136  0B81                     l1756:
  3137  0B81  3020               	movlw	32
  3138  0B82  0266               	subwf	___fltol@exp1,w
  3139  0B83  1C03               	skipc
  3140  0B84  2B86               	goto	u1501
  3141  0B85  2B87               	goto	u1500
  3142  0B86                     u1501:
  3143  0B86  2B93               	goto	l513
  3144  0B87                     u1500:
  3145  0B87  2B3A               	goto	l1734
  3146  0B88                     l1762:
  3147  0B88  3001               	movlw	1
  3148  0B89  00E0               	movwf	??___fltol
  3149  0B8A                     u1515:
  3150  0B8A  1003               	clrc
  3151  0B8B  0DDC               	rlf	___fltol@f1,f
  3152  0B8C  0DDD               	rlf	___fltol@f1+1,f
  3153  0B8D  0DDE               	rlf	___fltol@f1+2,f
  3154  0B8E  0DDF               	rlf	___fltol@f1+3,f
  3155  0B8F  0BE0               	decfsz	??___fltol,f
  3156  0B90  2B8A               	goto	u1515
  3157  0B91  3001               	movlw	1
  3158  0B92  02E6               	subwf	___fltol@exp1,f
  3159  0B93                     l513:
  3160  0B93  0866               	movf	___fltol@exp1,w
  3161  0B94  1D03               	btfss	3,2
  3162  0B95  2B97               	goto	u1521
  3163  0B96  2B98               	goto	u1520
  3164  0B97                     u1521:
  3165  0B97  2B88               	goto	l1762
  3166  0B98                     u1520:
  3167  0B98                     l1764:
  3168  0B98  0865               	movf	___fltol@sign1,w
  3169  0B99  1903               	btfsc	3,2
  3170  0B9A  2B9C               	goto	u1531
  3171  0B9B  2B9D               	goto	u1530
  3172  0B9C                     u1531:
  3173  0B9C  2BA8               	goto	l516
  3174  0B9D                     u1530:
  3175  0B9D                     l1766:
  3176  0B9D  09DC               	comf	___fltol@f1,f
  3177  0B9E  09DD               	comf	___fltol@f1+1,f
  3178  0B9F  09DE               	comf	___fltol@f1+2,f
  3179  0BA0  09DF               	comf	___fltol@f1+3,f
  3180  0BA1  0ADC               	incf	___fltol@f1,f
  3181  0BA2  1903               	skipnz
  3182  0BA3  0ADD               	incf	___fltol@f1+1,f
  3183  0BA4  1903               	skipnz
  3184  0BA5  0ADE               	incf	___fltol@f1+2,f
  3185  0BA6  1903               	skipnz
  3186  0BA7  0ADF               	incf	___fltol@f1+3,f
  3187  0BA8                     l516:
  3188  0BA8                     l506:
  3189  0BA8  0008               	return
  3190  0BA9                     __end_of___fltol:
  3191                           
  3192                           	psect	text8
  3193  0049                     __ptext8:	
  3194 ;; *************** function ___flmul *****************
  3195 ;; Defined at:
  3196 ;;		line 8 in file "C:\Program Files\Microchip\xc8\v2.31\pic\sources\c90\common\sprcmul.c"
  3197 ;; Parameters:    Size  Location     Type
  3198 ;;  b               4   14[BANK0 ] long 
  3199 ;;  a               4   18[BANK0 ] long 
  3200 ;; Auto vars:     Size  Location     Type
  3201 ;;  prod            4   34[BANK0 ] struct .
  3202 ;;  grs             4   29[BANK0 ] unsigned long 
  3203 ;;  temp            2   38[BANK0 ] struct .
  3204 ;;  bexp            1   33[BANK0 ] unsigned char 
  3205 ;;  aexp            1   28[BANK0 ] unsigned char 
  3206 ;;  sign            1   27[BANK0 ] unsigned char 
  3207 ;; Return value:  Size  Location     Type
  3208 ;;                  4   14[BANK0 ] unsigned char 
  3209 ;; Registers used:
  3210 ;;		wreg, status,2, status,0, btemp+1, pclath, cstack
  3211 ;; Tracked objects:
  3212 ;;		On entry : 0/0
  3213 ;;		On exit  : 0/0
  3214 ;;		Unchanged: 0/0
  3215 ;; Data sizes:     COMMON   BANK0   BANK1   BANK3   BANK2
  3216 ;;      Params:         0       8       0       0       0
  3217 ;;      Locals:         0      13       0       0       0
  3218 ;;      Temps:          0       5       0       0       0
  3219 ;;      Totals:         0      26       0       0       0
  3220 ;;Total ram usage:       26 bytes
  3221 ;; Hardware stack levels used:    1
  3222 ;; Hardware stack levels required when called:    2
  3223 ;; This function calls:
  3224 ;;		__Umul8_16
  3225 ;; This function is called by:
  3226 ;;		_main
  3227 ;;		_ANALOGICOS
  3228 ;; This function uses a non-reentrant model
  3229 ;;
  3230                           
  3231                           
  3232                           ;psect for function ___flmul
  3233  0049                     ___flmul:
  3234  0049                     l2626:	
  3235                           ;incstack = 0
  3236                           ; Regs used in ___flmul: [wreg+status,2+status,0+btemp+1+pclath+cstack]
  3237                           
  3238  0049  1283               	bcf	3,5	;RP0=0, select bank0
  3239  004A  1303               	bcf	3,6	;RP1=0, select bank0
  3240  004B  0831               	movf	___flmul@b+3,w
  3241  004C  3980               	andlw	128
  3242  004D  00B6               	movwf	??___flmul
  3243  004E  0836               	movf	??___flmul,w
  3244  004F  00BB               	movwf	___flmul@sign
  3245  0050                     l2628:
  3246  0050  0831               	movf	___flmul@b+3,w
  3247  0051  00B6               	movwf	??___flmul
  3248  0052  0736               	addwf	??___flmul,w
  3249  0053  00B7               	movwf	??___flmul+1
  3250  0054  0837               	movf	??___flmul+1,w
  3251  0055  00C1               	movwf	___flmul@bexp
  3252  0056                     l2630:
  3253  0056  1FB0               	btfss	___flmul@b+2,7
  3254  0057  2859               	goto	u2831
  3255  0058  285A               	goto	u2830
  3256  0059                     u2831:
  3257  0059  285B               	goto	l2634
  3258  005A                     u2830:
  3259  005A                     l2632:
  3260  005A  1441               	bsf	___flmul@bexp,0
  3261  005B                     l2634:
  3262  005B  0841               	movf	___flmul@bexp,w
  3263  005C  1903               	btfsc	3,2
  3264  005D  285F               	goto	u2841
  3265  005E  2860               	goto	u2840
  3266  005F                     u2841:
  3267  005F  286F               	goto	l2642
  3268  0060                     u2840:
  3269  0060                     l2636:
  3270  0060  0A41               	incf	___flmul@bexp,w
  3271  0061  1D03               	btfss	3,2
  3272  0062  2864               	goto	u2851
  3273  0063  2865               	goto	u2850
  3274  0064                     u2851:
  3275  0064  286D               	goto	l2640
  3276  0065                     u2850:
  3277  0065                     l2638:
  3278  0065  3000               	movlw	0
  3279  0066  00B1               	movwf	___flmul@b+3
  3280  0067  3000               	movlw	0
  3281  0068  00B0               	movwf	___flmul@b+2
  3282  0069  3000               	movlw	0
  3283  006A  00AF               	movwf	___flmul@b+1
  3284  006B  3000               	movlw	0
  3285  006C  00AE               	movwf	___flmul@b
  3286  006D                     l2640:
  3287  006D  17B0               	bsf	___flmul@b+2,7
  3288  006E  2877               	goto	l2644
  3289  006F                     l2642:
  3290  006F  3000               	movlw	0
  3291  0070  00B1               	movwf	___flmul@b+3
  3292  0071  3000               	movlw	0
  3293  0072  00B0               	movwf	___flmul@b+2
  3294  0073  3000               	movlw	0
  3295  0074  00AF               	movwf	___flmul@b+1
  3296  0075  3000               	movlw	0
  3297  0076  00AE               	movwf	___flmul@b
  3298  0077                     l2644:
  3299  0077  0835               	movf	___flmul@a+3,w
  3300  0078  3980               	andlw	128
  3301  0079  00B6               	movwf	??___flmul
  3302  007A  0836               	movf	??___flmul,w
  3303  007B  06BB               	xorwf	___flmul@sign,f
  3304  007C                     l2646:
  3305  007C  0835               	movf	___flmul@a+3,w
  3306  007D  00B6               	movwf	??___flmul
  3307  007E  0736               	addwf	??___flmul,w
  3308  007F  00B7               	movwf	??___flmul+1
  3309  0080  0837               	movf	??___flmul+1,w
  3310  0081  00BC               	movwf	___flmul@aexp
  3311  0082                     l2648:
  3312  0082  1FB4               	btfss	___flmul@a+2,7
  3313  0083  2885               	goto	u2861
  3314  0084  2886               	goto	u2860
  3315  0085                     u2861:
  3316  0085  2887               	goto	l2652
  3317  0086                     u2860:
  3318  0086                     l2650:
  3319  0086  143C               	bsf	___flmul@aexp,0
  3320  0087                     l2652:
  3321  0087  083C               	movf	___flmul@aexp,w
  3322  0088  1903               	btfsc	3,2
  3323  0089  288B               	goto	u2871
  3324  008A  288C               	goto	u2870
  3325  008B                     u2871:
  3326  008B  289B               	goto	l2660
  3327  008C                     u2870:
  3328  008C                     l2654:
  3329  008C  0A3C               	incf	___flmul@aexp,w
  3330  008D  1D03               	btfss	3,2
  3331  008E  2890               	goto	u2881
  3332  008F  2891               	goto	u2880
  3333  0090                     u2881:
  3334  0090  2899               	goto	l2658
  3335  0091                     u2880:
  3336  0091                     l2656:
  3337  0091  3000               	movlw	0
  3338  0092  00B5               	movwf	___flmul@a+3
  3339  0093  3000               	movlw	0
  3340  0094  00B4               	movwf	___flmul@a+2
  3341  0095  3000               	movlw	0
  3342  0096  00B3               	movwf	___flmul@a+1
  3343  0097  3000               	movlw	0
  3344  0098  00B2               	movwf	___flmul@a
  3345  0099                     l2658:
  3346  0099  17B4               	bsf	___flmul@a+2,7
  3347  009A  28A3               	goto	l2662
  3348  009B                     l2660:
  3349  009B  3000               	movlw	0
  3350  009C  00B5               	movwf	___flmul@a+3
  3351  009D  3000               	movlw	0
  3352  009E  00B4               	movwf	___flmul@a+2
  3353  009F  3000               	movlw	0
  3354  00A0  00B3               	movwf	___flmul@a+1
  3355  00A1  3000               	movlw	0
  3356  00A2  00B2               	movwf	___flmul@a
  3357  00A3                     l2662:
  3358  00A3  083C               	movf	___flmul@aexp,w
  3359  00A4  1903               	btfsc	3,2
  3360  00A5  28A7               	goto	u2891
  3361  00A6  28A8               	goto	u2890
  3362  00A7                     u2891:
  3363  00A7  28AD               	goto	l2666
  3364  00A8                     u2890:
  3365  00A8                     l2664:
  3366  00A8  0841               	movf	___flmul@bexp,w
  3367  00A9  1D03               	btfss	3,2
  3368  00AA  28AC               	goto	u2901
  3369  00AB  28AD               	goto	u2900
  3370  00AC                     u2901:
  3371  00AC  28B6               	goto	l2670
  3372  00AD                     u2900:
  3373  00AD                     l2666:
  3374  00AD  3000               	movlw	0
  3375  00AE  00B1               	movwf	?___flmul+3
  3376  00AF  3000               	movlw	0
  3377  00B0  00B0               	movwf	?___flmul+2
  3378  00B1  3000               	movlw	0
  3379  00B2  00AF               	movwf	?___flmul+1
  3380  00B3  3000               	movlw	0
  3381  00B4  00AE               	movwf	?___flmul
  3382  00B5  2BA9               	goto	l709
  3383  00B6                     l2670:
  3384  00B6  082E               	movf	___flmul@b,w
  3385  00B7  00B6               	movwf	??___flmul
  3386  00B8  0836               	movf	??___flmul,w
  3387  00B9  00A0               	movwf	__Umul8_16@multiplicand
  3388  00BA  0834               	movf	___flmul@a+2,w
  3389  00BB  120A  158A  228B  120A  118A  	fcall	__Umul8_16
  3390  00C0  1283               	bcf	3,5	;RP0=0, select bank0
  3391  00C1  1303               	bcf	3,6	;RP1=0, select bank0
  3392  00C2  0821               	movf	?__Umul8_16+1,w
  3393  00C3  00C7               	movwf	___flmul@temp+1
  3394  00C4  0820               	movf	?__Umul8_16,w
  3395  00C5  00C6               	movwf	___flmul@temp
  3396  00C6                     l2672:
  3397  00C6  0846               	movf	___flmul@temp,w
  3398  00C7  00B6               	movwf	??___flmul
  3399  00C8  01B7               	clrf	??___flmul+1
  3400  00C9  01B8               	clrf	??___flmul+2
  3401  00CA  01B9               	clrf	??___flmul+3
  3402  00CB  0839               	movf	??___flmul+3,w
  3403  00CC  00C0               	movwf	___flmul@grs+3
  3404  00CD  0838               	movf	??___flmul+2,w
  3405  00CE  00BF               	movwf	___flmul@grs+2
  3406  00CF  0837               	movf	??___flmul+1,w
  3407  00D0  00BE               	movwf	___flmul@grs+1
  3408  00D1  0836               	movf	??___flmul,w
  3409  00D2  00BD               	movwf	___flmul@grs
  3410  00D3                     l2674:
  3411  00D3  0847               	movf	___flmul@temp+1,w
  3412  00D4  00B6               	movwf	??___flmul
  3413  00D5  01B7               	clrf	??___flmul+1
  3414  00D6  01B8               	clrf	??___flmul+2
  3415  00D7  01B9               	clrf	??___flmul+3
  3416  00D8  0839               	movf	??___flmul+3,w
  3417  00D9  00C5               	movwf	___flmul@prod+3
  3418  00DA  0838               	movf	??___flmul+2,w
  3419  00DB  00C4               	movwf	___flmul@prod+2
  3420  00DC  0837               	movf	??___flmul+1,w
  3421  00DD  00C3               	movwf	___flmul@prod+1
  3422  00DE  0836               	movf	??___flmul,w
  3423  00DF  00C2               	movwf	___flmul@prod
  3424  00E0  082F               	movf	___flmul@b+1,w
  3425  00E1  00B6               	movwf	??___flmul
  3426  00E2  0836               	movf	??___flmul,w
  3427  00E3  00A0               	movwf	__Umul8_16@multiplicand
  3428  00E4  0833               	movf	___flmul@a+1,w
  3429  00E5  120A  158A  228B  120A  118A  	fcall	__Umul8_16
  3430  00EA  1283               	bcf	3,5	;RP0=0, select bank0
  3431  00EB  1303               	bcf	3,6	;RP1=0, select bank0
  3432  00EC  0821               	movf	?__Umul8_16+1,w
  3433  00ED  00C7               	movwf	___flmul@temp+1
  3434  00EE  0820               	movf	?__Umul8_16,w
  3435  00EF  00C6               	movwf	___flmul@temp
  3436  00F0                     l2676:
  3437  00F0  0846               	movf	___flmul@temp,w
  3438  00F1  00B6               	movwf	??___flmul
  3439  00F2  01B7               	clrf	??___flmul+1
  3440  00F3  01B8               	clrf	??___flmul+2
  3441  00F4  01B9               	clrf	??___flmul+3
  3442  00F5  0836               	movf	??___flmul,w
  3443  00F6  07BD               	addwf	___flmul@grs,f
  3444  00F7  0837               	movf	??___flmul+1,w
  3445  00F8  1103               	clrz
  3446  00F9  1803               	skipnc
  3447  00FA  3E01               	addlw	1
  3448  00FB  1903               	skipnz
  3449  00FC  28FE               	goto	u2911
  3450  00FD  07BE               	addwf	___flmul@grs+1,f
  3451  00FE                     u2911:
  3452  00FE  0838               	movf	??___flmul+2,w
  3453  00FF  1103               	clrz
  3454  0100  1803               	skipnc
  3455  0101  3E01               	addlw	1
  3456  0102  1903               	skipnz
  3457  0103  2905               	goto	u2912
  3458  0104  07BF               	addwf	___flmul@grs+2,f
  3459  0105                     u2912:
  3460  0105  0839               	movf	??___flmul+3,w
  3461  0106  1103               	clrz
  3462  0107  1803               	skipnc
  3463  0108  3E01               	addlw	1
  3464  0109  1903               	skipnz
  3465  010A  290C               	goto	u2913
  3466  010B  07C0               	addwf	___flmul@grs+3,f
  3467  010C                     u2913:
  3468  010C                     l2678:
  3469  010C  0847               	movf	___flmul@temp+1,w
  3470  010D  00B6               	movwf	??___flmul
  3471  010E  01B7               	clrf	??___flmul+1
  3472  010F  01B8               	clrf	??___flmul+2
  3473  0110  01B9               	clrf	??___flmul+3
  3474  0111  0836               	movf	??___flmul,w
  3475  0112  07C2               	addwf	___flmul@prod,f
  3476  0113  0837               	movf	??___flmul+1,w
  3477  0114  1103               	clrz
  3478  0115  1803               	skipnc
  3479  0116  3E01               	addlw	1
  3480  0117  1903               	skipnz
  3481  0118  291A               	goto	u2921
  3482  0119  07C3               	addwf	___flmul@prod+1,f
  3483  011A                     u2921:
  3484  011A  0838               	movf	??___flmul+2,w
  3485  011B  1103               	clrz
  3486  011C  1803               	skipnc
  3487  011D  3E01               	addlw	1
  3488  011E  1903               	skipnz
  3489  011F  2921               	goto	u2922
  3490  0120  07C4               	addwf	___flmul@prod+2,f
  3491  0121                     u2922:
  3492  0121  0839               	movf	??___flmul+3,w
  3493  0122  1103               	clrz
  3494  0123  1803               	skipnc
  3495  0124  3E01               	addlw	1
  3496  0125  1903               	skipnz
  3497  0126  2928               	goto	u2923
  3498  0127  07C5               	addwf	___flmul@prod+3,f
  3499  0128                     u2923:
  3500  0128  0830               	movf	___flmul@b+2,w
  3501  0129  00B6               	movwf	??___flmul
  3502  012A  0836               	movf	??___flmul,w
  3503  012B  00A0               	movwf	__Umul8_16@multiplicand
  3504  012C  0832               	movf	___flmul@a,w
  3505  012D  120A  158A  228B  120A  118A  	fcall	__Umul8_16
  3506  0132  1283               	bcf	3,5	;RP0=0, select bank0
  3507  0133  1303               	bcf	3,6	;RP1=0, select bank0
  3508  0134  0821               	movf	?__Umul8_16+1,w
  3509  0135  00C7               	movwf	___flmul@temp+1
  3510  0136  0820               	movf	?__Umul8_16,w
  3511  0137  00C6               	movwf	___flmul@temp
  3512  0138                     l2680:
  3513  0138  0846               	movf	___flmul@temp,w
  3514  0139  00B6               	movwf	??___flmul
  3515  013A  01B7               	clrf	??___flmul+1
  3516  013B  01B8               	clrf	??___flmul+2
  3517  013C  01B9               	clrf	??___flmul+3
  3518  013D  0836               	movf	??___flmul,w
  3519  013E  07BD               	addwf	___flmul@grs,f
  3520  013F  0837               	movf	??___flmul+1,w
  3521  0140  1103               	clrz
  3522  0141  1803               	skipnc
  3523  0142  3E01               	addlw	1
  3524  0143  1903               	skipnz
  3525  0144  2946               	goto	u2931
  3526  0145  07BE               	addwf	___flmul@grs+1,f
  3527  0146                     u2931:
  3528  0146  0838               	movf	??___flmul+2,w
  3529  0147  1103               	clrz
  3530  0148  1803               	skipnc
  3531  0149  3E01               	addlw	1
  3532  014A  1903               	skipnz
  3533  014B  294D               	goto	u2932
  3534  014C  07BF               	addwf	___flmul@grs+2,f
  3535  014D                     u2932:
  3536  014D  0839               	movf	??___flmul+3,w
  3537  014E  1103               	clrz
  3538  014F  1803               	skipnc
  3539  0150  3E01               	addlw	1
  3540  0151  1903               	skipnz
  3541  0152  2954               	goto	u2933
  3542  0153  07C0               	addwf	___flmul@grs+3,f
  3543  0154                     u2933:
  3544  0154                     l2682:
  3545  0154  0847               	movf	___flmul@temp+1,w
  3546  0155  00B6               	movwf	??___flmul
  3547  0156  01B7               	clrf	??___flmul+1
  3548  0157  01B8               	clrf	??___flmul+2
  3549  0158  01B9               	clrf	??___flmul+3
  3550  0159  0836               	movf	??___flmul,w
  3551  015A  07C2               	addwf	___flmul@prod,f
  3552  015B  0837               	movf	??___flmul+1,w
  3553  015C  1103               	clrz
  3554  015D  1803               	skipnc
  3555  015E  3E01               	addlw	1
  3556  015F  1903               	skipnz
  3557  0160  2962               	goto	u2941
  3558  0161  07C3               	addwf	___flmul@prod+1,f
  3559  0162                     u2941:
  3560  0162  0838               	movf	??___flmul+2,w
  3561  0163  1103               	clrz
  3562  0164  1803               	skipnc
  3563  0165  3E01               	addlw	1
  3564  0166  1903               	skipnz
  3565  0167  2969               	goto	u2942
  3566  0168  07C4               	addwf	___flmul@prod+2,f
  3567  0169                     u2942:
  3568  0169  0839               	movf	??___flmul+3,w
  3569  016A  1103               	clrz
  3570  016B  1803               	skipnc
  3571  016C  3E01               	addlw	1
  3572  016D  1903               	skipnz
  3573  016E  2970               	goto	u2943
  3574  016F  07C5               	addwf	___flmul@prod+3,f
  3575  0170                     u2943:
  3576  0170                     l2684:
  3577  0170  3008               	movlw	8
  3578  0171  00B6               	movwf	??___flmul
  3579  0172                     u2955:
  3580  0172  1003               	clrc
  3581  0173  0DBD               	rlf	___flmul@grs,f
  3582  0174  0DBE               	rlf	___flmul@grs+1,f
  3583  0175  0DBF               	rlf	___flmul@grs+2,f
  3584  0176  0DC0               	rlf	___flmul@grs+3,f
  3585  0177  0BB6               	decfsz	??___flmul,f
  3586  0178  2972               	goto	u2955
  3587  0179                     l2686:
  3588  0179  082F               	movf	___flmul@b+1,w
  3589  017A  00B6               	movwf	??___flmul
  3590  017B  0836               	movf	??___flmul,w
  3591  017C  00A0               	movwf	__Umul8_16@multiplicand
  3592  017D  0832               	movf	___flmul@a,w
  3593  017E  120A  158A  228B  120A  118A  	fcall	__Umul8_16
  3594  0183  1283               	bcf	3,5	;RP0=0, select bank0
  3595  0184  1303               	bcf	3,6	;RP1=0, select bank0
  3596  0185  0821               	movf	?__Umul8_16+1,w
  3597  0186  00C7               	movwf	___flmul@temp+1
  3598  0187  0820               	movf	?__Umul8_16,w
  3599  0188  00C6               	movwf	___flmul@temp
  3600  0189                     l2688:
  3601  0189  0846               	movf	___flmul@temp,w
  3602  018A  00B6               	movwf	??___flmul
  3603  018B  0847               	movf	___flmul@temp+1,w
  3604  018C  00B7               	movwf	??___flmul+1
  3605  018D  01B8               	clrf	??___flmul+2
  3606  018E  01B9               	clrf	??___flmul+3
  3607  018F  0836               	movf	??___flmul,w
  3608  0190  07BD               	addwf	___flmul@grs,f
  3609  0191  0837               	movf	??___flmul+1,w
  3610  0192  1103               	clrz
  3611  0193  1803               	skipnc
  3612  0194  3E01               	addlw	1
  3613  0195  1903               	skipnz
  3614  0196  2998               	goto	u2961
  3615  0197  07BE               	addwf	___flmul@grs+1,f
  3616  0198                     u2961:
  3617  0198  0838               	movf	??___flmul+2,w
  3618  0199  1103               	clrz
  3619  019A  1803               	skipnc
  3620  019B  3E01               	addlw	1
  3621  019C  1903               	skipnz
  3622  019D  299F               	goto	u2962
  3623  019E  07BF               	addwf	___flmul@grs+2,f
  3624  019F                     u2962:
  3625  019F  0839               	movf	??___flmul+3,w
  3626  01A0  1103               	clrz
  3627  01A1  1803               	skipnc
  3628  01A2  3E01               	addlw	1
  3629  01A3  1903               	skipnz
  3630  01A4  29A6               	goto	u2963
  3631  01A5  07C0               	addwf	___flmul@grs+3,f
  3632  01A6                     u2963:
  3633  01A6                     l2690:
  3634  01A6  082E               	movf	___flmul@b,w
  3635  01A7  00B6               	movwf	??___flmul
  3636  01A8  0836               	movf	??___flmul,w
  3637  01A9  00A0               	movwf	__Umul8_16@multiplicand
  3638  01AA  0833               	movf	___flmul@a+1,w
  3639  01AB  120A  158A  228B  120A  118A  	fcall	__Umul8_16
  3640  01B0  1283               	bcf	3,5	;RP0=0, select bank0
  3641  01B1  1303               	bcf	3,6	;RP1=0, select bank0
  3642  01B2  0821               	movf	?__Umul8_16+1,w
  3643  01B3  00C7               	movwf	___flmul@temp+1
  3644  01B4  0820               	movf	?__Umul8_16,w
  3645  01B5  00C6               	movwf	___flmul@temp
  3646  01B6                     l2692:
  3647  01B6  0846               	movf	___flmul@temp,w
  3648  01B7  00B6               	movwf	??___flmul
  3649  01B8  0847               	movf	___flmul@temp+1,w
  3650  01B9  00B7               	movwf	??___flmul+1
  3651  01BA  01B8               	clrf	??___flmul+2
  3652  01BB  01B9               	clrf	??___flmul+3
  3653  01BC  0836               	movf	??___flmul,w
  3654  01BD  07BD               	addwf	___flmul@grs,f
  3655  01BE  0837               	movf	??___flmul+1,w
  3656  01BF  1103               	clrz
  3657  01C0  1803               	skipnc
  3658  01C1  3E01               	addlw	1
  3659  01C2  1903               	skipnz
  3660  01C3  29C5               	goto	u2971
  3661  01C4  07BE               	addwf	___flmul@grs+1,f
  3662  01C5                     u2971:
  3663  01C5  0838               	movf	??___flmul+2,w
  3664  01C6  1103               	clrz
  3665  01C7  1803               	skipnc
  3666  01C8  3E01               	addlw	1
  3667  01C9  1903               	skipnz
  3668  01CA  29CC               	goto	u2972
  3669  01CB  07BF               	addwf	___flmul@grs+2,f
  3670  01CC                     u2972:
  3671  01CC  0839               	movf	??___flmul+3,w
  3672  01CD  1103               	clrz
  3673  01CE  1803               	skipnc
  3674  01CF  3E01               	addlw	1
  3675  01D0  1903               	skipnz
  3676  01D1  29D3               	goto	u2973
  3677  01D2  07C0               	addwf	___flmul@grs+3,f
  3678  01D3                     u2973:
  3679  01D3                     l2694:
  3680  01D3  3008               	movlw	8
  3681  01D4  00B6               	movwf	??___flmul
  3682  01D5                     u2985:
  3683  01D5  1003               	clrc
  3684  01D6  0DBD               	rlf	___flmul@grs,f
  3685  01D7  0DBE               	rlf	___flmul@grs+1,f
  3686  01D8  0DBF               	rlf	___flmul@grs+2,f
  3687  01D9  0DC0               	rlf	___flmul@grs+3,f
  3688  01DA  0BB6               	decfsz	??___flmul,f
  3689  01DB  29D5               	goto	u2985
  3690  01DC  082E               	movf	___flmul@b,w
  3691  01DD  00B6               	movwf	??___flmul
  3692  01DE  0836               	movf	??___flmul,w
  3693  01DF  00A0               	movwf	__Umul8_16@multiplicand
  3694  01E0  0832               	movf	___flmul@a,w
  3695  01E1  120A  158A  228B  120A  118A  	fcall	__Umul8_16
  3696  01E6  1283               	bcf	3,5	;RP0=0, select bank0
  3697  01E7  1303               	bcf	3,6	;RP1=0, select bank0
  3698  01E8  0821               	movf	?__Umul8_16+1,w
  3699  01E9  00C7               	movwf	___flmul@temp+1
  3700  01EA  0820               	movf	?__Umul8_16,w
  3701  01EB  00C6               	movwf	___flmul@temp
  3702  01EC                     l2696:
  3703  01EC  0846               	movf	___flmul@temp,w
  3704  01ED  00B6               	movwf	??___flmul
  3705  01EE  0847               	movf	___flmul@temp+1,w
  3706  01EF  00B7               	movwf	??___flmul+1
  3707  01F0  01B8               	clrf	??___flmul+2
  3708  01F1  01B9               	clrf	??___flmul+3
  3709  01F2  0836               	movf	??___flmul,w
  3710  01F3  07BD               	addwf	___flmul@grs,f
  3711  01F4  0837               	movf	??___flmul+1,w
  3712  01F5  1103               	clrz
  3713  01F6  1803               	skipnc
  3714  01F7  3E01               	addlw	1
  3715  01F8  1903               	skipnz
  3716  01F9  29FB               	goto	u2991
  3717  01FA  07BE               	addwf	___flmul@grs+1,f
  3718  01FB                     u2991:
  3719  01FB  0838               	movf	??___flmul+2,w
  3720  01FC  1103               	clrz
  3721  01FD  1803               	skipnc
  3722  01FE  3E01               	addlw	1
  3723  01FF  1903               	skipnz
  3724  0200  2A02               	goto	u2992
  3725  0201  07BF               	addwf	___flmul@grs+2,f
  3726  0202                     u2992:
  3727  0202  0839               	movf	??___flmul+3,w
  3728  0203  1103               	clrz
  3729  0204  1803               	skipnc
  3730  0205  3E01               	addlw	1
  3731  0206  1903               	skipnz
  3732  0207  2A09               	goto	u2993
  3733  0208  07C0               	addwf	___flmul@grs+3,f
  3734  0209                     u2993:
  3735  0209                     l2698:
  3736  0209  082F               	movf	___flmul@b+1,w
  3737  020A  00B6               	movwf	??___flmul
  3738  020B  0836               	movf	??___flmul,w
  3739  020C  00A0               	movwf	__Umul8_16@multiplicand
  3740  020D  0834               	movf	___flmul@a+2,w
  3741  020E  120A  158A  228B  120A  118A  	fcall	__Umul8_16
  3742  0213  1283               	bcf	3,5	;RP0=0, select bank0
  3743  0214  1303               	bcf	3,6	;RP1=0, select bank0
  3744  0215  0821               	movf	?__Umul8_16+1,w
  3745  0216  00C7               	movwf	___flmul@temp+1
  3746  0217  0820               	movf	?__Umul8_16,w
  3747  0218  00C6               	movwf	___flmul@temp
  3748  0219  0846               	movf	___flmul@temp,w
  3749  021A  00B6               	movwf	??___flmul
  3750  021B  0847               	movf	___flmul@temp+1,w
  3751  021C  00B7               	movwf	??___flmul+1
  3752  021D  01B8               	clrf	??___flmul+2
  3753  021E  01B9               	clrf	??___flmul+3
  3754  021F  0836               	movf	??___flmul,w
  3755  0220  07C2               	addwf	___flmul@prod,f
  3756  0221  0837               	movf	??___flmul+1,w
  3757  0222  1103               	clrz
  3758  0223  1803               	skipnc
  3759  0224  3E01               	addlw	1
  3760  0225  1903               	skipnz
  3761  0226  2A28               	goto	u3001
  3762  0227  07C3               	addwf	___flmul@prod+1,f
  3763  0228                     u3001:
  3764  0228  0838               	movf	??___flmul+2,w
  3765  0229  1103               	clrz
  3766  022A  1803               	skipnc
  3767  022B  3E01               	addlw	1
  3768  022C  1903               	skipnz
  3769  022D  2A2F               	goto	u3002
  3770  022E  07C4               	addwf	___flmul@prod+2,f
  3771  022F                     u3002:
  3772  022F  0839               	movf	??___flmul+3,w
  3773  0230  1103               	clrz
  3774  0231  1803               	skipnc
  3775  0232  3E01               	addlw	1
  3776  0233  1903               	skipnz
  3777  0234  2A36               	goto	u3003
  3778  0235  07C5               	addwf	___flmul@prod+3,f
  3779  0236                     u3003:
  3780  0236                     l2700:
  3781  0236  0830               	movf	___flmul@b+2,w
  3782  0237  00B6               	movwf	??___flmul
  3783  0238  0836               	movf	??___flmul,w
  3784  0239  00A0               	movwf	__Umul8_16@multiplicand
  3785  023A  0833               	movf	___flmul@a+1,w
  3786  023B  120A  158A  228B  120A  118A  	fcall	__Umul8_16
  3787  0240  1283               	bcf	3,5	;RP0=0, select bank0
  3788  0241  1303               	bcf	3,6	;RP1=0, select bank0
  3789  0242  0821               	movf	?__Umul8_16+1,w
  3790  0243  00C7               	movwf	___flmul@temp+1
  3791  0244  0820               	movf	?__Umul8_16,w
  3792  0245  00C6               	movwf	___flmul@temp
  3793  0246                     l2702:
  3794  0246  0846               	movf	___flmul@temp,w
  3795  0247  00B6               	movwf	??___flmul
  3796  0248  0847               	movf	___flmul@temp+1,w
  3797  0249  00B7               	movwf	??___flmul+1
  3798  024A  01B8               	clrf	??___flmul+2
  3799  024B  01B9               	clrf	??___flmul+3
  3800  024C  0836               	movf	??___flmul,w
  3801  024D  07C2               	addwf	___flmul@prod,f
  3802  024E  0837               	movf	??___flmul+1,w
  3803  024F  1103               	clrz
  3804  0250  1803               	skipnc
  3805  0251  3E01               	addlw	1
  3806  0252  1903               	skipnz
  3807  0253  2A55               	goto	u3011
  3808  0254  07C3               	addwf	___flmul@prod+1,f
  3809  0255                     u3011:
  3810  0255  0838               	movf	??___flmul+2,w
  3811  0256  1103               	clrz
  3812  0257  1803               	skipnc
  3813  0258  3E01               	addlw	1
  3814  0259  1903               	skipnz
  3815  025A  2A5C               	goto	u3012
  3816  025B  07C4               	addwf	___flmul@prod+2,f
  3817  025C                     u3012:
  3818  025C  0839               	movf	??___flmul+3,w
  3819  025D  1103               	clrz
  3820  025E  1803               	skipnc
  3821  025F  3E01               	addlw	1
  3822  0260  1903               	skipnz
  3823  0261  2A63               	goto	u3013
  3824  0262  07C5               	addwf	___flmul@prod+3,f
  3825  0263                     u3013:
  3826  0263  0830               	movf	___flmul@b+2,w
  3827  0264  00B6               	movwf	??___flmul
  3828  0265  0836               	movf	??___flmul,w
  3829  0266  00A0               	movwf	__Umul8_16@multiplicand
  3830  0267  0834               	movf	___flmul@a+2,w
  3831  0268  120A  158A  228B  120A  118A  	fcall	__Umul8_16
  3832  026D  1283               	bcf	3,5	;RP0=0, select bank0
  3833  026E  1303               	bcf	3,6	;RP1=0, select bank0
  3834  026F  0821               	movf	?__Umul8_16+1,w
  3835  0270  00C7               	movwf	___flmul@temp+1
  3836  0271  0820               	movf	?__Umul8_16,w
  3837  0272  00C6               	movwf	___flmul@temp
  3838  0273                     l2704:
  3839  0273  0846               	movf	___flmul@temp,w
  3840  0274  00B6               	movwf	??___flmul
  3841  0275  0847               	movf	___flmul@temp+1,w
  3842  0276  00B7               	movwf	??___flmul+1
  3843  0277  01B8               	clrf	??___flmul+2
  3844  0278  01B9               	clrf	??___flmul+3
  3845  0279  3008               	movlw	8
  3846  027A                     u3025:
  3847  027A  1003               	clrc
  3848  027B  0DB6               	rlf	??___flmul,f
  3849  027C  0DB7               	rlf	??___flmul+1,f
  3850  027D  0DB8               	rlf	??___flmul+2,f
  3851  027E  0DB9               	rlf	??___flmul+3,f
  3852  027F                     u3020:
  3853  027F  3EFF               	addlw	-1
  3854  0280  1D03               	skipz
  3855  0281  2A7A               	goto	u3025
  3856  0282  0836               	movf	??___flmul,w
  3857  0283  07C2               	addwf	___flmul@prod,f
  3858  0284  0837               	movf	??___flmul+1,w
  3859  0285  1103               	clrz
  3860  0286  1803               	skipnc
  3861  0287  3E01               	addlw	1
  3862  0288  1903               	skipnz
  3863  0289  2A8B               	goto	u3031
  3864  028A  07C3               	addwf	___flmul@prod+1,f
  3865  028B                     u3031:
  3866  028B  0838               	movf	??___flmul+2,w
  3867  028C  1103               	clrz
  3868  028D  1803               	skipnc
  3869  028E  3E01               	addlw	1
  3870  028F  1903               	skipnz
  3871  0290  2A92               	goto	u3032
  3872  0291  07C4               	addwf	___flmul@prod+2,f
  3873  0292                     u3032:
  3874  0292  0839               	movf	??___flmul+3,w
  3875  0293  1103               	clrz
  3876  0294  1803               	skipnc
  3877  0295  3E01               	addlw	1
  3878  0296  1903               	skipnz
  3879  0297  2A99               	goto	u3033
  3880  0298  07C5               	addwf	___flmul@prod+3,f
  3881  0299                     u3033:
  3882  0299                     l2706:
  3883  0299  083D               	movf	___flmul@grs,w
  3884  029A  00B6               	movwf	??___flmul
  3885  029B  083E               	movf	___flmul@grs+1,w
  3886  029C  00B7               	movwf	??___flmul+1
  3887  029D  083F               	movf	___flmul@grs+2,w
  3888  029E  00B8               	movwf	??___flmul+2
  3889  029F  0840               	movf	___flmul@grs+3,w
  3890  02A0  00B9               	movwf	??___flmul+3
  3891  02A1  3018               	movlw	24
  3892  02A2                     u3045:
  3893  02A2  1003               	clrc
  3894  02A3  0CB9               	rrf	??___flmul+3,f
  3895  02A4  0CB8               	rrf	??___flmul+2,f
  3896  02A5  0CB7               	rrf	??___flmul+1,f
  3897  02A6  0CB6               	rrf	??___flmul,f
  3898  02A7                     u3040:
  3899  02A7  3EFF               	addlw	-1
  3900  02A8  1D03               	skipz
  3901  02A9  2AA2               	goto	u3045
  3902  02AA  0836               	movf	??___flmul,w
  3903  02AB  07C2               	addwf	___flmul@prod,f
  3904  02AC  0837               	movf	??___flmul+1,w
  3905  02AD  1103               	clrz
  3906  02AE  1803               	skipnc
  3907  02AF  3E01               	addlw	1
  3908  02B0  1903               	skipnz
  3909  02B1  2AB3               	goto	u3051
  3910  02B2  07C3               	addwf	___flmul@prod+1,f
  3911  02B3                     u3051:
  3912  02B3  0838               	movf	??___flmul+2,w
  3913  02B4  1103               	clrz
  3914  02B5  1803               	skipnc
  3915  02B6  3E01               	addlw	1
  3916  02B7  1903               	skipnz
  3917  02B8  2ABA               	goto	u3052
  3918  02B9  07C4               	addwf	___flmul@prod+2,f
  3919  02BA                     u3052:
  3920  02BA  0839               	movf	??___flmul+3,w
  3921  02BB  1103               	clrz
  3922  02BC  1803               	skipnc
  3923  02BD  3E01               	addlw	1
  3924  02BE  1903               	skipnz
  3925  02BF  2AC1               	goto	u3053
  3926  02C0  07C5               	addwf	___flmul@prod+3,f
  3927  02C1                     u3053:
  3928  02C1                     l2708:
  3929  02C1  3008               	movlw	8
  3930  02C2  00B6               	movwf	??___flmul
  3931  02C3                     u3065:
  3932  02C3  1003               	clrc
  3933  02C4  0DBD               	rlf	___flmul@grs,f
  3934  02C5  0DBE               	rlf	___flmul@grs+1,f
  3935  02C6  0DBF               	rlf	___flmul@grs+2,f
  3936  02C7  0DC0               	rlf	___flmul@grs+3,f
  3937  02C8  0BB6               	decfsz	??___flmul,f
  3938  02C9  2AC3               	goto	u3065
  3939  02CA                     l2710:
  3940  02CA  0841               	movf	___flmul@bexp,w
  3941  02CB  073C               	addwf	___flmul@aexp,w
  3942  02CC  00B6               	movwf	??___flmul
  3943  02CD  01B7               	clrf	??___flmul+1
  3944  02CE  0DB7               	rlf	??___flmul+1,f
  3945  02CF  0836               	movf	??___flmul,w
  3946  02D0  3E82               	addlw	130
  3947  02D1  00C6               	movwf	___flmul@temp
  3948  02D2  0837               	movf	??___flmul+1,w
  3949  02D3  1803               	skipnc
  3950  02D4  3E01               	addlw	1
  3951  02D5  3EFF               	addlw	255
  3952  02D6  00C7               	movwf	___flmul@temp+1
  3953  02D7  2AF5               	goto	l2722
  3954  02D8                     l2712:
  3955  02D8  3001               	movlw	1
  3956  02D9  00B6               	movwf	??___flmul
  3957  02DA                     u3075:
  3958  02DA  1003               	clrc
  3959  02DB  0DC2               	rlf	___flmul@prod,f
  3960  02DC  0DC3               	rlf	___flmul@prod+1,f
  3961  02DD  0DC4               	rlf	___flmul@prod+2,f
  3962  02DE  0DC5               	rlf	___flmul@prod+3,f
  3963  02DF  0BB6               	decfsz	??___flmul,f
  3964  02E0  2ADA               	goto	u3075
  3965  02E1                     l2714:
  3966  02E1  1FC0               	btfss	___flmul@grs+3,7
  3967  02E2  2AE4               	goto	u3081
  3968  02E3  2AE5               	goto	u3080
  3969  02E4                     u3081:
  3970  02E4  2AE6               	goto	l2718
  3971  02E5                     u3080:
  3972  02E5                     l2716:
  3973  02E5  1442               	bsf	___flmul@prod,0
  3974  02E6                     l2718:
  3975  02E6  3001               	movlw	1
  3976  02E7  00B6               	movwf	??___flmul
  3977  02E8                     u3095:
  3978  02E8  1003               	clrc
  3979  02E9  0DBD               	rlf	___flmul@grs,f
  3980  02EA  0DBE               	rlf	___flmul@grs+1,f
  3981  02EB  0DBF               	rlf	___flmul@grs+2,f
  3982  02EC  0DC0               	rlf	___flmul@grs+3,f
  3983  02ED  0BB6               	decfsz	??___flmul,f
  3984  02EE  2AE8               	goto	u3095
  3985  02EF                     l2720:
  3986  02EF  30FF               	movlw	255
  3987  02F0  07C6               	addwf	___flmul@temp,f
  3988  02F1  1803               	skipnc
  3989  02F2  0AC7               	incf	___flmul@temp+1,f
  3990  02F3  30FF               	movlw	255
  3991  02F4  07C7               	addwf	___flmul@temp+1,f
  3992  02F5                     l2722:
  3993  02F5  1FC4               	btfss	___flmul@prod+2,7
  3994  02F6  2AF8               	goto	u3101
  3995  02F7  2AF9               	goto	u3100
  3996  02F8                     u3101:
  3997  02F8  2AD8               	goto	l2712
  3998  02F9                     u3100:
  3999  02F9                     l2724:
  4000  02F9  01BC               	clrf	___flmul@aexp
  4001  02FA                     l2726:
  4002  02FA  1FC0               	btfss	___flmul@grs+3,7
  4003  02FB  2AFD               	goto	u3111
  4004  02FC  2AFE               	goto	u3110
  4005  02FD                     u3111:
  4006  02FD  2B1A               	goto	l2734
  4007  02FE                     u3110:
  4008  02FE                     l2728:
  4009  02FE  30FF               	movlw	255
  4010  02FF  053D               	andwf	___flmul@grs,w
  4011  0300  00B6               	movwf	??___flmul
  4012  0301  30FF               	movlw	255
  4013  0302  053E               	andwf	___flmul@grs+1,w
  4014  0303  00B7               	movwf	??___flmul+1
  4015  0304  30FF               	movlw	255
  4016  0305  053F               	andwf	___flmul@grs+2,w
  4017  0306  00B8               	movwf	??___flmul+2
  4018  0307  307F               	movlw	127
  4019  0308  0540               	andwf	___flmul@grs+3,w
  4020  0309  00B9               	movwf	??___flmul+3
  4021  030A  0839               	movf	??___flmul+3,w
  4022  030B  0438               	iorwf	??___flmul+2,w
  4023  030C  0437               	iorwf	??___flmul+1,w
  4024  030D  0436               	iorwf	??___flmul,w
  4025  030E  1903               	skipnz
  4026  030F  2B11               	goto	u3121
  4027  0310  2B12               	goto	u3120
  4028  0311                     u3121:
  4029  0311  2B15               	goto	l715
  4030  0312                     u3120:
  4031  0312                     l2730:
  4032  0312  01BC               	clrf	___flmul@aexp
  4033  0313  0ABC               	incf	___flmul@aexp,f
  4034  0314  2B1A               	goto	l2734
  4035  0315                     l715:
  4036  0315  1C42               	btfss	___flmul@prod,0
  4037  0316  2B18               	goto	u3131
  4038  0317  2B19               	goto	u3130
  4039  0318                     u3131:
  4040  0318  2B1A               	goto	l2734
  4041  0319                     u3130:
  4042  0319  2B12               	goto	l2730
  4043  031A                     l2734:
  4044  031A  083C               	movf	___flmul@aexp,w
  4045  031B  1903               	btfsc	3,2
  4046  031C  2B1E               	goto	u3141
  4047  031D  2B1F               	goto	u3140
  4048  031E                     u3141:
  4049  031E  2B50               	goto	l2744
  4050  031F                     u3140:
  4051  031F                     l2736:
  4052  031F  3001               	movlw	1
  4053  0320  07C2               	addwf	___flmul@prod,f
  4054  0321  3000               	movlw	0
  4055  0322  1803               	skipnc
  4056  0323  3001               	movlw	1
  4057  0324  07C3               	addwf	___flmul@prod+1,f
  4058  0325  3000               	movlw	0
  4059  0326  1803               	skipnc
  4060  0327  3001               	movlw	1
  4061  0328  07C4               	addwf	___flmul@prod+2,f
  4062  0329  3000               	movlw	0
  4063  032A  1803               	skipnc
  4064  032B  3001               	movlw	1
  4065  032C  07C5               	addwf	___flmul@prod+3,f
  4066  032D                     l2738:
  4067  032D  1C45               	btfss	___flmul@prod+3,0
  4068  032E  2B30               	goto	u3151
  4069  032F  2B31               	goto	u3150
  4070  0330                     u3151:
  4071  0330  2B50               	goto	l2744
  4072  0331                     u3150:
  4073  0331                     l2740:
  4074  0331  0842               	movf	___flmul@prod,w
  4075  0332  00B6               	movwf	??___flmul
  4076  0333  0843               	movf	___flmul@prod+1,w
  4077  0334  00B7               	movwf	??___flmul+1
  4078  0335  0844               	movf	___flmul@prod+2,w
  4079  0336  00B8               	movwf	??___flmul+2
  4080  0337  0845               	movf	___flmul@prod+3,w
  4081  0338  00B9               	movwf	??___flmul+3
  4082  0339  3001               	movlw	1
  4083  033A  00BA               	movwf	??___flmul+4
  4084  033B                     u3165:
  4085  033B  0D39               	rlf	??___flmul+3,w
  4086  033C  0CB9               	rrf	??___flmul+3,f
  4087  033D  0CB8               	rrf	??___flmul+2,f
  4088  033E  0CB7               	rrf	??___flmul+1,f
  4089  033F  0CB6               	rrf	??___flmul,f
  4090  0340                     u3160:
  4091  0340  0BBA               	decfsz	??___flmul+4,f
  4092  0341  2B3B               	goto	u3165
  4093  0342  0839               	movf	??___flmul+3,w
  4094  0343  00C5               	movwf	___flmul@prod+3
  4095  0344  0838               	movf	??___flmul+2,w
  4096  0345  00C4               	movwf	___flmul@prod+2
  4097  0346  0837               	movf	??___flmul+1,w
  4098  0347  00C3               	movwf	___flmul@prod+1
  4099  0348  0836               	movf	??___flmul,w
  4100  0349  00C2               	movwf	___flmul@prod
  4101  034A                     l2742:
  4102  034A  3001               	movlw	1
  4103  034B  07C6               	addwf	___flmul@temp,f
  4104  034C  1803               	skipnc
  4105  034D  0AC7               	incf	___flmul@temp+1,f
  4106  034E  3000               	movlw	0
  4107  034F  07C7               	addwf	___flmul@temp+1,f
  4108  0350                     l2744:
  4109  0350  0847               	movf	___flmul@temp+1,w
  4110  0351  3A80               	xorlw	128
  4111  0352  00FF               	movwf	btemp+1
  4112  0353  3080               	movlw	128
  4113  0354  027F               	subwf	btemp+1,w
  4114  0355  1D03               	skipz
  4115  0356  2B59               	goto	u3175
  4116  0357  30FF               	movlw	255
  4117  0358  0246               	subwf	___flmul@temp,w
  4118  0359                     u3175:
  4119  0359  1C03               	skipc
  4120  035A  2B5C               	goto	u3171
  4121  035B  2B5D               	goto	u3170
  4122  035C                     u3171:
  4123  035C  2B68               	goto	l2748
  4124  035D                     u3170:
  4125  035D                     l2746:
  4126  035D  307F               	movlw	127
  4127  035E  1283               	bcf	3,5	;RP0=0, select bank0
  4128  035F  1303               	bcf	3,6	;RP1=0, select bank0
  4129  0360  00C5               	movwf	___flmul@prod+3
  4130  0361  3080               	movlw	128
  4131  0362  00C4               	movwf	___flmul@prod+2
  4132  0363  3000               	movlw	0
  4133  0364  00C3               	movwf	___flmul@prod+1
  4134  0365  3000               	movlw	0
  4135  0366  00C2               	movwf	___flmul@prod
  4136  0367  2B9D               	goto	l721
  4137  0368                     l2748:
  4138  0368  1283               	bcf	3,5	;RP0=0, select bank0
  4139  0369  1303               	bcf	3,6	;RP1=0, select bank0
  4140  036A  0847               	movf	___flmul@temp+1,w
  4141  036B  3A80               	xorlw	128
  4142  036C  00FF               	movwf	btemp+1
  4143  036D  3080               	movlw	128
  4144  036E  027F               	subwf	btemp+1,w
  4145  036F  1D03               	skipz
  4146  0370  2B73               	goto	u3185
  4147  0371  3001               	movlw	1
  4148  0372  0246               	subwf	___flmul@temp,w
  4149  0373                     u3185:
  4150  0373  1803               	skipnc
  4151  0374  2B76               	goto	u3181
  4152  0375  2B77               	goto	u3180
  4153  0376                     u3181:
  4154  0376  2B83               	goto	l2754
  4155  0377                     u3180:
  4156  0377                     l2750:
  4157  0377  3000               	movlw	0
  4158  0378  1283               	bcf	3,5	;RP0=0, select bank0
  4159  0379  1303               	bcf	3,6	;RP1=0, select bank0
  4160  037A  00C5               	movwf	___flmul@prod+3
  4161  037B  3000               	movlw	0
  4162  037C  00C4               	movwf	___flmul@prod+2
  4163  037D  3000               	movlw	0
  4164  037E  00C3               	movwf	___flmul@prod+1
  4165  037F  3000               	movlw	0
  4166  0380  00C2               	movwf	___flmul@prod
  4167  0381                     l2752:
  4168  0381  01BB               	clrf	___flmul@sign
  4169  0382  2B9D               	goto	l721
  4170  0383                     l2754:
  4171  0383  1283               	bcf	3,5	;RP0=0, select bank0
  4172  0384  1303               	bcf	3,6	;RP1=0, select bank0
  4173  0385  0846               	movf	___flmul@temp,w
  4174  0386  00B6               	movwf	??___flmul
  4175  0387  0836               	movf	??___flmul,w
  4176  0388  00C1               	movwf	___flmul@bexp
  4177  0389  30FF               	movlw	255
  4178  038A  05C2               	andwf	___flmul@prod,f
  4179  038B  30FF               	movlw	255
  4180  038C  05C3               	andwf	___flmul@prod+1,f
  4181  038D  307F               	movlw	127
  4182  038E  05C4               	andwf	___flmul@prod+2,f
  4183  038F  3000               	movlw	0
  4184  0390  05C5               	andwf	___flmul@prod+3,f
  4185  0391                     l2756:
  4186  0391  1C41               	btfss	___flmul@bexp,0
  4187  0392  2B94               	goto	u3191
  4188  0393  2B95               	goto	u3190
  4189  0394                     u3191:
  4190  0394  2B96               	goto	l2760
  4191  0395                     u3190:
  4192  0395                     l2758:
  4193  0395  17C4               	bsf	___flmul@prod+2,7
  4194  0396                     l2760:
  4195  0396  0841               	movf	___flmul@bexp,w
  4196  0397  00B6               	movwf	??___flmul
  4197  0398  1003               	clrc
  4198  0399  0C36               	rrf	??___flmul,w
  4199  039A  00B7               	movwf	??___flmul+1
  4200  039B  0837               	movf	??___flmul+1,w
  4201  039C  00C5               	movwf	___flmul@prod+3
  4202  039D                     l721:
  4203  039D  083B               	movf	___flmul@sign,w
  4204  039E  00B6               	movwf	??___flmul
  4205  039F  0836               	movf	??___flmul,w
  4206  03A0  04C5               	iorwf	___flmul@prod+3,f
  4207  03A1                     l2762:
  4208  03A1  0845               	movf	___flmul@prod+3,w
  4209  03A2  00B1               	movwf	?___flmul+3
  4210  03A3  0844               	movf	___flmul@prod+2,w
  4211  03A4  00B0               	movwf	?___flmul+2
  4212  03A5  0843               	movf	___flmul@prod+1,w
  4213  03A6  00AF               	movwf	?___flmul+1
  4214  03A7  0842               	movf	___flmul@prod,w
  4215  03A8  00AE               	movwf	?___flmul
  4216  03A9                     l709:
  4217  03A9  0008               	return
  4218  03AA                     __end_of___flmul:
  4219                           
  4220                           	psect	text9
  4221  0A8B                     __ptext9:	
  4222 ;; *************** function __Umul8_16 *****************
  4223 ;; Defined at:
  4224 ;;		line 4 in file "C:\Program Files\Microchip\xc8\v2.31\pic\sources\c90\common\Umul8_16.c"
  4225 ;; Parameters:    Size  Location     Type
  4226 ;;  multiplier      1    wreg     unsigned char 
  4227 ;;  multiplicand    1    0[BANK0 ] unsigned char 
  4228 ;; Auto vars:     Size  Location     Type
  4229 ;;  multiplier      1    8[BANK0 ] unsigned char 
  4230 ;;  word_mpld       2    6[BANK0 ] unsigned int 
  4231 ;;  product         2    4[BANK0 ] unsigned int 
  4232 ;; Return value:  Size  Location     Type
  4233 ;;                  2    0[BANK0 ] unsigned int 
  4234 ;; Registers used:
  4235 ;;		wreg, status,2, status,0
  4236 ;; Tracked objects:
  4237 ;;		On entry : 0/0
  4238 ;;		On exit  : 0/0
  4239 ;;		Unchanged: 0/0
  4240 ;; Data sizes:     COMMON   BANK0   BANK1   BANK3   BANK2
  4241 ;;      Params:         0       2       0       0       0
  4242 ;;      Locals:         0       5       0       0       0
  4243 ;;      Temps:          0       2       0       0       0
  4244 ;;      Totals:         0       9       0       0       0
  4245 ;;Total ram usage:        9 bytes
  4246 ;; Hardware stack levels used:    1
  4247 ;; Hardware stack levels required when called:    1
  4248 ;; This function calls:
  4249 ;;		Nothing
  4250 ;; This function is called by:
  4251 ;;		___flmul
  4252 ;; This function uses a non-reentrant model
  4253 ;;
  4254                           
  4255                           
  4256                           ;psect for function __Umul8_16
  4257  0A8B                     __Umul8_16:
  4258                           
  4259                           ;incstack = 0
  4260                           ; Regs used in __Umul8_16: [wreg+status,2+status,0]
  4261                           ;__Umul8_16@multiplier stored from wreg
  4262  0A8B  1283               	bcf	3,5	;RP0=0, select bank0
  4263  0A8C  1303               	bcf	3,6	;RP1=0, select bank0
  4264  0A8D  00A8               	movwf	__Umul8_16@multiplier
  4265  0A8E                     l2602:
  4266  0A8E  01A4               	clrf	__Umul8_16@product
  4267  0A8F  01A5               	clrf	__Umul8_16@product+1
  4268  0A90                     l2604:
  4269  0A90  0820               	movf	__Umul8_16@multiplicand,w
  4270  0A91  00A2               	movwf	??__Umul8_16
  4271  0A92  01A3               	clrf	??__Umul8_16+1
  4272  0A93  0822               	movf	??__Umul8_16,w
  4273  0A94  00A6               	movwf	__Umul8_16@word_mpld
  4274  0A95  0823               	movf	??__Umul8_16+1,w
  4275  0A96  00A7               	movwf	__Umul8_16@word_mpld+1
  4276  0A97                     l2606:
  4277  0A97  1C28               	btfss	__Umul8_16@multiplier,0
  4278  0A98  2A9A               	goto	u2791
  4279  0A99  2A9B               	goto	u2790
  4280  0A9A                     u2791:
  4281  0A9A  2AA1               	goto	l728
  4282  0A9B                     u2790:
  4283  0A9B                     l2608:
  4284  0A9B  0826               	movf	__Umul8_16@word_mpld,w
  4285  0A9C  07A4               	addwf	__Umul8_16@product,f
  4286  0A9D  1803               	skipnc
  4287  0A9E  0AA5               	incf	__Umul8_16@product+1,f
  4288  0A9F  0827               	movf	__Umul8_16@word_mpld+1,w
  4289  0AA0  07A5               	addwf	__Umul8_16@product+1,f
  4290  0AA1                     l728:
  4291  0AA1  3001               	movlw	1
  4292  0AA2                     u2805:
  4293  0AA2  1003               	clrc
  4294  0AA3  0DA6               	rlf	__Umul8_16@word_mpld,f
  4295  0AA4  0DA7               	rlf	__Umul8_16@word_mpld+1,f
  4296  0AA5  3EFF               	addlw	-1
  4297  0AA6  1D03               	skipz
  4298  0AA7  2AA2               	goto	u2805
  4299  0AA8  1003               	clrc
  4300  0AA9  0CA8               	rrf	__Umul8_16@multiplier,f
  4301  0AAA                     l2610:
  4302  0AAA  0828               	movf	__Umul8_16@multiplier,w
  4303  0AAB  1D03               	btfss	3,2
  4304  0AAC  2AAE               	goto	u2811
  4305  0AAD  2AAF               	goto	u2810
  4306  0AAE                     u2811:
  4307  0AAE  2A97               	goto	l2606
  4308  0AAF                     u2810:
  4309  0AAF                     l2612:
  4310  0AAF  0825               	movf	__Umul8_16@product+1,w
  4311  0AB0  00A1               	movwf	?__Umul8_16+1
  4312  0AB1  0824               	movf	__Umul8_16@product,w
  4313  0AB2  00A0               	movwf	?__Umul8_16
  4314  0AB3                     l730:
  4315  0AB3  0008               	return
  4316  0AB4                     __end_of__Umul8_16:
  4317                           
  4318                           	psect	text10
  4319  03AA                     __ptext10:	
  4320 ;; *************** function ___fladd *****************
  4321 ;; Defined at:
  4322 ;;		line 10 in file "C:\Program Files\Microchip\xc8\v2.31\pic\sources\c90\common\sprcadd.c"
  4323 ;; Parameters:    Size  Location     Type
  4324 ;;  b               4   40[BANK0 ] unsigned int 
  4325 ;;  a               4   44[BANK0 ] unsigned int 
  4326 ;; Auto vars:     Size  Location     Type
  4327 ;;  grs             1   59[BANK0 ] unsigned char 
  4328 ;;  bexp            1   58[BANK0 ] unsigned char 
  4329 ;;  aexp            1   57[BANK0 ] unsigned char 
  4330 ;;  signs           1   56[BANK0 ] unsigned char 
  4331 ;; Return value:  Size  Location     Type
  4332 ;;                  4   40[BANK0 ] unsigned char 
  4333 ;; Registers used:
  4334 ;;		wreg, status,2, status,0, btemp+1
  4335 ;; Tracked objects:
  4336 ;;		On entry : 0/0
  4337 ;;		On exit  : 0/0
  4338 ;;		Unchanged: 0/0
  4339 ;; Data sizes:     COMMON   BANK0   BANK1   BANK3   BANK2
  4340 ;;      Params:         0       8       0       0       0
  4341 ;;      Locals:         0       4       0       0       0
  4342 ;;      Temps:          0       8       0       0       0
  4343 ;;      Totals:         0      20       0       0       0
  4344 ;;Total ram usage:       20 bytes
  4345 ;; Hardware stack levels used:    1
  4346 ;; Hardware stack levels required when called:    1
  4347 ;; This function calls:
  4348 ;;		Nothing
  4349 ;; This function is called by:
  4350 ;;		_main
  4351 ;;		_ANALOGICOS
  4352 ;; This function uses a non-reentrant model
  4353 ;;
  4354                           
  4355                           
  4356                           ;psect for function ___fladd
  4357  03AA                     ___fladd:
  4358  03AA                     l1768:	
  4359                           ;incstack = 0
  4360                           ; Regs used in ___fladd: [wreg+status,2+status,0+btemp+1]
  4361                           
  4362  03AA  1283               	bcf	3,5	;RP0=0, select bank0
  4363  03AB  1303               	bcf	3,6	;RP1=0, select bank0
  4364  03AC  084B               	movf	___fladd@b+3,w
  4365  03AD  3980               	andlw	128
  4366  03AE  00D0               	movwf	??___fladd
  4367  03AF  0850               	movf	??___fladd,w
  4368  03B0  00D8               	movwf	___fladd@signs
  4369  03B1                     l1770:
  4370  03B1  084B               	movf	___fladd@b+3,w
  4371  03B2  00D0               	movwf	??___fladd
  4372  03B3  0750               	addwf	??___fladd,w
  4373  03B4  00D1               	movwf	??___fladd+1
  4374  03B5  0851               	movf	??___fladd+1,w
  4375  03B6  00DA               	movwf	___fladd@bexp
  4376  03B7                     l1772:
  4377  03B7  1FCA               	btfss	___fladd@b+2,7
  4378  03B8  2BBA               	goto	u1541
  4379  03B9  2BBB               	goto	u1540
  4380  03BA                     u1541:
  4381  03BA  2BBC               	goto	l1776
  4382  03BB                     u1540:
  4383  03BB                     l1774:
  4384  03BB  145A               	bsf	___fladd@bexp,0
  4385  03BC                     l1776:
  4386  03BC  085A               	movf	___fladd@bexp,w
  4387  03BD  1903               	btfsc	3,2
  4388  03BE  2BC0               	goto	u1551
  4389  03BF  2BC1               	goto	u1550
  4390  03C0                     u1551:
  4391  03C0  2BD1               	goto	l1786
  4392  03C1                     u1550:
  4393  03C1                     l1778:
  4394  03C1  0A5A               	incf	___fladd@bexp,w
  4395  03C2  1D03               	btfss	3,2
  4396  03C3  2BC5               	goto	u1561
  4397  03C4  2BC6               	goto	u1560
  4398  03C5                     u1561:
  4399  03C5  2BCE               	goto	l1782
  4400  03C6                     u1560:
  4401  03C6                     l1780:
  4402  03C6  3000               	movlw	0
  4403  03C7  00CB               	movwf	___fladd@b+3
  4404  03C8  3000               	movlw	0
  4405  03C9  00CA               	movwf	___fladd@b+2
  4406  03CA  3000               	movlw	0
  4407  03CB  00C9               	movwf	___fladd@b+1
  4408  03CC  3000               	movlw	0
  4409  03CD  00C8               	movwf	___fladd@b
  4410  03CE                     l1782:
  4411  03CE  17CA               	bsf	___fladd@b+2,7
  4412  03CF                     l1784:
  4413  03CF  01CB               	clrf	___fladd@b+3
  4414  03D0  2BD9               	goto	l1788
  4415  03D1                     l1786:
  4416  03D1  3000               	movlw	0
  4417  03D2  00CB               	movwf	___fladd@b+3
  4418  03D3  3000               	movlw	0
  4419  03D4  00CA               	movwf	___fladd@b+2
  4420  03D5  3000               	movlw	0
  4421  03D6  00C9               	movwf	___fladd@b+1
  4422  03D7  3000               	movlw	0
  4423  03D8  00C8               	movwf	___fladd@b
  4424  03D9                     l1788:
  4425  03D9  084F               	movf	___fladd@a+3,w
  4426  03DA  3980               	andlw	128
  4427  03DB  00D0               	movwf	??___fladd
  4428  03DC  0850               	movf	??___fladd,w
  4429  03DD  00D9               	movwf	___fladd@aexp
  4430  03DE                     l1790:
  4431  03DE  0859               	movf	___fladd@aexp,w
  4432  03DF  0658               	xorwf	___fladd@signs,w
  4433  03E0  1903               	skipnz
  4434  03E1  2BE3               	goto	u1571
  4435  03E2  2BE4               	goto	u1570
  4436  03E3                     u1571:
  4437  03E3  2BE5               	goto	l1794
  4438  03E4                     u1570:
  4439  03E4                     l1792:
  4440  03E4  1758               	bsf	___fladd@signs,6
  4441  03E5                     l1794:
  4442  03E5  084F               	movf	___fladd@a+3,w
  4443  03E6  00D0               	movwf	??___fladd
  4444  03E7  0750               	addwf	??___fladd,w
  4445  03E8  00D1               	movwf	??___fladd+1
  4446  03E9  0851               	movf	??___fladd+1,w
  4447  03EA  00D9               	movwf	___fladd@aexp
  4448  03EB                     l1796:
  4449  03EB  1FCE               	btfss	___fladd@a+2,7
  4450  03EC  2BEE               	goto	u1581
  4451  03ED  2BEF               	goto	u1580
  4452  03EE                     u1581:
  4453  03EE  2BF0               	goto	l1800
  4454  03EF                     u1580:
  4455  03EF                     l1798:
  4456  03EF  1459               	bsf	___fladd@aexp,0
  4457  03F0                     l1800:
  4458  03F0  0859               	movf	___fladd@aexp,w
  4459  03F1  1903               	btfsc	3,2
  4460  03F2  2BF4               	goto	u1591
  4461  03F3  2BF5               	goto	u1590
  4462  03F4                     u1591:
  4463  03F4  2C05               	goto	l1810
  4464  03F5                     u1590:
  4465  03F5                     l1802:
  4466  03F5  0A59               	incf	___fladd@aexp,w
  4467  03F6  1D03               	btfss	3,2
  4468  03F7  2BF9               	goto	u1601
  4469  03F8  2BFA               	goto	u1600
  4470  03F9                     u1601:
  4471  03F9  2C02               	goto	l1806
  4472  03FA                     u1600:
  4473  03FA                     l1804:
  4474  03FA  3000               	movlw	0
  4475  03FB  00CF               	movwf	___fladd@a+3
  4476  03FC  3000               	movlw	0
  4477  03FD  00CE               	movwf	___fladd@a+2
  4478  03FE  3000               	movlw	0
  4479  03FF  00CD               	movwf	___fladd@a+1
  4480  0400  3000               	movlw	0
  4481  0401  00CC               	movwf	___fladd@a
  4482  0402                     l1806:
  4483  0402  17CE               	bsf	___fladd@a+2,7
  4484  0403                     l1808:
  4485  0403  01CF               	clrf	___fladd@a+3
  4486  0404  2C0D               	goto	l613
  4487  0405                     l1810:
  4488  0405  3000               	movlw	0
  4489  0406  00CF               	movwf	___fladd@a+3
  4490  0407  3000               	movlw	0
  4491  0408  00CE               	movwf	___fladd@a+2
  4492  0409  3000               	movlw	0
  4493  040A  00CD               	movwf	___fladd@a+1
  4494  040B  3000               	movlw	0
  4495  040C  00CC               	movwf	___fladd@a
  4496  040D                     l613:
  4497  040D  085A               	movf	___fladd@bexp,w
  4498  040E  0259               	subwf	___fladd@aexp,w
  4499  040F  1803               	skipnc
  4500  0410  2C12               	goto	u1611
  4501  0411  2C13               	goto	u1610
  4502  0412                     u1611:
  4503  0412  2C57               	goto	l1846
  4504  0413                     u1610:
  4505  0413                     l1812:
  4506  0413  1F58               	btfss	___fladd@signs,6
  4507  0414  2C16               	goto	u1621
  4508  0415  2C17               	goto	u1620
  4509  0416                     u1621:
  4510  0416  2C1B               	goto	l1816
  4511  0417                     u1620:
  4512  0417                     l1814:
  4513  0417  3080               	movlw	128
  4514  0418  00D0               	movwf	??___fladd
  4515  0419  0850               	movf	??___fladd,w
  4516  041A  06D8               	xorwf	___fladd@signs,f
  4517  041B                     l1816:
  4518  041B  085A               	movf	___fladd@bexp,w
  4519  041C  00D0               	movwf	??___fladd
  4520  041D  0850               	movf	??___fladd,w
  4521  041E  00DB               	movwf	___fladd@grs
  4522  041F                     l1818:
  4523  041F  0859               	movf	___fladd@aexp,w
  4524  0420  00D0               	movwf	??___fladd
  4525  0421  0850               	movf	??___fladd,w
  4526  0422  00DA               	movwf	___fladd@bexp
  4527  0423                     l1820:
  4528  0423  085B               	movf	___fladd@grs,w
  4529  0424  00D0               	movwf	??___fladd
  4530  0425  0850               	movf	??___fladd,w
  4531  0426  00D9               	movwf	___fladd@aexp
  4532  0427                     l1822:
  4533  0427  0848               	movf	___fladd@b,w
  4534  0428  00D0               	movwf	??___fladd
  4535  0429  0850               	movf	??___fladd,w
  4536  042A  00DB               	movwf	___fladd@grs
  4537  042B                     l1824:
  4538  042B  084C               	movf	___fladd@a,w
  4539  042C  00D0               	movwf	??___fladd
  4540  042D  0850               	movf	??___fladd,w
  4541  042E  00C8               	movwf	___fladd@b
  4542  042F                     l1826:
  4543  042F  085B               	movf	___fladd@grs,w
  4544  0430  00D0               	movwf	??___fladd
  4545  0431  0850               	movf	??___fladd,w
  4546  0432  00CC               	movwf	___fladd@a
  4547  0433                     l1828:
  4548  0433  0849               	movf	___fladd@b+1,w
  4549  0434  00D0               	movwf	??___fladd
  4550  0435  0850               	movf	??___fladd,w
  4551  0436  00DB               	movwf	___fladd@grs
  4552  0437                     l1830:
  4553  0437  084D               	movf	___fladd@a+1,w
  4554  0438  00D0               	movwf	??___fladd
  4555  0439  0850               	movf	??___fladd,w
  4556  043A  00C9               	movwf	___fladd@b+1
  4557  043B                     l1832:
  4558  043B  085B               	movf	___fladd@grs,w
  4559  043C  00D0               	movwf	??___fladd
  4560  043D  0850               	movf	??___fladd,w
  4561  043E  00CD               	movwf	___fladd@a+1
  4562  043F                     l1834:
  4563  043F  084A               	movf	___fladd@b+2,w
  4564  0440  00D0               	movwf	??___fladd
  4565  0441  0850               	movf	??___fladd,w
  4566  0442  00DB               	movwf	___fladd@grs
  4567  0443                     l1836:
  4568  0443  084E               	movf	___fladd@a+2,w
  4569  0444  00D0               	movwf	??___fladd
  4570  0445  0850               	movf	??___fladd,w
  4571  0446  00CA               	movwf	___fladd@b+2
  4572  0447                     l1838:
  4573  0447  085B               	movf	___fladd@grs,w
  4574  0448  00D0               	movwf	??___fladd
  4575  0449  0850               	movf	??___fladd,w
  4576  044A  00CE               	movwf	___fladd@a+2
  4577  044B                     l1840:
  4578  044B  084B               	movf	___fladd@b+3,w
  4579  044C  00D0               	movwf	??___fladd
  4580  044D  0850               	movf	??___fladd,w
  4581  044E  00DB               	movwf	___fladd@grs
  4582  044F                     l1842:
  4583  044F  084F               	movf	___fladd@a+3,w
  4584  0450  00D0               	movwf	??___fladd
  4585  0451  0850               	movf	??___fladd,w
  4586  0452  00CB               	movwf	___fladd@b+3
  4587  0453                     l1844:
  4588  0453  085B               	movf	___fladd@grs,w
  4589  0454  00D0               	movwf	??___fladd
  4590  0455  0850               	movf	??___fladd,w
  4591  0456  00CF               	movwf	___fladd@a+3
  4592  0457                     l1846:
  4593  0457  01DB               	clrf	___fladd@grs
  4594  0458                     l1848:
  4595  0458  0859               	movf	___fladd@aexp,w
  4596  0459  00D0               	movwf	??___fladd
  4597  045A  01D1               	clrf	??___fladd+1
  4598  045B  0851               	movf	??___fladd+1,w
  4599  045C  00D3               	movwf	??___fladd+3
  4600  045D  085A               	movf	___fladd@bexp,w
  4601  045E  0250               	subwf	??___fladd,w
  4602  045F  00D2               	movwf	??___fladd+2
  4603  0460  1C03               	skipc
  4604  0461  03D3               	decf	??___fladd+3,f
  4605  0462  0853               	movf	??___fladd+3,w
  4606  0463  3A80               	xorlw	128
  4607  0464  00FF               	movwf	btemp+1
  4608  0465  3080               	movlw	128
  4609  0466  027F               	subwf	btemp+1,w
  4610  0467  1D03               	skipz
  4611  0468  2C6B               	goto	u1635
  4612  0469  301A               	movlw	26
  4613  046A  0252               	subwf	??___fladd+2,w
  4614  046B                     u1635:
  4615  046B  1C03               	skipc
  4616  046C  2C6E               	goto	u1631
  4617  046D  2C6F               	goto	u1630
  4618  046E                     u1631:
  4619  046E  2CAC               	goto	l1864
  4620  046F                     u1630:
  4621  046F                     l1850:
  4622  046F  1283               	bcf	3,5	;RP0=0, select bank0
  4623  0470  1303               	bcf	3,6	;RP1=0, select bank0
  4624  0471  084B               	movf	___fladd@b+3,w
  4625  0472  044A               	iorwf	___fladd@b+2,w
  4626  0473  0449               	iorwf	___fladd@b+1,w
  4627  0474  0448               	iorwf	___fladd@b,w
  4628  0475  1D03               	skipz
  4629  0476  2C78               	goto	u1641
  4630  0477  2C7A               	goto	u1640
  4631  0478                     u1641:
  4632  0478  3001               	movlw	1
  4633  0479  2C7B               	goto	u1650
  4634  047A                     u1640:
  4635  047A  3000               	movlw	0
  4636  047B                     u1650:
  4637  047B  00D0               	movwf	??___fladd
  4638  047C  0850               	movf	??___fladd,w
  4639  047D  00DB               	movwf	___fladd@grs
  4640  047E  3000               	movlw	0
  4641  047F  00CB               	movwf	___fladd@b+3
  4642  0480  3000               	movlw	0
  4643  0481  00CA               	movwf	___fladd@b+2
  4644  0482  3000               	movlw	0
  4645  0483  00C9               	movwf	___fladd@b+1
  4646  0484  3000               	movlw	0
  4647  0485  00C8               	movwf	___fladd@b
  4648  0486  0859               	movf	___fladd@aexp,w
  4649  0487  00D0               	movwf	??___fladd
  4650  0488  0850               	movf	??___fladd,w
  4651  0489  00DA               	movwf	___fladd@bexp
  4652  048A  2CB4               	goto	l617
  4653  048B                     l619:
  4654  048B  1C5B               	btfss	___fladd@grs,0
  4655  048C  2C8E               	goto	u1661
  4656  048D  2C8F               	goto	u1660
  4657  048E                     u1661:
  4658  048E  2C98               	goto	l1854
  4659  048F                     u1660:
  4660  048F                     l1852:
  4661  048F  085B               	movf	___fladd@grs,w
  4662  0490  00D0               	movwf	??___fladd
  4663  0491  1003               	clrc
  4664  0492  0C50               	rrf	??___fladd,w
  4665  0493  3801               	iorlw	1
  4666  0494  00D1               	movwf	??___fladd+1
  4667  0495  0851               	movf	??___fladd+1,w
  4668  0496  00DB               	movwf	___fladd@grs
  4669  0497  2C9A               	goto	l1856
  4670  0498                     l1854:
  4671  0498  1003               	clrc
  4672  0499  0CDB               	rrf	___fladd@grs,f
  4673  049A                     l1856:
  4674  049A  1C48               	btfss	___fladd@b,0
  4675  049B  2C9D               	goto	u1671
  4676  049C  2C9E               	goto	u1670
  4677  049D                     u1671:
  4678  049D  2C9F               	goto	l1860
  4679  049E                     u1670:
  4680  049E                     l1858:
  4681  049E  17DB               	bsf	___fladd@grs,7
  4682  049F                     l1860:
  4683  049F  3001               	movlw	1
  4684  04A0  00D0               	movwf	??___fladd
  4685  04A1                     u1685:
  4686  04A1  0D4B               	rlf	___fladd@b+3,w
  4687  04A2  0CCB               	rrf	___fladd@b+3,f
  4688  04A3  0CCA               	rrf	___fladd@b+2,f
  4689  04A4  0CC9               	rrf	___fladd@b+1,f
  4690  04A5  0CC8               	rrf	___fladd@b,f
  4691  04A6  0BD0               	decfsz	??___fladd& (0+127),f
  4692  04A7  2CA1               	goto	u1685
  4693  04A8                     l1862:
  4694  04A8  3001               	movlw	1
  4695  04A9  00D0               	movwf	??___fladd
  4696  04AA  0850               	movf	??___fladd,w
  4697  04AB  07DA               	addwf	___fladd@bexp,f
  4698  04AC                     l1864:
  4699  04AC  1283               	bcf	3,5	;RP0=0, select bank0
  4700  04AD  1303               	bcf	3,6	;RP1=0, select bank0
  4701  04AE  0859               	movf	___fladd@aexp,w
  4702  04AF  025A               	subwf	___fladd@bexp,w
  4703  04B0  1C03               	skipc
  4704  04B1  2CB3               	goto	u1691
  4705  04B2  2CB4               	goto	u1690
  4706  04B3                     u1691:
  4707  04B3  2C8B               	goto	l619
  4708  04B4                     u1690:
  4709  04B4                     l617:
  4710  04B4  1B58               	btfsc	___fladd@signs,6
  4711  04B5  2CB7               	goto	u1701
  4712  04B6  2CB8               	goto	u1700
  4713  04B7                     u1701:
  4714  04B7  2D03               	goto	l1890
  4715  04B8                     u1700:
  4716  04B8                     l1866:
  4717  04B8  085A               	movf	___fladd@bexp,w
  4718  04B9  1D03               	btfss	3,2
  4719  04BA  2CBC               	goto	u1711
  4720  04BB  2CBD               	goto	u1710
  4721  04BC                     u1711:
  4722  04BC  2CC6               	goto	l1872
  4723  04BD                     u1710:
  4724  04BD                     l1868:
  4725  04BD  3000               	movlw	0
  4726  04BE  00CB               	movwf	?___fladd+3
  4727  04BF  3000               	movlw	0
  4728  04C0  00CA               	movwf	?___fladd+2
  4729  04C1  3000               	movlw	0
  4730  04C2  00C9               	movwf	?___fladd+1
  4731  04C3  3000               	movlw	0
  4732  04C4  00C8               	movwf	?___fladd
  4733  04C5  2E31               	goto	l626
  4734  04C6                     l1872:
  4735  04C6  084C               	movf	___fladd@a,w
  4736  04C7  07C8               	addwf	___fladd@b,f
  4737  04C8  084D               	movf	___fladd@a+1,w
  4738  04C9  1103               	clrz
  4739  04CA  1803               	skipnc
  4740  04CB  3E01               	addlw	1
  4741  04CC  1903               	skipnz
  4742  04CD  2CCF               	goto	u1721
  4743  04CE  07C9               	addwf	___fladd@b+1,f
  4744  04CF                     u1721:
  4745  04CF  084E               	movf	___fladd@a+2,w
  4746  04D0  1103               	clrz
  4747  04D1  1803               	skipnc
  4748  04D2  3E01               	addlw	1
  4749  04D3  1903               	skipnz
  4750  04D4  2CD6               	goto	u1722
  4751  04D5  07CA               	addwf	___fladd@b+2,f
  4752  04D6                     u1722:
  4753  04D6  084F               	movf	___fladd@a+3,w
  4754  04D7  1103               	clrz
  4755  04D8  1803               	skipnc
  4756  04D9  3E01               	addlw	1
  4757  04DA  1903               	skipnz
  4758  04DB  2CDD               	goto	u1723
  4759  04DC  07CB               	addwf	___fladd@b+3,f
  4760  04DD                     u1723:
  4761  04DD                     l1874:
  4762  04DD  1C4B               	btfss	___fladd@b+3,0
  4763  04DE  2CE0               	goto	u1731
  4764  04DF  2CE1               	goto	u1730
  4765  04E0                     u1731:
  4766  04E0  2DB7               	goto	l1924
  4767  04E1                     u1730:
  4768  04E1                     l1876:
  4769  04E1  1C5B               	btfss	___fladd@grs,0
  4770  04E2  2CE4               	goto	u1741
  4771  04E3  2CE5               	goto	u1740
  4772  04E4                     u1741:
  4773  04E4  2CEE               	goto	l1880
  4774  04E5                     u1740:
  4775  04E5                     l1878:
  4776  04E5  085B               	movf	___fladd@grs,w
  4777  04E6  00D0               	movwf	??___fladd
  4778  04E7  1003               	clrc
  4779  04E8  0C50               	rrf	??___fladd,w
  4780  04E9  3801               	iorlw	1
  4781  04EA  00D1               	movwf	??___fladd+1
  4782  04EB  0851               	movf	??___fladd+1,w
  4783  04EC  00DB               	movwf	___fladd@grs
  4784  04ED  2CF0               	goto	l1882
  4785  04EE                     l1880:
  4786  04EE  1003               	clrc
  4787  04EF  0CDB               	rrf	___fladd@grs,f
  4788  04F0                     l1882:
  4789  04F0  1C48               	btfss	___fladd@b,0
  4790  04F1  2CF3               	goto	u1751
  4791  04F2  2CF4               	goto	u1750
  4792  04F3                     u1751:
  4793  04F3  2CF5               	goto	l1886
  4794  04F4                     u1750:
  4795  04F4                     l1884:
  4796  04F4  17DB               	bsf	___fladd@grs,7
  4797  04F5                     l1886:
  4798  04F5  3001               	movlw	1
  4799  04F6  00D0               	movwf	??___fladd
  4800  04F7                     u1765:
  4801  04F7  0D4B               	rlf	___fladd@b+3,w
  4802  04F8  0CCB               	rrf	___fladd@b+3,f
  4803  04F9  0CCA               	rrf	___fladd@b+2,f
  4804  04FA  0CC9               	rrf	___fladd@b+1,f
  4805  04FB  0CC8               	rrf	___fladd@b,f
  4806  04FC  0BD0               	decfsz	??___fladd& (0+127),f
  4807  04FD  2CF7               	goto	u1765
  4808  04FE                     l1888:
  4809  04FE  3001               	movlw	1
  4810  04FF  00D0               	movwf	??___fladd
  4811  0500  0850               	movf	??___fladd,w
  4812  0501  07DA               	addwf	___fladd@bexp,f
  4813  0502  2DB7               	goto	l1924
  4814  0503                     l1890:
  4815  0503  084B               	movf	___fladd@b+3,w
  4816  0504  3A80               	xorlw	128
  4817  0505  00FF               	movwf	btemp+1
  4818  0506  084F               	movf	___fladd@a+3,w
  4819  0507  3A80               	xorlw	128
  4820  0508  027F               	subwf	btemp+1,w
  4821  0509  1D03               	skipz
  4822  050A  2D15               	goto	u1773
  4823  050B  084E               	movf	___fladd@a+2,w
  4824  050C  024A               	subwf	___fladd@b+2,w
  4825  050D  1D03               	skipz
  4826  050E  2D15               	goto	u1773
  4827  050F  084D               	movf	___fladd@a+1,w
  4828  0510  0249               	subwf	___fladd@b+1,w
  4829  0511  1D03               	skipz
  4830  0512  2D15               	goto	u1773
  4831  0513  084C               	movf	___fladd@a,w
  4832  0514  0248               	subwf	___fladd@b,w
  4833  0515                     u1773:
  4834  0515  1803               	skipnc
  4835  0516  2D18               	goto	u1771
  4836  0517  2D19               	goto	u1770
  4837  0518                     u1771:
  4838  0518  2D71               	goto	l1900
  4839  0519                     u1770:
  4840  0519                     l1892:
  4841  0519  30FF               	movlw	255
  4842  051A  00D0               	movwf	??___fladd
  4843  051B  30FF               	movlw	255
  4844  051C  00D1               	movwf	??___fladd+1
  4845  051D  30FF               	movlw	255
  4846  051E  00D2               	movwf	??___fladd+2
  4847  051F  30FF               	movlw	255
  4848  0520  00D3               	movwf	??___fladd+3
  4849  0521  084C               	movf	___fladd@a,w
  4850  0522  00D4               	movwf	??___fladd+4
  4851  0523  084D               	movf	___fladd@a+1,w
  4852  0524  00D5               	movwf	??___fladd+5
  4853  0525  084E               	movf	___fladd@a+2,w
  4854  0526  00D6               	movwf	??___fladd+6
  4855  0527  084F               	movf	___fladd@a+3,w
  4856  0528  00D7               	movwf	??___fladd+7
  4857  0529  0848               	movf	___fladd@b,w
  4858  052A  02D4               	subwf	??___fladd+4,f
  4859  052B  0849               	movf	___fladd@b+1,w
  4860  052C  1C03               	skipc
  4861  052D  0F49               	incfsz	___fladd@b+1,w
  4862  052E  2D30               	goto	u1781
  4863  052F  2D31               	goto	u1782
  4864  0530                     u1781:
  4865  0530  02D5               	subwf	??___fladd+5,f
  4866  0531                     u1782:
  4867  0531  084A               	movf	___fladd@b+2,w
  4868  0532  1C03               	skipc
  4869  0533  0F4A               	incfsz	___fladd@b+2,w
  4870  0534  2D36               	goto	u1783
  4871  0535  2D37               	goto	u1784
  4872  0536                     u1783:
  4873  0536  02D6               	subwf	??___fladd+6,f
  4874  0537                     u1784:
  4875  0537  084B               	movf	___fladd@b+3,w
  4876  0538  1C03               	skipc
  4877  0539  0F4B               	incfsz	___fladd@b+3,w
  4878  053A  2D3C               	goto	u1785
  4879  053B  2D3D               	goto	u1786
  4880  053C                     u1785:
  4881  053C  02D7               	subwf	??___fladd+7,f
  4882  053D                     u1786:
  4883  053D  0854               	movf	??___fladd+4,w
  4884  053E  07D0               	addwf	??___fladd,f
  4885  053F  0855               	movf	??___fladd+5,w
  4886  0540  1803               	skipnc
  4887  0541  0F55               	incfsz	??___fladd+5,w
  4888  0542  2D44               	goto	u1790
  4889  0543  2D45               	goto	u1791
  4890  0544                     u1790:
  4891  0544  07D1               	addwf	??___fladd+1,f
  4892  0545                     u1791:
  4893  0545  0856               	movf	??___fladd+6,w
  4894  0546  1803               	skipnc
  4895  0547  0F56               	incfsz	??___fladd+6,w
  4896  0548  2D4A               	goto	u1792
  4897  0549  2D4B               	goto	u1793
  4898  054A                     u1792:
  4899  054A  07D2               	addwf	??___fladd+2,f
  4900  054B                     u1793:
  4901  054B  0857               	movf	??___fladd+7,w
  4902  054C  1803               	skipnc
  4903  054D  0A57               	incf	??___fladd+7,w
  4904  054E  07D3               	addwf	??___fladd+3,f
  4905  054F  0853               	movf	??___fladd+3,w
  4906  0550  00CB               	movwf	___fladd@b+3
  4907  0551  0852               	movf	??___fladd+2,w
  4908  0552  00CA               	movwf	___fladd@b+2
  4909  0553  0851               	movf	??___fladd+1,w
  4910  0554  00C9               	movwf	___fladd@b+1
  4911  0555  0850               	movf	??___fladd,w
  4912  0556  00C8               	movwf	___fladd@b
  4913  0557                     l1894:
  4914  0557  3080               	movlw	128
  4915  0558  00D0               	movwf	??___fladd
  4916  0559  0850               	movf	??___fladd,w
  4917  055A  06D8               	xorwf	___fladd@signs,f
  4918  055B  09DB               	comf	___fladd@grs,f
  4919  055C  0ADB               	incf	___fladd@grs,f
  4920  055D                     l1896:
  4921  055D  085B               	movf	___fladd@grs,w
  4922  055E  1D03               	btfss	3,2
  4923  055F  2D61               	goto	u1801
  4924  0560  2D62               	goto	u1800
  4925  0561                     u1801:
  4926  0561  2D7F               	goto	l634
  4927  0562                     u1800:
  4928  0562                     l1898:
  4929  0562  3001               	movlw	1
  4930  0563  07C8               	addwf	___fladd@b,f
  4931  0564  3000               	movlw	0
  4932  0565  1803               	skipnc
  4933  0566  3001               	movlw	1
  4934  0567  07C9               	addwf	___fladd@b+1,f
  4935  0568  3000               	movlw	0
  4936  0569  1803               	skipnc
  4937  056A  3001               	movlw	1
  4938  056B  07CA               	addwf	___fladd@b+2,f
  4939  056C  3000               	movlw	0
  4940  056D  1803               	skipnc
  4941  056E  3001               	movlw	1
  4942  056F  07CB               	addwf	___fladd@b+3,f
  4943  0570  2D7F               	goto	l634
  4944  0571                     l1900:
  4945  0571  084C               	movf	___fladd@a,w
  4946  0572  02C8               	subwf	___fladd@b,f
  4947  0573  084D               	movf	___fladd@a+1,w
  4948  0574  1C03               	skipc
  4949  0575  0F4D               	incfsz	___fladd@a+1,w
  4950  0576  02C9               	subwf	___fladd@b+1,f
  4951  0577  084E               	movf	___fladd@a+2,w
  4952  0578  1C03               	skipc
  4953  0579  0F4E               	incfsz	___fladd@a+2,w
  4954  057A  02CA               	subwf	___fladd@b+2,f
  4955  057B  084F               	movf	___fladd@a+3,w
  4956  057C  1C03               	skipc
  4957  057D  0F4F               	incfsz	___fladd@a+3,w
  4958  057E  02CB               	subwf	___fladd@b+3,f
  4959  057F                     l634:
  4960  057F  084B               	movf	___fladd@b+3,w
  4961  0580  044A               	iorwf	___fladd@b+2,w
  4962  0581  0449               	iorwf	___fladd@b+1,w
  4963  0582  0448               	iorwf	___fladd@b,w
  4964  0583  1D03               	skipz
  4965  0584  2D86               	goto	u1811
  4966  0585  2D87               	goto	u1810
  4967  0586                     u1811:
  4968  0586  2DB3               	goto	l1922
  4969  0587                     u1810:
  4970  0587                     l1902:
  4971  0587  085B               	movf	___fladd@grs,w
  4972  0588  1D03               	btfss	3,2
  4973  0589  2D8B               	goto	u1821
  4974  058A  2D8C               	goto	u1820
  4975  058B                     u1821:
  4976  058B  2DB3               	goto	l1922
  4977  058C                     u1820:
  4978  058C                     l1904:
  4979  058C  3000               	movlw	0
  4980  058D  00CB               	movwf	?___fladd+3
  4981  058E  3000               	movlw	0
  4982  058F  00CA               	movwf	?___fladd+2
  4983  0590  3000               	movlw	0
  4984  0591  00C9               	movwf	?___fladd+1
  4985  0592  3000               	movlw	0
  4986  0593  00C8               	movwf	?___fladd
  4987  0594  2E31               	goto	l626
  4988  0595                     l1908:
  4989  0595  3001               	movlw	1
  4990  0596  00D0               	movwf	??___fladd
  4991  0597                     u1835:
  4992  0597  1003               	clrc
  4993  0598  0DC8               	rlf	___fladd@b,f
  4994  0599  0DC9               	rlf	___fladd@b+1,f
  4995  059A  0DCA               	rlf	___fladd@b+2,f
  4996  059B  0DCB               	rlf	___fladd@b+3,f
  4997  059C  0BD0               	decfsz	??___fladd,f
  4998  059D  2D97               	goto	u1835
  4999  059E                     l1910:
  5000  059E  1FDB               	btfss	___fladd@grs,7
  5001  059F  2DA1               	goto	u1841
  5002  05A0  2DA2               	goto	u1840
  5003  05A1                     u1841:
  5004  05A1  2DA3               	goto	l638
  5005  05A2                     u1840:
  5006  05A2                     l1912:
  5007  05A2  1448               	bsf	___fladd@b,0
  5008  05A3                     l638:
  5009  05A3  1C5B               	btfss	___fladd@grs,0
  5010  05A4  2DA6               	goto	u1851
  5011  05A5  2DA7               	goto	u1850
  5012  05A6                     u1851:
  5013  05A6  2DAA               	goto	l1916
  5014  05A7                     u1850:
  5015  05A7                     l1914:
  5016  05A7  1403               	setc
  5017  05A8  0DDB               	rlf	___fladd@grs,f
  5018  05A9  2DAC               	goto	l1918
  5019  05AA                     l1916:
  5020  05AA  1003               	clrc
  5021  05AB  0DDB               	rlf	___fladd@grs,f
  5022  05AC                     l1918:
  5023  05AC  085A               	movf	___fladd@bexp,w
  5024  05AD  1903               	btfsc	3,2
  5025  05AE  2DB0               	goto	u1861
  5026  05AF  2DB1               	goto	u1860
  5027  05B0                     u1861:
  5028  05B0  2DB3               	goto	l1922
  5029  05B1                     u1860:
  5030  05B1                     l1920:
  5031  05B1  3001               	movlw	1
  5032  05B2  02DA               	subwf	___fladd@bexp,f
  5033  05B3                     l1922:
  5034  05B3  1FCA               	btfss	___fladd@b+2,7
  5035  05B4  2DB6               	goto	u1871
  5036  05B5  2DB7               	goto	u1870
  5037  05B6                     u1871:
  5038  05B6  2D95               	goto	l1908
  5039  05B7                     u1870:
  5040  05B7                     l1924:
  5041  05B7  01D9               	clrf	___fladd@aexp
  5042  05B8                     l1926:
  5043  05B8  1FDB               	btfss	___fladd@grs,7
  5044  05B9  2DBB               	goto	u1881
  5045  05BA  2DBC               	goto	u1880
  5046  05BB                     u1881:
  5047  05BB  2DCA               	goto	l1934
  5048  05BC                     u1880:
  5049  05BC                     l1928:
  5050  05BC  085B               	movf	___fladd@grs,w
  5051  05BD  397F               	andlw	127
  5052  05BE  1903               	btfsc	3,2
  5053  05BF  2DC1               	goto	u1891
  5054  05C0  2DC2               	goto	u1890
  5055  05C1                     u1891:
  5056  05C1  2DC5               	goto	l644
  5057  05C2                     u1890:
  5058  05C2                     l1930:
  5059  05C2  01D9               	clrf	___fladd@aexp
  5060  05C3  0AD9               	incf	___fladd@aexp,f
  5061  05C4  2DCA               	goto	l1934
  5062  05C5                     l644:
  5063  05C5  1C48               	btfss	___fladd@b,0
  5064  05C6  2DC8               	goto	u1901
  5065  05C7  2DC9               	goto	u1900
  5066  05C8                     u1901:
  5067  05C8  2DCA               	goto	l1934
  5068  05C9                     u1900:
  5069  05C9  2DC2               	goto	l1930
  5070  05CA                     l1934:
  5071  05CA  0859               	movf	___fladd@aexp,w
  5072  05CB  1903               	btfsc	3,2
  5073  05CC  2DCE               	goto	u1911
  5074  05CD  2DCF               	goto	u1910
  5075  05CE                     u1911:
  5076  05CE  2E03               	goto	l647
  5077  05CF                     u1910:
  5078  05CF                     l1936:
  5079  05CF  3001               	movlw	1
  5080  05D0  07C8               	addwf	___fladd@b,f
  5081  05D1  3000               	movlw	0
  5082  05D2  1803               	skipnc
  5083  05D3  3001               	movlw	1
  5084  05D4  07C9               	addwf	___fladd@b+1,f
  5085  05D5  3000               	movlw	0
  5086  05D6  1803               	skipnc
  5087  05D7  3001               	movlw	1
  5088  05D8  07CA               	addwf	___fladd@b+2,f
  5089  05D9  3000               	movlw	0
  5090  05DA  1803               	skipnc
  5091  05DB  3001               	movlw	1
  5092  05DC  07CB               	addwf	___fladd@b+3,f
  5093  05DD                     l1938:
  5094  05DD  1C4B               	btfss	___fladd@b+3,0
  5095  05DE  2DE0               	goto	u1921
  5096  05DF  2DE1               	goto	u1920
  5097  05E0                     u1921:
  5098  05E0  2E03               	goto	l647
  5099  05E1                     u1920:
  5100  05E1                     l1940:
  5101  05E1  0848               	movf	___fladd@b,w
  5102  05E2  00D0               	movwf	??___fladd
  5103  05E3  0849               	movf	___fladd@b+1,w
  5104  05E4  00D1               	movwf	??___fladd+1
  5105  05E5  084A               	movf	___fladd@b+2,w
  5106  05E6  00D2               	movwf	??___fladd+2
  5107  05E7  084B               	movf	___fladd@b+3,w
  5108  05E8  00D3               	movwf	??___fladd+3
  5109  05E9  3001               	movlw	1
  5110  05EA  00D4               	movwf	??___fladd+4
  5111  05EB                     u1935:
  5112  05EB  0D53               	rlf	??___fladd+3,w
  5113  05EC  0CD3               	rrf	??___fladd+3,f
  5114  05ED  0CD2               	rrf	??___fladd+2,f
  5115  05EE  0CD1               	rrf	??___fladd+1,f
  5116  05EF  0CD0               	rrf	??___fladd,f
  5117  05F0                     u1930:
  5118  05F0  0BD4               	decfsz	??___fladd+4,f
  5119  05F1  2DEB               	goto	u1935
  5120  05F2  0853               	movf	??___fladd+3,w
  5121  05F3  00CB               	movwf	___fladd@b+3
  5122  05F4  0852               	movf	??___fladd+2,w
  5123  05F5  00CA               	movwf	___fladd@b+2
  5124  05F6  0851               	movf	??___fladd+1,w
  5125  05F7  00C9               	movwf	___fladd@b+1
  5126  05F8  0850               	movf	??___fladd,w
  5127  05F9  00C8               	movwf	___fladd@b
  5128  05FA  0A5A               	incf	___fladd@bexp,w
  5129  05FB  1903               	btfsc	3,2
  5130  05FC  2DFE               	goto	u1941
  5131  05FD  2DFF               	goto	u1940
  5132  05FE                     u1941:
  5133  05FE  2E03               	goto	l647
  5134  05FF                     u1940:
  5135  05FF                     l1942:
  5136  05FF  3001               	movlw	1
  5137  0600  00D0               	movwf	??___fladd
  5138  0601  0850               	movf	??___fladd,w
  5139  0602  07DA               	addwf	___fladd@bexp,f
  5140  0603                     l647:
  5141  0603  0A5A               	incf	___fladd@bexp,w
  5142  0604  1903               	btfsc	3,2
  5143  0605  2E07               	goto	u1951
  5144  0606  2E08               	goto	u1950
  5145  0607                     u1951:
  5146  0607  2E0D               	goto	l1946
  5147  0608                     u1950:
  5148  0608                     l1944:
  5149  0608  085A               	movf	___fladd@bexp,w
  5150  0609  1D03               	btfss	3,2
  5151  060A  2E0C               	goto	u1961
  5152  060B  2E0D               	goto	u1960
  5153  060C                     u1961:
  5154  060C  2E1B               	goto	l1952
  5155  060D                     u1960:
  5156  060D                     l1946:
  5157  060D  3000               	movlw	0
  5158  060E  00CB               	movwf	___fladd@b+3
  5159  060F  3000               	movlw	0
  5160  0610  00CA               	movwf	___fladd@b+2
  5161  0611  3000               	movlw	0
  5162  0612  00C9               	movwf	___fladd@b+1
  5163  0613  3000               	movlw	0
  5164  0614  00C8               	movwf	___fladd@b
  5165  0615                     l1948:
  5166  0615  085A               	movf	___fladd@bexp,w
  5167  0616  1D03               	btfss	3,2
  5168  0617  2E19               	goto	u1971
  5169  0618  2E1A               	goto	u1970
  5170  0619                     u1971:
  5171  0619  2E1B               	goto	l1952
  5172  061A                     u1970:
  5173  061A                     l1950:
  5174  061A  01D8               	clrf	___fladd@signs
  5175  061B                     l1952:
  5176  061B  1C5A               	btfss	___fladd@bexp,0
  5177  061C  2E1E               	goto	u1981
  5178  061D  2E1F               	goto	u1980
  5179  061E                     u1981:
  5180  061E  2E21               	goto	l1956
  5181  061F                     u1980:
  5182  061F                     l1954:
  5183  061F  17CA               	bsf	___fladd@b+2,7
  5184  0620  2E25               	goto	l655
  5185  0621                     l1956:
  5186  0621  307F               	movlw	127
  5187  0622  00D0               	movwf	??___fladd
  5188  0623  0850               	movf	??___fladd,w
  5189  0624  05CA               	andwf	___fladd@b+2,f
  5190  0625                     l655:
  5191  0625  085A               	movf	___fladd@bexp,w
  5192  0626  00D0               	movwf	??___fladd
  5193  0627  1003               	clrc
  5194  0628  0C50               	rrf	??___fladd,w
  5195  0629  00D1               	movwf	??___fladd+1
  5196  062A  0851               	movf	??___fladd+1,w
  5197  062B  00CB               	movwf	___fladd@b+3
  5198  062C                     l1958:
  5199  062C  1FD8               	btfss	___fladd@signs,7
  5200  062D  2E2F               	goto	u1991
  5201  062E  2E30               	goto	u1990
  5202  062F                     u1991:
  5203  062F  2E31               	goto	l656
  5204  0630                     u1990:
  5205  0630                     l1960:
  5206  0630  17CB               	bsf	___fladd@b+3,7
  5207  0631                     l656:
  5208  0631                     l626:
  5209  0631  0008               	return
  5210  0632                     __end_of___fladd:
  5211                           
  5212                           	psect	text11
  5213  0BA9                     __ptext11:	
  5214 ;; *************** function _isr *****************
  5215 ;; Defined at:
  5216 ;;		line 64 in file "main.c"
  5217 ;; Parameters:    Size  Location     Type
  5218 ;;		None
  5219 ;; Auto vars:     Size  Location     Type
  5220 ;;		None
  5221 ;; Return value:  Size  Location     Type
  5222 ;;                  1    wreg      void 
  5223 ;; Registers used:
  5224 ;;		wreg, status,2, btemp+1
  5225 ;; Tracked objects:
  5226 ;;		On entry : 0/0
  5227 ;;		On exit  : 0/0
  5228 ;;		Unchanged: 0/0
  5229 ;; Data sizes:     COMMON   BANK0   BANK1   BANK3   BANK2
  5230 ;;      Params:         0       0       0       0       0
  5231 ;;      Locals:         0       0       0       0       0
  5232 ;;      Temps:          5       0       0       0       0
  5233 ;;      Totals:         5       0       0       0       0
  5234 ;;Total ram usage:        5 bytes
  5235 ;; Hardware stack levels used:    1
  5236 ;; This function calls:
  5237 ;;		Nothing
  5238 ;; This function is called by:
  5239 ;;		Interrupt level 1
  5240 ;; This function uses a non-reentrant model
  5241 ;;
  5242                           
  5243                           
  5244                           ;psect for function _isr
  5245  0BA9                     _isr:
  5246  0BA9                     i1l2342:
  5247                           
  5248                           ;main.c: 65:     (INTCONbits.GIE = 0);
  5249  0BA9  138B               	bcf	11,7	;volatile
  5250                           
  5251                           ;main.c: 66:     if (T0IF == 1){
  5252  0BAA  1D0B               	btfss	11,2	;volatile
  5253  0BAB  2BAD               	goto	u257_21
  5254  0BAC  2BAE               	goto	u257_20
  5255  0BAD                     u257_21:
  5256  0BAD  2BEA               	goto	i1l143
  5257  0BAE                     u257_20:
  5258  0BAE                     i1l2344:
  5259                           
  5260                           ;main.c: 67:         TMR0 = 206;
  5261  0BAE  30CE               	movlw	206
  5262  0BAF  0081               	movwf	1	;volatile
  5263                           
  5264                           ;main.c: 68:         PWM3++;
  5265  0BB0  3001               	movlw	1
  5266  0BB1  07F7               	addwf	_PWM3,f
  5267  0BB2  1803               	skipnc
  5268  0BB3  0AF8               	incf	_PWM3+1,f
  5269  0BB4  3000               	movlw	0
  5270  0BB5  07F8               	addwf	_PWM3+1,f
  5271  0BB6                     i1l2346:
  5272                           
  5273                           ;main.c: 70:         if (PWM3>= 25){
  5274  0BB6  0878               	movf	_PWM3+1,w
  5275  0BB7  3A80               	xorlw	128
  5276  0BB8  00FF               	movwf	btemp+1
  5277  0BB9  3080               	movlw	128
  5278  0BBA  027F               	subwf	btemp+1,w
  5279  0BBB  1D03               	skipz
  5280  0BBC  2BBF               	goto	u258_25
  5281  0BBD  3019               	movlw	25
  5282  0BBE  0277               	subwf	_PWM3,w
  5283  0BBF                     u258_25:
  5284  0BBF  1C03               	skipc
  5285  0BC0  2BC2               	goto	u258_21
  5286  0BC1  2BC3               	goto	u258_20
  5287  0BC2                     u258_21:
  5288  0BC2  2BC5               	goto	i1l2350
  5289  0BC3                     u258_20:
  5290  0BC3                     i1l2348:
  5291                           
  5292                           ;main.c: 71:           PWM3 = 0;}
  5293  0BC3  01F7               	clrf	_PWM3
  5294  0BC4  01F8               	clrf	_PWM3+1
  5295  0BC5                     i1l2350:
  5296                           
  5297                           ;main.c: 72:           if (PWM3 >= POT0){
  5298  0BC5  0876               	movf	_POT0+1,w
  5299  0BC6  0278               	subwf	_PWM3+1,w
  5300  0BC7  1D03               	skipz
  5301  0BC8  2BCB               	goto	u259_25
  5302  0BC9  0875               	movf	_POT0,w
  5303  0BCA  0277               	subwf	_PWM3,w
  5304  0BCB                     u259_25:
  5305  0BCB  1C03               	skipc
  5306  0BCC  2BCE               	goto	u259_21
  5307  0BCD  2BCF               	goto	u259_20
  5308  0BCE                     u259_21:
  5309  0BCE  2BD3               	goto	i1l145
  5310  0BCF                     u259_20:
  5311  0BCF                     i1l2352:
  5312                           
  5313                           ;main.c: 73:            PORTCbits.RC3 = 0;
  5314  0BCF  1283               	bcf	3,5	;RP0=0, select bank0
  5315  0BD0  1303               	bcf	3,6	;RP1=0, select bank0
  5316  0BD1  1187               	bcf	7,3	;volatile
  5317                           
  5318                           ;main.c: 74:            }
  5319  0BD2  2BD6               	goto	i1l2354
  5320  0BD3                     i1l145:	
  5321                           ;main.c: 75:           else {
  5322                           
  5323                           
  5324                           ;main.c: 76:            PORTCbits.RC3 = 1;
  5325  0BD3  1283               	bcf	3,5	;RP0=0, select bank0
  5326  0BD4  1303               	bcf	3,6	;RP1=0, select bank0
  5327  0BD5  1587               	bsf	7,3	;volatile
  5328  0BD6                     i1l2354:
  5329                           
  5330                           ;main.c: 78:         if (PWM3 >= POT3){
  5331  0BD6  1683               	bsf	3,5	;RP0=1, select bank1
  5332  0BD7  1303               	bcf	3,6	;RP1=0, select bank1
  5333  0BD8  082B               	movf	(_POT3+1)^(0+128),w
  5334  0BD9  0278               	subwf	_PWM3+1,w
  5335  0BDA  1D03               	skipz
  5336  0BDB  2BDE               	goto	u260_25
  5337  0BDC  082A               	movf	_POT3^(0+128),w
  5338  0BDD  0277               	subwf	_PWM3,w
  5339  0BDE                     u260_25:
  5340  0BDE  1C03               	skipc
  5341  0BDF  2BE1               	goto	u260_21
  5342  0BE0  2BE2               	goto	u260_20
  5343  0BE1                     u260_21:
  5344  0BE1  2BE6               	goto	i1l147
  5345  0BE2                     u260_20:
  5346  0BE2                     i1l2356:
  5347                           
  5348                           ;main.c: 79:            PORTCbits.RC0 = 0;
  5349  0BE2  1283               	bcf	3,5	;RP0=0, select bank0
  5350  0BE3  1303               	bcf	3,6	;RP1=0, select bank0
  5351  0BE4  1007               	bcf	7,0	;volatile
  5352                           
  5353                           ;main.c: 80:            }
  5354  0BE5  2BE9               	goto	i1l148
  5355  0BE6                     i1l147:	
  5356                           ;main.c: 81:           else {
  5357                           
  5358                           
  5359                           ;main.c: 82:            PORTCbits.RC0 = 1;
  5360  0BE6  1283               	bcf	3,5	;RP0=0, select bank0
  5361  0BE7  1303               	bcf	3,6	;RP1=0, select bank0
  5362  0BE8  1407               	bsf	7,0	;volatile
  5363  0BE9                     i1l148:	
  5364                           ;main.c: 83:            }
  5365                           
  5366                           
  5367                           ;main.c: 84:           INTCONbits.T0IF = 0;
  5368  0BE9  110B               	bcf	11,2	;volatile
  5369  0BEA                     i1l143:	
  5370                           ;main.c: 85:     }
  5371                           
  5372                           
  5373                           ;main.c: 87:     if (ADIF == 1){
  5374  0BEA  1F0C               	btfss	12,6	;volatile
  5375  0BEB  2BED               	goto	u261_21
  5376  0BEC  2BEE               	goto	u261_20
  5377  0BED                     u261_21:
  5378  0BED  2BFA               	goto	i1l2362
  5379  0BEE                     u261_20:
  5380  0BEE                     i1l2358:
  5381                           
  5382                           ;main.c: 88:         VALORAN = ADRESH;
  5383  0BEE  081E               	movf	30,w	;volatile
  5384  0BEF  00F0               	movwf	??_isr
  5385  0BF0  01F1               	clrf	??_isr+1
  5386  0BF1  0870               	movf	??_isr,w
  5387  0BF2  1683               	bsf	3,5	;RP0=1, select bank1
  5388  0BF3  1303               	bcf	3,6	;RP1=0, select bank1
  5389  0BF4  00A8               	movwf	_VALORAN^(0+128)
  5390  0BF5  0871               	movf	??_isr+1,w
  5391  0BF6  00A9               	movwf	(_VALORAN+1)^(0+128)
  5392  0BF7                     i1l2360:
  5393                           
  5394                           ;main.c: 89:         PIR1bits.ADIF = 0;
  5395  0BF7  1283               	bcf	3,5	;RP0=0, select bank0
  5396  0BF8  1303               	bcf	3,6	;RP1=0, select bank0
  5397  0BF9  130C               	bcf	12,6	;volatile
  5398  0BFA                     i1l2362:
  5399                           
  5400                           ;main.c: 102:     if (PIR1bits.RCIF){
  5401  0BFA  1E8C               	btfss	12,5	;volatile
  5402  0BFB  2BFD               	goto	u262_21
  5403  0BFC  2BFE               	goto	u262_20
  5404  0BFD                     u262_21:
  5405  0BFD  2C1B               	goto	i1l2372
  5406  0BFE                     u262_20:
  5407  0BFE                     i1l2364:
  5408                           
  5409                           ;main.c: 103:         if (RCREG >= 97 && RCREG <= 101 ){
  5410  0BFE  3061               	movlw	97
  5411  0BFF  021A               	subwf	26,w	;volatile
  5412  0C00  1C03               	skipc
  5413  0C01  2C03               	goto	u263_21
  5414  0C02  2C04               	goto	u263_20
  5415  0C03                     u263_21:
  5416  0C03  2C14               	goto	i1l2370
  5417  0C04                     u263_20:
  5418  0C04                     i1l2366:
  5419  0C04  3066               	movlw	102
  5420  0C05  021A               	subwf	26,w	;volatile
  5421  0C06  1803               	skipnc
  5422  0C07  2C09               	goto	u264_21
  5423  0C08  2C0A               	goto	u264_20
  5424  0C09                     u264_21:
  5425  0C09  2C14               	goto	i1l2370
  5426  0C0A                     u264_20:
  5427  0C0A                     i1l2368:
  5428                           
  5429                           ;main.c: 104:                 SEL = RCREG; }
  5430  0C0A  081A               	movf	26,w	;volatile
  5431  0C0B  00F0               	movwf	??_isr
  5432  0C0C  01F1               	clrf	??_isr+1
  5433  0C0D  0870               	movf	??_isr,w
  5434  0C0E  1683               	bsf	3,5	;RP0=1, select bank1
  5435  0C0F  1303               	bcf	3,6	;RP1=0, select bank1
  5436  0C10  00A4               	movwf	_SEL^(0+128)
  5437  0C11  0871               	movf	??_isr+1,w
  5438  0C12  00A5               	movwf	(_SEL+1)^(0+128)
  5439  0C13  2C1B               	goto	i1l2372
  5440  0C14                     i1l2370:
  5441                           
  5442                           ;main.c: 106:             DATO = RCREG;
  5443  0C14  081A               	movf	26,w	;volatile
  5444  0C15  00F0               	movwf	??_isr
  5445  0C16  01F1               	clrf	??_isr+1
  5446  0C17  0870               	movf	??_isr,w
  5447  0C18  00ED               	movwf	_DATO
  5448  0C19  0871               	movf	??_isr+1,w
  5449  0C1A  00EE               	movwf	_DATO+1
  5450  0C1B                     i1l2372:
  5451                           
  5452                           ;main.c: 110:     (INTCONbits.GIE = 1);
  5453  0C1B  178B               	bsf	11,7	;volatile
  5454  0C1C                     i1l153:
  5455  0C1C  0874               	movf	??_isr+4,w
  5456  0C1D  1283               	bcf	3,5	;RP0=0, select bank0
  5457  0C1E  00FF               	movwf	btemp+1
  5458  0C1F  0873               	movf	??_isr+3,w
  5459  0C20  008A               	movwf	10
  5460  0C21  0E72               	swapf	??_isr+2,w
  5461  0C22  0083               	movwf	3
  5462  0C23  0EFE               	swapf	btemp,f
  5463  0C24  0E7E               	swapf	btemp,w
  5464  0C25  0009               	retfie
  5465  0C26                     __end_of_isr:
  5466  007E                     btemp	set	126	;btemp
  5467  007E                     wtemp0	set	126
  5468                           
  5469                           	psect	intentry
  5470  0004                     __pintentry:	
  5471                           ;incstack = 0
  5472                           ; Regs used in _isr: [wreg+status,2+btemp+1]
  5473                           
  5474  0004                     interrupt_function:
  5475  007E                     saved_w	set	btemp
  5476  0004  00FE               	movwf	btemp
  5477  0005  0E03               	swapf	3,w
  5478  0006  00F2               	movwf	??_isr+2
  5479  0007  080A               	movf	10,w
  5480  0008  00F3               	movwf	??_isr+3
  5481  0009  1283               	bcf	3,5	;RP0=0, select bank0
  5482  000A  1303               	bcf	3,6	;RP1=0, select bank0
  5483  000B  087F               	movf	btemp+1,w
  5484  000C  00F4               	movwf	??_isr+4
  5485  000D  120A  158A  2BA9   	ljmp	_isr
  5486                           
  5487                           	psect	config
  5488                           
  5489                           ;Config register CONFIG1 @ 0x2007
  5490                           ;	Oscillator Selection bits
  5491                           ;	FOSC = INTRC_CLKOUT, INTOSC oscillator: CLKOUT function on RA6/OSC2/CLKOUT pin, I/O fu
      +                          nction on RA7/OSC1/CLKIN
  5492                           ;	Watchdog Timer Enable bit
  5493                           ;	WDTE = OFF, WDT disabled and can be enabled by SWDTEN bit of the WDTCON register
  5494                           ;	Power-up Timer Enable bit
  5495                           ;	PWRTE = OFF, PWRT disabled
  5496                           ;	RE3/MCLR pin function select bit
  5497                           ;	MCLRE = OFF, RE3/MCLR pin function is digital input, MCLR internally tied to VDD
  5498                           ;	Code Protection bit
  5499                           ;	CP = OFF, Program memory code protection is disabled
  5500                           ;	Data Code Protection bit
  5501                           ;	CPD = OFF, Data memory code protection is disabled
  5502                           ;	Brown Out Reset Selection bits
  5503                           ;	BOREN = OFF, BOR disabled
  5504                           ;	Internal External Switchover bit
  5505                           ;	IESO = OFF, Internal/External Switchover mode is disabled
  5506                           ;	Fail-Safe Clock Monitor Enabled bit
  5507                           ;	FCMEN = OFF, Fail-Safe Clock Monitor is disabled
  5508                           ;	Low Voltage Programming Enable bit
  5509                           ;	LVP = OFF, RB3 pin has digital I/O, HV on MCLR must be used for programming
  5510                           ;	In-Circuit Debugger Mode bit
  5511                           ;	DEBUG = 0x1, unprogrammed default
  5512  2007                     	org	8199
  5513  2007  20D5               	dw	8405
  5514                           
  5515                           ;Config register CONFIG2 @ 0x2008
  5516                           ;	Brown-out Reset Selection bit
  5517                           ;	BOR4V = BOR40V, Brown-out Reset set to 4.0V
  5518                           ;	Flash Program Memory Self Write Enable bits
  5519                           ;	WRT = OFF, Write protection off
  5520  2008                     	org	8200
  5521  2008  3FFF               	dw	16383

Data Sizes:
    Strings     0
    Constant    0
    Data        4
    BSS         22
    Persistent  0
    Stack       0

Auto Spaces:
    Space          Size  Autos    Used
    COMMON           14      5       9
    BANK0            80     73      79
    BANK1            80      5      21
    BANK3            96      0       0
    BANK2            96      0       0

Pointer List with Targets:

    None.

Critical Paths under _main in COMMON

    None.

Critical Paths under _isr in COMMON

    None.

Critical Paths under _main in BANK0

    _main->_ANALOGICOS
    _GUARDAR->_EEPROM_W
    _ANALOGICOS->___fltol
    ___fltol->___fladd
    ___flmul->___xxtofl
    ___fladd->___flmul

Critical Paths under _isr in BANK0

    None.

Critical Paths under _main in BANK1

    _main->_ANALOGICOS

Critical Paths under _isr in BANK1

    None.

Critical Paths under _main in BANK3

    None.

Critical Paths under _isr in BANK3

    None.

Critical Paths under _main in BANK2

    None.

Critical Paths under _isr in BANK2

    None.

Call Graph Tables:

 ---------------------------------------------------------------------------------
 (Depth) Function   	        Calls       Base Space   Used Autos Params    Refs
 ---------------------------------------------------------------------------------
 (0) _main                                                 2     2      0   20881
                                              3 BANK1      2     2      0
                         _ANALOGICOS
                           _EEPROM_R
                            _GUARDAR
                            ___fladd
                            ___flmul
                            ___fltol
                           ___xxtofl
                              _setup
 ---------------------------------------------------------------------------------
 (1) _setup                                                1     1      0       0
                                              0 BANK0      1     1      0
 ---------------------------------------------------------------------------------
 (1) _GUARDAR                                              8     0      8    2681
                                              4 BANK0      8     0      8
                           _EEPROM_W
 ---------------------------------------------------------------------------------
 (2) _EEPROM_W                                             4     0      4    1682
                                              0 BANK0      4     0      4
 ---------------------------------------------------------------------------------
 (1) _EEPROM_R                                             6     4      2     875
                                              0 BANK0      6     4      2
 ---------------------------------------------------------------------------------
 (1) _ANALOGICOS                                           5     3      2    8847
                                             71 BANK0      2     0      2
                                              0 BANK1      3     3      0
                            ___fladd
                            ___flmul
                            ___fltol
                           ___xxtofl
 ---------------------------------------------------------------------------------
 (1) ___xxtofl                                            14    10      4     926
                                              0 BANK0     14    10      4
 ---------------------------------------------------------------------------------
 (1) ___fltol                                             11     7      4     609
                                             60 BANK0     11     7      4
                            ___fladd (ARG)
                            ___flmul (ARG)
                           ___xxtofl (ARG)
 ---------------------------------------------------------------------------------
 (1) ___flmul                                             26    18      8    4073
                                             14 BANK0     26    18      8
                          __Umul8_16
                           ___xxtofl (ARG)
 ---------------------------------------------------------------------------------
 (2) __Umul8_16                                            9     7      2     980
                                              0 BANK0      9     7      2
 ---------------------------------------------------------------------------------
 (1) ___fladd                                             20    12      8    2870
                                             40 BANK0     20    12      8
                            ___flmul (ARG)
                           ___xxtofl (ARG)
 ---------------------------------------------------------------------------------
 Estimated maximum stack depth 2
 ---------------------------------------------------------------------------------
 (Depth) Function   	        Calls       Base Space   Used Autos Params    Refs
 ---------------------------------------------------------------------------------
 (4) _isr                                                  5     5      0       0
                                              0 COMMON     5     5      0
 ---------------------------------------------------------------------------------
 Estimated maximum stack depth 4
 ---------------------------------------------------------------------------------

 Call Graph Graphs:

 _main (ROOT)
   _ANALOGICOS
     ___fladd
       ___flmul (ARG)
         __Umul8_16
         ___xxtofl (ARG)
       ___xxtofl (ARG)
     ___flmul
       __Umul8_16
       ___xxtofl (ARG)
     ___fltol
       ___fladd (ARG)
         ___flmul (ARG)
           __Umul8_16
           ___xxtofl (ARG)
         ___xxtofl (ARG)
       ___flmul (ARG)
         __Umul8_16
         ___xxtofl (ARG)
       ___xxtofl (ARG)
     ___xxtofl
   _EEPROM_R
   _GUARDAR
     _EEPROM_W
   ___fladd
     ___flmul (ARG)
       __Umul8_16
       ___xxtofl (ARG)
     ___xxtofl (ARG)
   ___flmul
     __Umul8_16
     ___xxtofl (ARG)
   ___fltol
     ___fladd (ARG)
       ___flmul (ARG)
         __Umul8_16
         ___xxtofl (ARG)
       ___xxtofl (ARG)
     ___flmul (ARG)
       __Umul8_16
       ___xxtofl (ARG)
     ___xxtofl (ARG)
   ___xxtofl
   _setup

 _isr (ROOT)

 Address spaces:
Name               Size   Autos  Total    Cost      Usage
BANK3               60      0       0       9        0.0%
BITBANK3            60      0       0       8        0.0%
SFR3                 0      0       0       4        0.0%
BITSFR3              0      0       0       4        0.0%
BANK2               60      0       0      11        0.0%
BITBANK2            60      0       0      10        0.0%
SFR2                 0      0       0       5        0.0%
BITSFR2              0      0       0       5        0.0%
BANK1               50      5      15       7       26.2%
BITBANK1            50      0       0       6        0.0%
SFR1                 0      0       0       2        0.0%
BITSFR1              0      0       0       2        0.0%
BANK0               50     49      4F       5       98.8%
BITBANK0            50      0       0       4        0.0%
SFR0                 0      0       0       1        0.0%
BITSFR0              0      0       0       1        0.0%
COMMON               E      5       9       1       64.3%
BITCOMMON            E      0       0       0        0.0%
CODE                 0      0       0       0        0.0%
DATA                 0      0      6D      12        0.0%
ABS                  0      0      6D       3        0.0%
NULL                 0      0       0       0        0.0%
STACK                0      0       0       2        0.0%
EEDATA             100      0       0       0        0.0%


Microchip Technology PIC Macro Assembler V2.31 build 20201012212115 
Symbol Table                                                                                   Thu Jun 03 23:08:03 2021

    __Umul8_16@word_mpld 0026                      l204 0CD2                      l213 0785  
                    l221 0A7F                      l223 0A85                      l224 0A8A  
                    l218 07EF                      l227 0A68                      l173 0FF3  
                    l159 0DE6                      l513 0B93                      l506 0BA8  
                    l516 0BA8                      l196 0B2C                      l613 040D  
                    l617 04B4                      l721 039D                      l634 057F  
                    l626 0631                      l730 0AB3                      l619 048B  
                    l715 0315                      l644 05C5                      l709 03A9  
                    l638 05A3                      l655 0625                      l647 0603  
                    l656 0631                      l728 0AA1                      l753 0CF7  
                    l755 0D8E                      l766 0D58                      l767 0D64  
                    l759 0D3C                      _RB0 0030                      _RB1 0031  
                    _RB4 0034                      _RB5 0035                      _RB6 0036  
                    _RB7 0037                      _PR2 0092                      _SEL 00A4  
    __size_of_ANALOGICOS 01BE                      _isr 0BA9             ___flmul@aexp 003C  
           ___flmul@bexp 0041              GUARDAR@POT0 0024              GUARDAR@POT1 0026  
            GUARDAR@POT2 0028              GUARDAR@POT3 002A             ___flmul@sign 003B  
           ___flmul@temp 0046             ___flmul@prod 0042          __end_of_GUARDAR 0CD3  
           ___fltol@exp1 0066                     l3000 0A4F                     l3002 0A55  
                   l3010 0D95                     l3004 0A58                     l3020 0DD5  
                   l3012 0D97                     l3030 0DF7                     l3014 0DA8  
                   l3022 0DE6                     l3040 0E54                     l3032 0DFB  
                   l3024 0DEC                     l3016 0DAE                     l3008 0D8F  
                   l3050 0E98                     l3042 0E58                     l3034 0E23  
                   l3026 0DF1                     l3018 0DB6                     l3060 0EFF  
                   l3052 0E9D                     l3044 0E5C                     l3036 0E27  
                   l3028 0DF3                     l3230 07E1                     l3070 0F80  
                   l3062 0F55                     l3054 0EA0                     l3046 0E85  
                   l3038 0E2B                     l1800 03F0                     l3224 0FA7  
                   l3072 0F85                     l3080 0F94                     l3064 0F58  
                   l3056 0EA4                     l3048 0E93                     l1802 03F5  
                   l1810 0405                     l2610 0AAA                     l2602 0A8E  
                   l3090 0FF8                     l3226 0FDF                     l3082 0FB2  
                   l3074 0F8A                     l3066 0F5C                     l3058 0EFB  
                   l1900 0571                     l1820 0423                     l1812 0413  
                   l1804 03FA                     l2612 0AAF                     l2604 0A90  
                   l2700 0236                     l1740 0B58                     l1732 0B2D  
                   l2620 0A78                     l3228 0CC7                     l3084 0FD1  
                   l3076 0F8F                     l3068 0F7D                     l1910 059E  
                   l1902 0587                     l1830 0437                     l1822 0427  
                   l1814 0417                     l1806 0402                     l2606 0A97  
                   l2710 02CA                     l2702 0246                     l2630 0056  
                   l1742 0B59                     l1734 0B3A                     l2622 0A79  
                   l1920 05B1                     l1912 05A2                     l1904 058C  
                   l1840 044B                     l1832 043B                     l1824 042B  
                   l1816 041B                     l1808 0403                     l2608 0A9B  
                   l2720 02EF                     l2712 02D8                     l2704 0273  
                   l2640 006D                     l2632 005A                     l1744 0B61  
                   l2800 0D7C                     l2624 0A7E                     l2616 0A69  
                   l3088 0FD8                     l1930 05C2                     l1914 05A7  
                   l1922 05B3                     l1850 046F                     l1842 044F  
                   l1834 043F                     l1826 042F                     l1818 041F  
                   l1770 03B1                     l2730 0312                     l2714 02E1  
                   l2722 02F5                     l2706 0299                     l2650 0086  
                   l2642 006F                     l2634 005B                     l2626 0049  
                   l1762 0B88                     l1754 0B6F                     l1746 0B63  
                   l1738 0B43                     l2802 0D81                     l2618 0A75  
                   l2810 0AB4                     l1940 05E1                     l1916 05AA  
                   l1908 0595                     l1924 05B7                     l1860 049F  
                   l1852 048F                     l1844 0453                     l1836 0443  
                   l1828 0433                     l1780 03C6                     l1772 03B7  
                   l2740 0331                     l2724 02F9                     l2716 02E5  
                   l2708 02C1                     l2660 009B                     l2652 0087  
                   l2644 0077                     l2636 0060                     l2628 0050  
                   l1764 0B98                     l1748 0B67                     l1756 0B81  
                   l2804 0D85                     l2900 0B1B                     l2820 0AC8  
                   l2812 0AC0                     l1950 061A                     l1942 05FF  
                   l1934 05CA                     l1926 05B8                     l1918 05AC  
                   l1862 04A8                     l1854 0498                     l1838 0447  
                   l1846 0457                     l1790 03DE                     l1782 03CE  
                   l1774 03BB                     l2750 0377                     l2742 034A  
                   l2734 031A                     l2726 02FA                     l2718 02E6  
                   l2670 00B6                     l2662 00A3                     l2654 008C  
                   l2646 007C                     l2638 0065                     l1766 0B9D  
                   l2806 0D86                     l2910 0B29                     l2902 0B1E  
                   l2830 0ACF                     l2822 0AC9                     l2814 0AC1  
                   l1960 0630                     l1952 061B                     l1944 0608  
                   l1936 05CF                     l1928 05BC                     l1880 04EE  
                   l1872 04C6                     l1856 049A                     l1864 04AC  
                   l1848 0458                     l1792 03E4                     l1784 03CF  
                   l1776 03BC                     l1768 03AA                     l2760 0396  
                   l2752 0381                     l2736 031F                     l2744 0350  
                   l2728 02FE                     l2680 0138                     l2672 00C6  
                   l2664 00A8                     l2656 0091                     l2648 0082  
                   l2920 068B                     l2912 0B2B                     l2904 0B21  
                   l2840 0ADB                     l2832 0AD0                     l2824 0ACA  
                   l2816 0AC4                     l1954 061F                     l1946 060D  
                   l1938 05DD                     l1882 04F0                     l1874 04DD  
                   l1866 04B8                     l1890 0503                     l1858 049E  
                   l1794 03E5                     l1778 03C1                     l1786 03D1  
                   l2762 03A1                     l2754 0383                     l2746 035D  
                   l2738 032D                     l2690 01A6                     l2682 0154  
                   l2674 00D3                     l2666 00AD                     l2658 0099  
                   l2770 0CDF                     l2930 06F0                     l2922 0692  
                   l2914 0632                     l2906 0B22                     l2850 0AEA  
                   l2842 0ADD                     l2834 0AD1                     l2826 0ACB  
                   l2818 0AC7                     l1956 0621                     l1948 0615  
                   l1892 0519                     l1884 04F4                     l1876 04E1  
                   l1868 04BD                     l1796 03EB                     l1788 03D9  
                   l2756 0391                     l2748 0368                     l2692 01B6  
                   l2684 0170                     l2676 00F0                     l2780 0D0D  
                   l2772 0CEF                     l2940 0755                     l2932 06F7  
                   l2924 0696                     l2916 0633                     l2908 0B25  
                   l2860 0AEF                     l2852 0AEB                     l2844 0AE1  
                   l2836 0AD3                     l2828 0ACE                     l1958 062C  
                   l1894 0557                     l1886 04F5                     l1878 04E5  
                   l1798 03EF                     l2758 0395                     l2694 01D3  
                   l2686 0179                     l2678 010C                     l2790 0D43  
                   l2782 0D1A                     l2774 0CFF                     l2766 0CD6  
                   l2950 078B                     l2942 075C                     l2934 06FB  
                   l2926 06EA                     l2918 0687                     l2870 0B02  
                   l2862 0AF0                     l2854 0AEC                     l2846 0AE5  
                   l2838 0AD7                     l1896 055D                     l1888 04FE  
                   l2696 01EC                     l2688 0189                     l2792 0D4E  
                   l2784 0D21                     l2768 0CDB                     l2952 0798  
                   l2960 07C3                     l2944 0760                     l2936 074F  
                   l2928 06EC                     l2880 0B07                     l2872 0B03  
                   l2864 0AF2                     l2856 0AED                     l2848 0AE9  
                   l1898 0562                     l2698 0209                     l2794 0D52  
                   l2786 0D25                     l2778 0D08                     l2962 07C7  
                   l2954 079F                     l2946 076F                     l2938 0751  
                   l2890 0B0E                     l2882 0B08                     l2874 0B04  
                   l2866 0AF9                     l2858 0AEE                     l2796 0D5C  
                   l2788 0D33                     l2964 07CE                     l2956 07AE  
                   l2948 077E                     l2980 0C53                     l2892 0B11  
                   l2884 0B0B                     l2876 0B05                     l2868 0AFF  
                   l2798 0D66                     l2958 07BD                     l2982 0C5A  
                   l2894 0B14                     l2886 0B0C                     l2878 0B06  
                   l2968 07D2                     l2984 0C87                     l2992 0CC0  
                   l2976 0C26                     l2896 0B17                     l2888 0B0D  
                   l2986 0C8E                     l2978 0C27                     l2898 0B18  
                   l2988 0CBB                     _ADIF 0066                     ?_isr 0070  
                   _DATO 006D                     _T0IF 005A                     u3001 0228  
                   u3002 022F                     u3011 0255                     u3003 0236  
                   u3100 02F9                     u3020 027F                     u3012 025C  
                   u1500 0B87                     _IOCB 0096                     u3101 02F8  
                   u3013 0263                     u1501 0B86                     u3110 02FE  
                   u3111 02FD                     u3031 028B                     u1600 03FA  
                   u3120 0312                     u3040 02A7                     u3032 0292  
                   u1520 0B98                     u1440 0B3A                     u3200 0CDB  
                   u1601 03F9                     u3121 0311                     u3033 0299  
                   u3025 027A                     u1521 0B97                     u1441 0B39  
                   u3201 0CDA                     u1610 0413                     u3130 0319  
                   u1530 0B9D                     u1450 0B51                     u3210 0CDF  
                   u1611 0412                     u3131 0318                     u3051 02B3  
                   u1531 0B9C                     u1515 0B8A                     u3211 0CDE  
                   u1700 04B8                     u1620 0417                     u1540 03BB  
                   u3140 031F                     u3052 02BA                     u1460 0B67  
                   u3300 0D5C                     u3220 0CFF                     u1701 04B7  
                   u1621 0416                     u1541 03BA                     u3141 031E  
                   u3053 02C1                     u3045 02A2                     u1461 0B66  
                   u3301 0D5B                     u3221 0CFE                     u1710 04BD  
                   u1630 046F                     u1550 03C1                     u3150 0331  
                   u1470 0B6E                     u3310 0D71                     u1711 04BC  
                   u1631 046E                     u1551 03C0                     u3151 0330  
                   u1471 0B6D                     u1455 0B4C                     u1800 0562  
                   u1640 047A                     u1560 03C6                     u3160 0340  
                   u3080 02E5                     u3320 0D81                     u3240 0D20  
                   u3400 0DAE                     u1801 0561                     u1721 04CF  
                   u1641 0478                     u1561 03C5                     u3081 02E4  
                   u3065 02C3                     u3321 0D80                     u3241 0D1F  
                   u3401 0DAD                     u1810 0587                     u1730 04E1  
                   u1722 04D6                     u1650 047B                     u1570 03E4  
                   u3170 035D                     u1490 0B80                     u3330 0D85  
                   u3410 0DB6                     u1811 0586                     u1731 04E0  
                   u1723 04DD                     u1635 046B                     u1571 03E3  
                   u3171 035C                     u3075 02DA                     u1491 0B7F  
                   u3331 0D84                     u3315 0D6C                     u3235 0D12  
                   u3411 0DB5                     u1900 05C9                     u1820 058C  
                   u1740 04E5                     u1660 048F                     u1580 03EF  
                   u3180 0377                     u3260 0D42                     u3340 076F  
                   u3500 0E98                     u3420 0DEC                     u1901 05C8  
                   u1821 058B                     u1741 04E4                     u1661 048E  
                   u1581 03EE                     u3181 0376                     u3165 033B  
                   u1485 0B70                     u3261 0D41                     u3341 076E  
                   u3501 0E97                     u3421 0DEB                     u1910 05CF  
                   u1750 04F4                     u1670 049E                     u1590 03F5  
                   u3190 0395                     u3350 077E                     u3510 0E9C  
                   u3430 0DF0                     u1911 05CE                     u1751 04F3  
                   u1671 049D                     u1591 03F4                     u3191 0394  
                   u3175 0359                     u3095 02E8                     u3255 0D34  
                   u3351 077D                     u3511 0E9B                     u3431 0DEF  
                   u1920 05E1                     u1840 05A2                     u3280 0D52  
                   u3360 078B                     u3520 0FF8                     u3440 0DF7  
                   u1921 05E0                     u1841 05A1                     u3185 0373  
                   u3281 0D51                     u3361 078A                     u3345 076B  
                   u3521 0FF7                     u3441 0DF6                     u1930 05F0  
                   u1850 05A7                     u1770 0519                     u1690 04B4  
                   u2810 0AAF                     u3290 0D58                     u3370 0798  
                   u3530 0FFC                     u3450 0DFB                     u1851 05A6  
                   u1835 0597                     u1771 0518                     u1691 04B3  
                   u2811 0AAE                     u3291 0D57                     u3275 0D47  
                   u3371 0797                     u3355 077A                     u3531 0FFB  
                   u3451 0DFA                     u1940 05FF                     u1860 05B1  
                   u2900 00AD                     u3380 07AE                     u2820 0A85  
                   u3460 0E27                     u1941 05FE                     u1861 05B0  
                   u1781 0530                     u1773 0515                     u1765 04F7  
                   u1685 04A1                     u2805 0AA2                     u2901 00AC  
                   u3381 07AD                     u2821 0A84                     u3461 0E26  
                   u1950 0608                     u1870 05B7                     u1790 0544  
                   u1782 0531                     u2830 005A                     u3390 07BD  
                   u3470 0E2B                     u1951 0607                     u1935 05EB  
                   u1871 05B6                     u1791 0545                     u1783 0536  
                   u2911 00FE                     u2831 0059                     u3391 07BC  
                   u3375 0794                     u3471 0E2A                     u1960 060D  
                   u1880 05BC                     u1792 054A                     u1784 0537  
                   u2912 0105                     u2840 0060                     u3480 0E58  
                   u1961 060C                     u1881 05BB                     u1793 054B  
                   u1785 053C                     u2921 011A                     u2913 010C  
                   u2841 005F                     u3385 07AA                     u3481 0E57  
                   u1970 061A                     u1890 05C2                     u1786 053D  
                   u2922 0121                     u2850 0065                     u3490 0E5C  
                   u1971 0619                     u1891 05C1                     u2931 0146  
                   u2923 0128                     u2851 0064                     u3395 07B9  
                   u3547 0AF6                     u3491 0E5B                     u1980 061F  
                   u2932 014D                     u2860 0086                     u1981 061E  
                   u2941 0162                     u2933 0154                     u2861 0085  
                   u3557 068F                     u1990 0630                     u2790 0A9B  
                   u2942 0169                     u2870 008C                     u1991 062F  
                   u2791 0A9A                     u2943 0170                     u2871 008B  
                   u3567 06F4                     u2880 0091                     u2961 0198  
                   u2881 0090                     u3577 0759                     u2962 019F  
                   u2890 00A8                     u2971 01C5                     u2963 01A6  
                   u2955 0172                     u2891 00A7                     u3587 07CB  
                   u2972 01CC                     u2973 01D3                     u2991 01FB  
                   u2992 0202                     u2993 0209                     u2985 01D5  
                   _POT0 0075                     _POT1 006B                     _POT2 0069  
                   _POT3 00AA                     _TMR0 0001                     _PWM3 0077  
                   _WPUB 0095                     _main 0D8F                     btemp 007E  
                   start 0010         __end_of_EEPROM_R 0A69         __end_of_EEPROM_W 0A8B  
                  ??_isr 0070            ___fltol@sign1 0065          __end_of___fladd 0632  
                  ?_main 0070                    _EEADR 010D                    _EEDAT 010C  
        __end_of___flmul 03AA          __end_of___fltol 0BA9                    _ANSEL 0188  
                  _T2CON 0012                    i1l143 0BEA                    i1l153 0C1C  
                  i1l145 0BD3                    i1l147 0BE6                    i1l148 0BE9  
                  _RCREG 001A                    _SEL_G 00A6                    _SPBRG 0099  
                  _PORTA 0005                    _PORTB 0006                    _PORTC 0007  
                  _PORTD 0008                    _PORTE 0009                    _TRISA 0085  
                  _TRISB 0086                    _TRISC 0087                    _TRISD 0088  
                  _TRISE 0089                    _setup 0AB4                    pclath 000A  
                  status 0003                    wtemp0 007E          __initialization 0013  
           __end_of_main 1000                   ??_main 00AF                ??_GUARDAR 0075  
                 _ADRESH 001E                   _EEDATA 010C                   _CCPR1L 0015  
                 _CCPR2L 001B                   _EECON2 018D                   ?_setup 0070  
                 _ANSELH 0189                   i1l2350 0BC5                   i1l2342 0BA9  
                 i1l2360 0BF7                   i1l2352 0BCF                   i1l2344 0BAE  
                 i1l2370 0C14                   i1l2362 0BFA                   i1l2354 0BD6  
                 i1l2346 0BB6                   i1l2364 0BFE                   i1l2372 0C1B  
                 i1l2356 0BE2                   i1l2348 0BC3                   i1l2366 0C04  
                 i1l2358 0BEE                   i1l2368 0C0A                   u260_20 0BE2  
                 u260_21 0BE1                   u260_25 0BDE                   u261_20 0BEE  
                 u261_21 0BED                   u262_20 0BFE                   u262_21 0BFD  
                 u263_20 0C04                   u263_21 0C03                   u264_20 0C0A  
                 u264_21 0C09                   u257_20 0BAE                   u257_21 0BAD  
                 u258_20 0BC3                   u258_21 0BC2                   u258_25 0BBF  
                 u259_20 0BCF                   u259_21 0BCE                   u259_25 0BCB  
                 _SPBRGH 009A             ??_ANALOGICOS 00AC                   _POS_TX 00A0  
       __end_of___xxtofl 0D8F                ??___fladd 0050                ??___flmul 0036  
              ??___fltol 0060       __end_of_ANALOGICOS 07F0       __size_of__Umul8_16 0029  
                 saved_w 007E                ?_EEPROM_R 0020                ?_EEPROM_W 0020  
           ___xxtofl@arg 002A             ___xxtofl@exp 0029             ___xxtofl@val 0020  
__end_of__initialization 0045               ___fltol@f1 005C           __pcstackCOMMON 0070  
           __pidataBANK1 07F0            __end_of_setup 0B2D               ??_EEPROM_R 0022  
             ??_EEPROM_W 0075                  ??_setup 0020               __pbssBANK0 0069  
             __pbssBANK1 00A0        __end_of__Umul8_16 0AB4               __pmaintext 0D8F  
             __pintentry 0004                  _CCP1CON 0017                  _FLAG_TX 00A2  
                _GUARDAR 0C26                ?___xxtofl 0020                  _VALORAN 00A8  
                ___fladd 03AA                  ___flmul 0049                  ___fltol 0B2D  
                __ptext1 0AB4                  __ptext2 0C26                  __ptext3 0A69  
                __ptext4 0A4F                  __ptext5 0632                  __ptext6 0CD3  
                __ptext7 0B2D                  __ptext8 0049                  __ptext9 0A8B  
           __size_of_isr 007D               ??___xxtofl 0024     end_of_initialization 0045  
              _RCSTAbits 0018                _PORTCbits 0007              ___fladd@grs 005B  
          ___xxtofl@sign 0028        __size_of_EEPROM_R 001A        __size_of_EEPROM_W 0022  
            ___flmul@grs 003D              _CCP2CONbits 001D                _TXSTAbits 0098  
            _BAUDCTLbits 0187      start_initialization 0013        ANALOGICOS@VALORAN 0067  
            __end_of_isr 0C26                __Umul8_16 0A8B              __pdataBANK1 00B1  
              ___fladd@a 004C                ___fladd@b 0048                 ?_GUARDAR 0024  
              ___flmul@a 0032                ___flmul@b 002E              __pbssCOMMON 0075  
              ___latbits 0002            __pcstackBANK0 0020            __pcstackBANK1 00AC  
      __size_of___xxtofl 00BC                 ?___fladd 0048                 ?___flmul 002E  
               ?___fltol 005C               ?__Umul8_16 0020                 _EEPROM_R 0A4F  
               _EEPROM_W 0A69           __size_of_setup 0079                 _RB0_FLAG 00B3  
               _RB1_FLAG 00B1        interrupt_function 0004                 _PIE1bits 008C  
               _PIR1bits 000C                 _PIR2bits 000D             EEPROM_R@dato 0024  
           EEPROM_W@dato 0020               _ADCON0bits 001F               _ADCON1bits 009F  
       __size_of_GUARDAR 00AD               _ANALOGICOS 0632               _EECON1bits 018C  
            ??__Umul8_16 0022         __size_of___fladd 0288         __size_of___flmul 0361  
       __size_of___fltol 007C                 ___xxtofl 0CD3                 __ptext10 03AA  
               __ptext11 0BA9            __size_of_main 0271              EEPROM_R@add 0020  
            EEPROM_W@add 0022               _INTCONbits 000B                 intlevel1 0000  
            ?_ANALOGICOS 0067               _OSCCONbits 008F   __Umul8_16@multiplicand 0020  
             _OPTION_REG 0081            ___fladd@signs 0058             ___fladd@aexp 0059  
           ___fladd@bexp 005A     __Umul8_16@multiplier 0028        __Umul8_16@product 0024  
