

Microchip MPLAB XC8 Assembler V2.31 build 20201012212115 
                                                                                               Sat May 29 18:40:26 2021

Microchip MPLAB XC8 C Compiler v2.31 (Free license) build 20201012212115 Og1 
     1                           	processor	16F887
     2                           	pagewidth 120
     3                           	opt	flic
     4                           	psect	idataBANK1,global,class=CODE,delta=2,noexec
     5                           	psect	cinit,global,class=CODE,merge=1,delta=2
     6                           	psect	bssCOMMON,global,class=COMMON,space=1,delta=1,noexec
     7                           	psect	bssBANK0,global,class=BANK0,space=1,delta=1,noexec
     8                           	psect	bssBANK1,global,class=BANK1,space=1,delta=1,noexec
     9                           	psect	dataBANK1,global,class=BANK1,space=1,delta=1,noexec
    10                           	psect	cstackBANK1,global,class=BANK1,space=1,delta=1,noexec
    11                           	psect	cstackCOMMON,global,class=COMMON,space=1,delta=1,noexec
    12                           	psect	cstackBANK0,global,class=BANK0,space=1,delta=1,noexec
    13                           	psect	maintext,global,class=CODE,split=1,delta=2
    14                           	psect	text1,local,class=CODE,merge=1,delta=2
    15                           	psect	text2,local,class=CODE,merge=1,delta=2
    16                           	psect	text3,local,class=CODE,merge=1,delta=2
    17                           	psect	text4,local,class=CODE,merge=1,delta=2
    18                           	psect	text5,local,class=CODE,merge=1,delta=2,group=1
    19                           	psect	text6,local,class=CODE,merge=1,delta=2,group=1
    20                           	psect	text7,local,class=CODE,merge=1,delta=2,group=1
    21                           	psect	text8,local,class=CODE,merge=1,delta=2,group=1
    22                           	psect	text9,local,class=CODE,merge=1,delta=2,group=1
    23                           	psect	text10,local,class=CODE,merge=1,delta=2
    24                           	psect	intentry,global,class=CODE,delta=2
    25                           	psect	config,global,abs,ovrld,class=CONFIG,space=4,delta=2,noexec
    26                           	dabs	1,0x7E,2
    27  0000                     
    28                           ; Version 2.20
    29                           ; Generated 12/02/2020 GMT
    30                           ; 
    31                           ; Copyright © 2020, Microchip Technology Inc. and its subsidiaries ("Microchip")
    32                           ; All rights reserved.
    33                           ; 
    34                           ; This software is developed by Microchip Technology Inc. and its subsidiaries ("Microch
      +                          ip").
    35                           ; 
    36                           ; Redistribution and use in source and binary forms, with or without modification, are
    37                           ; permitted provided that the following conditions are met:
    38                           ; 
    39                           ;     1. Redistributions of source code must retain the above copyright notice, this lis
      +                          t of
    40                           ;        conditions and the following disclaimer.
    41                           ; 
    42                           ;     2. Redistributions in binary form must reproduce the above copyright notice, this 
      +                          list
    43                           ;        of conditions and the following disclaimer in the documentation and/or other
    44                           ;        materials provided with the distribution.
    45                           ; 
    46                           ;     3. Microchip's name may not be used to endorse or promote products derived from th
      +                          is
    47                           ;        software without specific prior written permission.
    48                           ; 
    49                           ; THIS SOFTWARE IS PROVIDED BY MICROCHIP "AS IS" AND ANY EXPRESS OR IMPLIED WARRANTIES,
    50                           ; INCLUDING, BUT NOT LIMITED TO, THE IMPLIED WARRANTIES OF MERCHANTABILITY AND FITNESS F
      +                          OR
    51                           ; PURPOSE ARE DISCLAIMED.  IN NO EVENT SHALL MICROCHIP BE LIABLE FOR ANY DIRECT, INDIREC
      +                          T,
    52                           ; INCIDENTAL, SPECIAL, EXEMPLARY, OR CONSEQUENTIAL DAMAGES (INCLUDING BUT NOT LIMITED TO
    53                           ; PROCUREMENT OF SUBSTITUTE GOODS OR SERVICES; LOSS OF USE, DATA OR PROFITS; OR BUSINESS
    54                           ; INTERRUPTION) HOWSOEVER CAUSED AND ON ANY THEORY OF LIABILITY, WHETHER IN CONTRACT, ST
      +                          RICT
    55                           ; LIABILITY, OR TORT (INCLUDING NEGLIGENCE OR OTHERWISE) ARISING IN ANY WAY OUT OF THE U
      +                          SE OF
    56                           ; THIS SOFTWARE, EVEN IF ADVISED OF THE POSSIBILITY OF SUCH DAMAGE.
    57                           ; 
    58                           ; 
    59                           ; Code-generator required, PIC16F887 Definitions
    60                           ; 
    61                           ; SFR Addresses
    62  0000                     	;# 
    63  0001                     	;# 
    64  0002                     	;# 
    65  0003                     	;# 
    66  0004                     	;# 
    67  0005                     	;# 
    68  0006                     	;# 
    69  0007                     	;# 
    70  0008                     	;# 
    71  0009                     	;# 
    72  000A                     	;# 
    73  000B                     	;# 
    74  000C                     	;# 
    75  000D                     	;# 
    76  000E                     	;# 
    77  000E                     	;# 
    78  000F                     	;# 
    79  0010                     	;# 
    80  0011                     	;# 
    81  0012                     	;# 
    82  0013                     	;# 
    83  0014                     	;# 
    84  0015                     	;# 
    85  0015                     	;# 
    86  0016                     	;# 
    87  0017                     	;# 
    88  0018                     	;# 
    89  0019                     	;# 
    90  001A                     	;# 
    91  001B                     	;# 
    92  001B                     	;# 
    93  001C                     	;# 
    94  001D                     	;# 
    95  001E                     	;# 
    96  001F                     	;# 
    97  0081                     	;# 
    98  0085                     	;# 
    99  0086                     	;# 
   100  0087                     	;# 
   101  0088                     	;# 
   102  0089                     	;# 
   103  008C                     	;# 
   104  008D                     	;# 
   105  008E                     	;# 
   106  008F                     	;# 
   107  0090                     	;# 
   108  0091                     	;# 
   109  0092                     	;# 
   110  0093                     	;# 
   111  0093                     	;# 
   112  0093                     	;# 
   113  0094                     	;# 
   114  0095                     	;# 
   115  0096                     	;# 
   116  0097                     	;# 
   117  0098                     	;# 
   118  0099                     	;# 
   119  009A                     	;# 
   120  009B                     	;# 
   121  009C                     	;# 
   122  009D                     	;# 
   123  009E                     	;# 
   124  009F                     	;# 
   125  0105                     	;# 
   126  0107                     	;# 
   127  0108                     	;# 
   128  0109                     	;# 
   129  010C                     	;# 
   130  010C                     	;# 
   131  010D                     	;# 
   132  010E                     	;# 
   133  010F                     	;# 
   134  0185                     	;# 
   135  0187                     	;# 
   136  0188                     	;# 
   137  0189                     	;# 
   138  018C                     	;# 
   139  018D                     	;# 
   140  0000                     	;# 
   141  0001                     	;# 
   142  0002                     	;# 
   143  0003                     	;# 
   144  0004                     	;# 
   145  0005                     	;# 
   146  0006                     	;# 
   147  0007                     	;# 
   148  0008                     	;# 
   149  0009                     	;# 
   150  000A                     	;# 
   151  000B                     	;# 
   152  000C                     	;# 
   153  000D                     	;# 
   154  000E                     	;# 
   155  000E                     	;# 
   156  000F                     	;# 
   157  0010                     	;# 
   158  0011                     	;# 
   159  0012                     	;# 
   160  0013                     	;# 
   161  0014                     	;# 
   162  0015                     	;# 
   163  0015                     	;# 
   164  0016                     	;# 
   165  0017                     	;# 
   166  0018                     	;# 
   167  0019                     	;# 
   168  001A                     	;# 
   169  001B                     	;# 
   170  001B                     	;# 
   171  001C                     	;# 
   172  001D                     	;# 
   173  001E                     	;# 
   174  001F                     	;# 
   175  0081                     	;# 
   176  0085                     	;# 
   177  0086                     	;# 
   178  0087                     	;# 
   179  0088                     	;# 
   180  0089                     	;# 
   181  008C                     	;# 
   182  008D                     	;# 
   183  008E                     	;# 
   184  008F                     	;# 
   185  0090                     	;# 
   186  0091                     	;# 
   187  0092                     	;# 
   188  0093                     	;# 
   189  0093                     	;# 
   190  0093                     	;# 
   191  0094                     	;# 
   192  0095                     	;# 
   193  0096                     	;# 
   194  0097                     	;# 
   195  0098                     	;# 
   196  0099                     	;# 
   197  009A                     	;# 
   198  009B                     	;# 
   199  009C                     	;# 
   200  009D                     	;# 
   201  009E                     	;# 
   202  009F                     	;# 
   203  0105                     	;# 
   204  0107                     	;# 
   205  0108                     	;# 
   206  0109                     	;# 
   207  010C                     	;# 
   208  010C                     	;# 
   209  010D                     	;# 
   210  010E                     	;# 
   211  010F                     	;# 
   212  0185                     	;# 
   213  0187                     	;# 
   214  0188                     	;# 
   215  0189                     	;# 
   216  018C                     	;# 
   217  018D                     	;# 
   218                           
   219                           	psect	idataBANK1
   220  07F3                     __pidataBANK1:
   221                           
   222                           ;initializer for _RB1_FLAG
   223  07F3  3401               	retlw	1
   224  07F4  3400               	retlw	0
   225                           
   226                           ;initializer for _RB0_FLAG
   227  07F5  3401               	retlw	1
   228  07F6  3400               	retlw	0
   229  000D                     _PIR2bits	set	13
   230  0018                     _RCSTAbits	set	24
   231  001F                     _ADCON0bits	set	31
   232  001D                     _CCP2CONbits	set	29
   233  0017                     _CCP1CON	set	23
   234  0012                     _T2CON	set	18
   235  0007                     _PORTC	set	7
   236  0006                     _PORTB	set	6
   237  0005                     _PORTA	set	5
   238  0008                     _PORTD	set	8
   239  001B                     _CCPR2L	set	27
   240  0015                     _CCPR1L	set	21
   241  0009                     _PORTE	set	9
   242  001A                     _RCREG	set	26
   243  000C                     _PIR1bits	set	12
   244  001E                     _ADRESH	set	30
   245  0007                     _PORTCbits	set	7
   246  0001                     _TMR0	set	1
   247  000B                     _INTCONbits	set	11
   248  0031                     _RB1	set	49
   249  0035                     _RB5	set	53
   250  0034                     _RB4	set	52
   251  0037                     _RB7	set	55
   252  0036                     _RB6	set	54
   253  0030                     _RB0	set	48
   254  0066                     _ADIF	set	102
   255  005A                     _T0IF	set	90
   256  009A                     _SPBRGH	set	154
   257  0099                     _SPBRG	set	153
   258  0098                     _TXSTAbits	set	152
   259  008C                     _PIE1bits	set	140
   260  009F                     _ADCON1bits	set	159
   261  0092                     _PR2	set	146
   262  0096                     _IOCB	set	150
   263  0095                     _WPUB	set	149
   264  0081                     _OPTION_REG	set	129
   265  008F                     _OSCCONbits	set	143
   266  0086                     _TRISB	set	134
   267  0089                     _TRISE	set	137
   268  0088                     _TRISD	set	136
   269  0087                     _TRISC	set	135
   270  0085                     _TRISA	set	133
   271  010C                     _EEDATA	set	268
   272  010C                     _EEDAT	set	268
   273  010D                     _EEADR	set	269
   274  018D                     _EECON2	set	397
   275  018C                     _EECON1bits	set	396
   276  0187                     _BAUDCTLbits	set	391
   277  0189                     _ANSELH	set	393
   278  0188                     _ANSEL	set	392
   279                           
   280                           	psect	cinit
   281  0013                     start_initialization:	
   282                           ; #config settings
   283                           
   284  0013                     __initialization:
   285                           
   286                           ; Initialize objects allocated to BANK1
   287  0013  1683               	bsf	3,5	;RP0=1, select bank1
   288  0014  1303               	bcf	3,6	;RP1=0, select bank1
   289  0015  120A  118A  27F3  120A  118A  	fcall	__pidataBANK1	;fetch initializer
   290  001A  00AD               	movwf	__pdataBANK1& (0+127)
   291  001B  120A  118A  27F4  120A  118A  	fcall	__pidataBANK1+1	;fetch initializer
   292  0020  00AE               	movwf	(__pdataBANK1+1)& (0+127)
   293  0021  120A  118A  27F5  120A  118A  	fcall	__pidataBANK1+2	;fetch initializer
   294  0026  00AF               	movwf	(__pdataBANK1+2)& (0+127)
   295  0027  120A  118A  27F6  120A  118A  	fcall	__pidataBANK1+3	;fetch initializer
   296  002C  00B0               	movwf	(__pdataBANK1+3)& (0+127)
   297                           
   298                           ; Clear objects allocated to BANK1
   299  002D  01A0               	clrf	__pbssBANK1& (0+127)
   300  002E  01A1               	clrf	(__pbssBANK1+1)& (0+127)
   301  002F  01A2               	clrf	(__pbssBANK1+2)& (0+127)
   302  0030  01A3               	clrf	(__pbssBANK1+3)& (0+127)
   303  0031  01A4               	clrf	(__pbssBANK1+4)& (0+127)
   304  0032  01A5               	clrf	(__pbssBANK1+5)& (0+127)
   305  0033  01A6               	clrf	(__pbssBANK1+6)& (0+127)
   306  0034  01A7               	clrf	(__pbssBANK1+7)& (0+127)
   307                           
   308                           ; Clear objects allocated to BANK0
   309  0035  1283               	bcf	3,5	;RP0=0, select bank0
   310  0036  1303               	bcf	3,6	;RP1=0, select bank0
   311  0037  01E9               	clrf	__pbssBANK0& (0+127)
   312  0038  01EA               	clrf	(__pbssBANK0+1)& (0+127)
   313  0039  01EB               	clrf	(__pbssBANK0+2)& (0+127)
   314  003A  01EC               	clrf	(__pbssBANK0+3)& (0+127)
   315  003B  01ED               	clrf	(__pbssBANK0+4)& (0+127)
   316  003C  01EE               	clrf	(__pbssBANK0+5)& (0+127)
   317                           
   318                           ; Clear objects allocated to COMMON
   319  003D  01F5               	clrf	__pbssCOMMON& (0+127)
   320  003E  01F6               	clrf	(__pbssCOMMON+1)& (0+127)
   321  003F  01F7               	clrf	(__pbssCOMMON+2)& (0+127)
   322  0040  01F8               	clrf	(__pbssCOMMON+3)& (0+127)
   323  0041                     end_of_initialization:	
   324                           ;End of C runtime variable initialization code
   325                           
   326  0041                     __end_of__initialization:
   327  0041  0183               	clrf	3
   328  0042  120A  118A  2BA6   	ljmp	_main	;jump to C main() function
   329                           
   330                           	psect	bssCOMMON
   331  0075                     __pbssCOMMON:
   332  0075                     _POT1:
   333  0075                     	ds	2
   334  0077                     _POT0:
   335  0077                     	ds	2
   336                           
   337                           	psect	bssBANK0
   338  0069                     __pbssBANK0:
   339  0069                     _POT2:
   340  0069                     	ds	2
   341  006B                     _PWM3:
   342  006B                     	ds	2
   343  006D                     _DATO:
   344  006D                     	ds	2
   345                           
   346                           	psect	bssBANK1
   347  00A0                     __pbssBANK1:
   348  00A0                     _SEL:
   349  00A0                     	ds	2
   350  00A2                     _SEL_G:
   351  00A2                     	ds	2
   352  00A4                     _VALORAN:
   353  00A4                     	ds	2
   354  00A6                     _POT3:
   355  00A6                     	ds	2
   356                           
   357                           	psect	dataBANK1
   358  00AD                     __pdataBANK1:
   359  00AD                     _RB1_FLAG:
   360  00AD                     	ds	2
   361  00AF                     _RB0_FLAG:
   362  00AF                     	ds	2
   363                           
   364                           	psect	cstackBANK1
   365  00A8                     __pcstackBANK1:
   366  00A8                     ??_ANALOGICOS:
   367                           
   368                           ; 1 bytes @ 0x0
   369  00A8                     	ds	3
   370  00AB                     ??_main:
   371                           
   372                           ; 1 bytes @ 0x3
   373  00AB                     	ds	2
   374                           
   375                           	psect	cstackCOMMON
   376  0070                     __pcstackCOMMON:
   377  0070                     ?_setup:
   378  0070                     ?_isr:	
   379                           ; 1 bytes @ 0x0
   380                           
   381  0070                     ??_isr:	
   382                           ; 1 bytes @ 0x0
   383                           
   384  0070                     ?_main:	
   385                           ; 1 bytes @ 0x0
   386                           
   387                           
   388                           ; 1 bytes @ 0x0
   389  0070                     	ds	5
   390  0075                     ??_EEPROM_W:
   391                           
   392                           	psect	cstackBANK0
   393  0020                     __pcstackBANK0:	
   394                           ; 1 bytes @ 0x5
   395                           
   396  0020                     ??_setup:
   397  0020                     ?_EEPROM_W:	
   398                           ; 1 bytes @ 0x0
   399                           
   400  0020                     ?_EEPROM_R:	
   401                           ; 1 bytes @ 0x0
   402                           
   403  0020                     ?__Umul8_16:	
   404                           ; 2 bytes @ 0x0
   405                           
   406  0020                     ?___xxtofl:	
   407                           ; 2 bytes @ 0x0
   408                           
   409  0020                     __Umul8_16@multiplicand:	
   410                           ; 4 bytes @ 0x0
   411                           
   412  0020                     EEPROM_W@dato:	
   413                           ; 1 bytes @ 0x0
   414                           
   415  0020                     EEPROM_R@add:	
   416                           ; 2 bytes @ 0x0
   417                           
   418  0020                     ___xxtofl@val:	
   419                           ; 2 bytes @ 0x0
   420                           
   421                           
   422                           ; 4 bytes @ 0x0
   423  0020                     	ds	2
   424  0022                     ??_EEPROM_R:
   425  0022                     ??__Umul8_16:	
   426                           ; 1 bytes @ 0x2
   427                           
   428  0022                     EEPROM_W@add:	
   429                           ; 1 bytes @ 0x2
   430                           
   431                           
   432                           ; 2 bytes @ 0x2
   433  0022                     	ds	2
   434  0024                     ??___xxtofl:
   435  0024                     EEPROM_R@dato:	
   436                           ; 1 bytes @ 0x4
   437                           
   438  0024                     __Umul8_16@product:	
   439                           ; 2 bytes @ 0x4
   440                           
   441                           
   442                           ; 2 bytes @ 0x4
   443  0024                     	ds	2
   444  0026                     __Umul8_16@word_mpld:
   445                           
   446                           ; 2 bytes @ 0x6
   447  0026                     	ds	2
   448  0028                     __Umul8_16@multiplier:
   449  0028                     ___xxtofl@sign:	
   450                           ; 1 bytes @ 0x8
   451                           
   452                           
   453                           ; 1 bytes @ 0x8
   454  0028                     	ds	1
   455  0029                     ___xxtofl@exp:
   456                           
   457                           ; 1 bytes @ 0x9
   458  0029                     	ds	1
   459  002A                     ___xxtofl@arg:
   460                           
   461                           ; 4 bytes @ 0xA
   462  002A                     	ds	4
   463  002E                     ?___flmul:
   464  002E                     ___flmul@b:	
   465                           ; 4 bytes @ 0xE
   466                           
   467                           
   468                           ; 4 bytes @ 0xE
   469  002E                     	ds	4
   470  0032                     ___flmul@a:
   471                           
   472                           ; 4 bytes @ 0x12
   473  0032                     	ds	4
   474  0036                     ??___flmul:
   475                           
   476                           ; 1 bytes @ 0x16
   477  0036                     	ds	5
   478  003B                     ___flmul@sign:
   479                           
   480                           ; 1 bytes @ 0x1B
   481  003B                     	ds	1
   482  003C                     ___flmul@aexp:
   483                           
   484                           ; 1 bytes @ 0x1C
   485  003C                     	ds	1
   486  003D                     ___flmul@grs:
   487                           
   488                           ; 4 bytes @ 0x1D
   489  003D                     	ds	4
   490  0041                     ___flmul@bexp:
   491                           
   492                           ; 1 bytes @ 0x21
   493  0041                     	ds	1
   494  0042                     ___flmul@prod:
   495                           
   496                           ; 4 bytes @ 0x22
   497  0042                     	ds	4
   498  0046                     ___flmul@temp:
   499                           
   500                           ; 2 bytes @ 0x26
   501  0046                     	ds	2
   502  0048                     ?___fladd:
   503  0048                     ___fladd@b:	
   504                           ; 4 bytes @ 0x28
   505                           
   506                           
   507                           ; 4 bytes @ 0x28
   508  0048                     	ds	4
   509  004C                     ___fladd@a:
   510                           
   511                           ; 4 bytes @ 0x2C
   512  004C                     	ds	4
   513  0050                     ??___fladd:
   514                           
   515                           ; 1 bytes @ 0x30
   516  0050                     	ds	8
   517  0058                     ___fladd@signs:
   518                           
   519                           ; 1 bytes @ 0x38
   520  0058                     	ds	1
   521  0059                     ___fladd@aexp:
   522                           
   523                           ; 1 bytes @ 0x39
   524  0059                     	ds	1
   525  005A                     ___fladd@bexp:
   526                           
   527                           ; 1 bytes @ 0x3A
   528  005A                     	ds	1
   529  005B                     ___fladd@grs:
   530                           
   531                           ; 1 bytes @ 0x3B
   532  005B                     	ds	1
   533  005C                     ?___fltol:
   534  005C                     ___fltol@f1:	
   535                           ; 4 bytes @ 0x3C
   536                           
   537                           
   538                           ; 4 bytes @ 0x3C
   539  005C                     	ds	4
   540  0060                     ??___fltol:
   541                           
   542                           ; 1 bytes @ 0x40
   543  0060                     	ds	5
   544  0065                     ___fltol@sign1:
   545                           
   546                           ; 1 bytes @ 0x45
   547  0065                     	ds	1
   548  0066                     ___fltol@exp1:
   549                           
   550                           ; 1 bytes @ 0x46
   551  0066                     	ds	1
   552  0067                     ?_ANALOGICOS:
   553  0067                     ANALOGICOS@VALORAN:	
   554                           ; 1 bytes @ 0x47
   555                           
   556                           
   557                           ; 2 bytes @ 0x47
   558  0067                     	ds	2
   559                           
   560                           	psect	maintext
   561  03A6                     __pmaintext:	
   562 ;;
   563 ;;Main: autosize = 0, tempsize = 2, incstack = 0, save=0
   564 ;;
   565 ;; *************** function _main *****************
   566 ;; Defined at:
   567 ;;		line 98 in file "main.c"
   568 ;; Parameters:    Size  Location     Type
   569 ;;		None
   570 ;; Auto vars:     Size  Location     Type
   571 ;;		None
   572 ;; Return value:  Size  Location     Type
   573 ;;                  1    wreg      void 
   574 ;; Registers used:
   575 ;;		wreg, fsr0l, fsr0h, status,2, status,0, btemp+1, pclath, cstack
   576 ;; Tracked objects:
   577 ;;		On entry : B00/0
   578 ;;		On exit  : 0/0
   579 ;;		Unchanged: 0/0
   580 ;; Data sizes:     COMMON   BANK0   BANK1   BANK3   BANK2
   581 ;;      Params:         0       0       0       0       0
   582 ;;      Locals:         0       0       0       0       0
   583 ;;      Temps:          0       0       2       0       0
   584 ;;      Totals:         0       0       2       0       0
   585 ;;Total ram usage:        2 bytes
   586 ;; Hardware stack levels required when called:    4
   587 ;; This function calls:
   588 ;;		_ANALOGICOS
   589 ;;		_EEPROM_R
   590 ;;		_EEPROM_W
   591 ;;		___fladd
   592 ;;		___flmul
   593 ;;		___fltol
   594 ;;		___xxtofl
   595 ;;		_setup
   596 ;; This function is called by:
   597 ;;		Startup code after reset
   598 ;; This function uses a non-reentrant model
   599 ;;
   600                           
   601                           
   602                           ;psect for function _main
   603  03A6                     _main:
   604  03A6                     l2806:	
   605                           ;incstack = 0
   606                           ; Regs used in _main: [wreg-fsr0h+status,2+status,0+btemp+1+pclath+cstack]
   607                           
   608                           
   609                           ;main.c: 99:     setup();
   610  03A6  120A  158A  22C6  120A  118A  	fcall	_setup
   611  03AB  2C87               	goto	l2836
   612  03AC                     l2808:
   613                           
   614                           ;main.c: 102:             PORTE = 0X01;
   615  03AC  3001               	movlw	1
   616  03AD  0089               	movwf	9	;volatile
   617  03AE                     l2810:
   618                           
   619                           ;main.c: 104:         ANALOGICOS(VALORAN);
   620  03AE  1683               	bsf	3,5	;RP0=1, select bank1
   621  03AF  1303               	bcf	3,6	;RP1=0, select bank1
   622  03B0  0825               	movf	(_VALORAN+1)^(0+128),w
   623  03B1  1283               	bcf	3,5	;RP0=0, select bank0
   624  03B2  1303               	bcf	3,6	;RP1=0, select bank0
   625  03B3  00E8               	movwf	ANALOGICOS@VALORAN+1
   626  03B4  1683               	bsf	3,5	;RP0=1, select bank1
   627  03B5  1303               	bcf	3,6	;RP1=0, select bank1
   628  03B6  0824               	movf	_VALORAN^(0+128),w
   629  03B7  1283               	bcf	3,5	;RP0=0, select bank0
   630  03B8  1303               	bcf	3,6	;RP1=0, select bank0
   631  03B9  00E7               	movwf	ANALOGICOS@VALORAN
   632  03BA  120A  158A  23BA  120A  118A  	fcall	_ANALOGICOS
   633  03BF                     l2812:
   634                           
   635                           ;main.c: 106:         if (RB0 == 1 && RB0_FLAG == 0){
   636  03BF  1283               	bcf	3,5	;RP0=0, select bank0
   637  03C0  1303               	bcf	3,6	;RP1=0, select bank0
   638  03C1  1C06               	btfss	6,0	;volatile
   639  03C2  2BC4               	goto	u3401
   640  03C3  2BC5               	goto	u3400
   641  03C4                     u3401:
   642  03C4  2C77               	goto	l2834
   643  03C5                     u3400:
   644  03C5                     l2814:
   645  03C5  1683               	bsf	3,5	;RP0=1, select bank1
   646  03C6  1303               	bcf	3,6	;RP1=0, select bank1
   647  03C7  082F               	movf	_RB0_FLAG^(0+128),w
   648  03C8  0430               	iorwf	(_RB0_FLAG+1)^(0+128),w
   649  03C9  1D03               	btfss	3,2
   650  03CA  2BCC               	goto	u3411
   651  03CB  2BCD               	goto	u3410
   652  03CC                     u3411:
   653  03CC  2C77               	goto	l2834
   654  03CD                     u3410:
   655  03CD  2C67               	goto	l2832
   656  03CE                     l2818:
   657                           
   658                           ;main.c: 109:                     EEPROM_W(POT0, 0);
   659  03CE  0878               	movf	_POT0+1,w
   660  03CF  1283               	bcf	3,5	;RP0=0, select bank0
   661  03D0  1303               	bcf	3,6	;RP1=0, select bank0
   662  03D1  00A1               	movwf	EEPROM_W@dato+1
   663  03D2  0877               	movf	_POT0,w
   664  03D3  00A0               	movwf	EEPROM_W@dato
   665  03D4  3000               	movlw	0
   666  03D5  00A2               	movwf	EEPROM_W@add
   667  03D6  00A3               	movwf	EEPROM_W@add+1
   668  03D7  120A  118A  27D1  120A  118A  	fcall	_EEPROM_W
   669                           
   670                           ;main.c: 110:                     EEPROM_W(POT1, 1);
   671  03DC  0876               	movf	_POT1+1,w
   672  03DD  1283               	bcf	3,5	;RP0=0, select bank0
   673  03DE  1303               	bcf	3,6	;RP1=0, select bank0
   674  03DF  00A1               	movwf	EEPROM_W@dato+1
   675  03E0  0875               	movf	_POT1,w
   676  03E1  00A0               	movwf	EEPROM_W@dato
   677  03E2  3001               	movlw	1
   678  03E3  00A2               	movwf	EEPROM_W@add
   679  03E4  3000               	movlw	0
   680  03E5  00A3               	movwf	EEPROM_W@add+1
   681  03E6  120A  118A  27D1  120A  118A  	fcall	_EEPROM_W
   682                           
   683                           ;main.c: 111:                     EEPROM_W(POT2, 2);
   684  03EB  1283               	bcf	3,5	;RP0=0, select bank0
   685  03EC  1303               	bcf	3,6	;RP1=0, select bank0
   686  03ED  086A               	movf	_POT2+1,w
   687  03EE  00A1               	movwf	EEPROM_W@dato+1
   688  03EF  0869               	movf	_POT2,w
   689  03F0  00A0               	movwf	EEPROM_W@dato
   690  03F1  3002               	movlw	2
   691  03F2  00A2               	movwf	EEPROM_W@add
   692  03F3  3000               	movlw	0
   693  03F4  00A3               	movwf	EEPROM_W@add+1
   694  03F5  120A  118A  27D1  120A  118A  	fcall	_EEPROM_W
   695  03FA                     l2820:
   696                           
   697                           ;main.c: 112:                     SEL_G = 1;
   698  03FA  3001               	movlw	1
   699  03FB  1683               	bsf	3,5	;RP0=1, select bank1
   700  03FC  1303               	bcf	3,6	;RP1=0, select bank1
   701  03FD  00A2               	movwf	_SEL_G^(0+128)
   702  03FE  3000               	movlw	0
   703  03FF  00A3               	movwf	(_SEL_G^(0+128)+1)
   704                           
   705                           ;main.c: 113:                     break;
   706  0400  2C77               	goto	l2834
   707  0401                     l2822:
   708                           
   709                           ;main.c: 115:                     EEPROM_W(POT0, 3);
   710  0401  0878               	movf	_POT0+1,w
   711  0402  1283               	bcf	3,5	;RP0=0, select bank0
   712  0403  1303               	bcf	3,6	;RP1=0, select bank0
   713  0404  00A1               	movwf	EEPROM_W@dato+1
   714  0405  0877               	movf	_POT0,w
   715  0406  00A0               	movwf	EEPROM_W@dato
   716  0407  3003               	movlw	3
   717  0408  00A2               	movwf	EEPROM_W@add
   718  0409  3000               	movlw	0
   719  040A  00A3               	movwf	EEPROM_W@add+1
   720  040B  120A  118A  27D1  120A  118A  	fcall	_EEPROM_W
   721                           
   722                           ;main.c: 116:                     EEPROM_W(POT1, 4);
   723  0410  0876               	movf	_POT1+1,w
   724  0411  1283               	bcf	3,5	;RP0=0, select bank0
   725  0412  1303               	bcf	3,6	;RP1=0, select bank0
   726  0413  00A1               	movwf	EEPROM_W@dato+1
   727  0414  0875               	movf	_POT1,w
   728  0415  00A0               	movwf	EEPROM_W@dato
   729  0416  3004               	movlw	4
   730  0417  00A2               	movwf	EEPROM_W@add
   731  0418  3000               	movlw	0
   732  0419  00A3               	movwf	EEPROM_W@add+1
   733  041A  120A  118A  27D1  120A  118A  	fcall	_EEPROM_W
   734                           
   735                           ;main.c: 117:                     EEPROM_W(POT2, 5);
   736  041F  1283               	bcf	3,5	;RP0=0, select bank0
   737  0420  1303               	bcf	3,6	;RP1=0, select bank0
   738  0421  086A               	movf	_POT2+1,w
   739  0422  00A1               	movwf	EEPROM_W@dato+1
   740  0423  0869               	movf	_POT2,w
   741  0424  00A0               	movwf	EEPROM_W@dato
   742  0425  3005               	movlw	5
   743  0426  00A2               	movwf	EEPROM_W@add
   744  0427  3000               	movlw	0
   745  0428  00A3               	movwf	EEPROM_W@add+1
   746  0429  120A  118A  27D1  120A  118A  	fcall	_EEPROM_W
   747  042E                     l2824:
   748                           
   749                           ;main.c: 118:                     SEL_G = 2;
   750  042E  3002               	movlw	2
   751  042F  1683               	bsf	3,5	;RP0=1, select bank1
   752  0430  1303               	bcf	3,6	;RP1=0, select bank1
   753  0431  00A2               	movwf	_SEL_G^(0+128)
   754  0432  3000               	movlw	0
   755  0433  00A3               	movwf	(_SEL_G^(0+128)+1)
   756                           
   757                           ;main.c: 119:                     break;
   758  0434  2C77               	goto	l2834
   759  0435                     l2826:
   760                           
   761                           ;main.c: 121:                     EEPROM_W(POT0, 6);
   762  0435  0878               	movf	_POT0+1,w
   763  0436  1283               	bcf	3,5	;RP0=0, select bank0
   764  0437  1303               	bcf	3,6	;RP1=0, select bank0
   765  0438  00A1               	movwf	EEPROM_W@dato+1
   766  0439  0877               	movf	_POT0,w
   767  043A  00A0               	movwf	EEPROM_W@dato
   768  043B  3006               	movlw	6
   769  043C  00A2               	movwf	EEPROM_W@add
   770  043D  3000               	movlw	0
   771  043E  00A3               	movwf	EEPROM_W@add+1
   772  043F  120A  118A  27D1  120A  118A  	fcall	_EEPROM_W
   773                           
   774                           ;main.c: 122:                     EEPROM_W(POT1, 7);
   775  0444  0876               	movf	_POT1+1,w
   776  0445  1283               	bcf	3,5	;RP0=0, select bank0
   777  0446  1303               	bcf	3,6	;RP1=0, select bank0
   778  0447  00A1               	movwf	EEPROM_W@dato+1
   779  0448  0875               	movf	_POT1,w
   780  0449  00A0               	movwf	EEPROM_W@dato
   781  044A  3007               	movlw	7
   782  044B  00A2               	movwf	EEPROM_W@add
   783  044C  3000               	movlw	0
   784  044D  00A3               	movwf	EEPROM_W@add+1
   785  044E  120A  118A  27D1  120A  118A  	fcall	_EEPROM_W
   786                           
   787                           ;main.c: 123:                     EEPROM_W(POT2, 8);
   788  0453  1283               	bcf	3,5	;RP0=0, select bank0
   789  0454  1303               	bcf	3,6	;RP1=0, select bank0
   790  0455  086A               	movf	_POT2+1,w
   791  0456  00A1               	movwf	EEPROM_W@dato+1
   792  0457  0869               	movf	_POT2,w
   793  0458  00A0               	movwf	EEPROM_W@dato
   794  0459  3008               	movlw	8
   795  045A  00A2               	movwf	EEPROM_W@add
   796  045B  3000               	movlw	0
   797  045C  00A3               	movwf	EEPROM_W@add+1
   798  045D  120A  118A  27D1  120A  118A  	fcall	_EEPROM_W
   799  0462                     l2828:
   800                           
   801                           ;main.c: 124:                     SEL_G = 0;
   802  0462  1683               	bsf	3,5	;RP0=1, select bank1
   803  0463  1303               	bcf	3,6	;RP1=0, select bank1
   804  0464  01A2               	clrf	_SEL_G^(0+128)
   805  0465  01A3               	clrf	(_SEL_G+1)^(0+128)
   806                           
   807                           ;main.c: 125:                     break;
   808  0466  2C77               	goto	l2834
   809  0467                     l2832:
   810                           
   811                           ; Switch on 2 bytes has been partitioned into a top level switch of size 1, and 1 sub-sw
      +                          itches
   812                           ; Switch size 1, requested type "simple"
   813                           ; Number of cases is 1, Range of values is 0 to 0
   814                           ; switch strategies available:
   815                           ; Name         Instructions Cycles
   816                           ; simple_byte            4     3 (average)
   817                           ; direct_byte           11     8 (fixed)
   818                           ; jumptable            260     6 (fixed)
   819                           ;	Chosen strategy is simple_byte
   820  0467  0823               	movf	(_SEL_G+1)^(0+128),w
   821  0468  3A00               	xorlw	0	; case 0
   822  0469  1903               	skipnz
   823  046A  2C6C               	goto	l2988
   824  046B  2C77               	goto	l2834
   825  046C                     l2988:
   826                           
   827                           ; Switch size 1, requested type "simple"
   828                           ; Number of cases is 3, Range of values is 0 to 2
   829                           ; switch strategies available:
   830                           ; Name         Instructions Cycles
   831                           ; simple_byte           10     6 (average)
   832                           ; direct_byte           17     8 (fixed)
   833                           ; jumptable            260     6 (fixed)
   834                           ;	Chosen strategy is simple_byte
   835  046C  0822               	movf	_SEL_G^(0+128),w
   836  046D  3A00               	xorlw	0	; case 0
   837  046E  1903               	skipnz
   838  046F  2BCE               	goto	l2818
   839  0470  3A01               	xorlw	1	; case 1
   840  0471  1903               	skipnz
   841  0472  2C01               	goto	l2822
   842  0473  3A03               	xorlw	3	; case 2
   843  0474  1903               	skipnz
   844  0475  2C35               	goto	l2826
   845  0476  2C77               	goto	l2834
   846  0477                     l2834:
   847                           
   848                           ;main.c: 128:         RB0_FLAG = RB0;
   849  0477  1003               	clrc
   850  0478  1283               	bcf	3,5	;RP0=0, select bank0
   851  0479  1806               	btfsc	6,0	;volatile
   852  047A  1403               	setc
   853  047B  3000               	movlw	0
   854  047C  1803               	skipnc
   855  047D  3001               	movlw	1
   856  047E  1683               	bsf	3,5	;RP0=1, select bank1
   857  047F  1303               	bcf	3,6	;RP1=0, select bank1
   858  0480  00AB               	movwf	??_main^(0+128)
   859  0481  01AC               	clrf	(??_main^(0+128)+1)
   860  0482  082B               	movf	??_main^(0+128),w
   861  0483  00AF               	movwf	_RB0_FLAG^(0+128)
   862  0484  082C               	movf	(??_main+1)^(0+128),w
   863  0485  00B0               	movwf	(_RB0_FLAG+1)^(0+128)
   864  0486  2C87               	goto	l2836
   865  0487                     l153:	
   866                           ;main.c: 129:         }
   867                           
   868  0487                     l2836:
   869                           
   870                           ;main.c: 101:         while(RB6 == 1 && RB7 ==1){
   871  0487  1283               	bcf	3,5	;RP0=0, select bank0
   872  0488  1303               	bcf	3,6	;RP1=0, select bank0
   873  0489  1F06               	btfss	6,6	;volatile
   874  048A  2C8C               	goto	u3421
   875  048B  2C8D               	goto	u3420
   876  048C                     u3421:
   877  048C  2D34               	goto	l2862
   878  048D                     u3420:
   879  048D                     l2838:
   880  048D  1B86               	btfsc	6,7	;volatile
   881  048E  2C90               	goto	u3431
   882  048F  2C91               	goto	u3430
   883  0490                     u3431:
   884  0490  2BAC               	goto	l2808
   885  0491                     u3430:
   886  0491  2D34               	goto	l2862
   887  0492                     l2840:
   888                           
   889                           ;main.c: 132:             PORTE = 0X02;
   890  0492  3002               	movlw	2
   891  0493  0089               	movwf	9	;volatile
   892  0494                     l2842:
   893                           
   894                           ;main.c: 134:             if (RB4 == 0 && RB5 == 1){
   895  0494  1A06               	btfsc	6,4	;volatile
   896  0495  2C97               	goto	u3441
   897  0496  2C98               	goto	u3440
   898  0497                     u3441:
   899  0497  2CC4               	goto	l2848
   900  0498                     u3440:
   901  0498                     l2844:
   902  0498  1E86               	btfss	6,5	;volatile
   903  0499  2C9B               	goto	u3451
   904  049A  2C9C               	goto	u3450
   905  049B                     u3451:
   906  049B  2CC4               	goto	l2848
   907  049C                     u3450:
   908  049C                     l2846:
   909                           
   910                           ;main.c: 135:                 POT0 = EEPROM_R(0);
   911  049C  3000               	movlw	0
   912  049D  00A0               	movwf	EEPROM_R@add
   913  049E  00A1               	movwf	EEPROM_R@add+1
   914  049F  120A  158A  22AC  120A  118A  	fcall	_EEPROM_R
   915  04A4  1283               	bcf	3,5	;RP0=0, select bank0
   916  04A5  1303               	bcf	3,6	;RP1=0, select bank0
   917  04A6  0821               	movf	?_EEPROM_R+1,w
   918  04A7  00F8               	movwf	_POT0+1
   919  04A8  0820               	movf	?_EEPROM_R,w
   920  04A9  00F7               	movwf	_POT0
   921                           
   922                           ;main.c: 136:                 CCPR1L = EEPROM_R(1);
   923  04AA  3001               	movlw	1
   924  04AB  00A0               	movwf	EEPROM_R@add
   925  04AC  3000               	movlw	0
   926  04AD  00A1               	movwf	EEPROM_R@add+1
   927  04AE  120A  158A  22AC  120A  118A  	fcall	_EEPROM_R
   928  04B3  1283               	bcf	3,5	;RP0=0, select bank0
   929  04B4  1303               	bcf	3,6	;RP1=0, select bank0
   930  04B5  0820               	movf	?_EEPROM_R,w
   931  04B6  0095               	movwf	21	;volatile
   932                           
   933                           ;main.c: 137:                 CCPR2L = EEPROM_R(2);
   934  04B7  3002               	movlw	2
   935  04B8  00A0               	movwf	EEPROM_R@add
   936  04B9  3000               	movlw	0
   937  04BA  00A1               	movwf	EEPROM_R@add+1
   938  04BB  120A  158A  22AC  120A  118A  	fcall	_EEPROM_R
   939  04C0  1283               	bcf	3,5	;RP0=0, select bank0
   940  04C1  1303               	bcf	3,6	;RP1=0, select bank0
   941  04C2  0820               	movf	?_EEPROM_R,w
   942  04C3  009B               	movwf	27	;volatile
   943  04C4                     l2848:
   944                           
   945                           ;main.c: 139:             if (RB4 == 1 && RB5 == 0){
   946  04C4  1E06               	btfss	6,4	;volatile
   947  04C5  2CC7               	goto	u3461
   948  04C6  2CC8               	goto	u3460
   949  04C7                     u3461:
   950  04C7  2CF5               	goto	l2854
   951  04C8                     u3460:
   952  04C8                     l2850:
   953  04C8  1A86               	btfsc	6,5	;volatile
   954  04C9  2CCB               	goto	u3471
   955  04CA  2CCC               	goto	u3470
   956  04CB                     u3471:
   957  04CB  2CF5               	goto	l2854
   958  04CC                     u3470:
   959  04CC                     l2852:
   960                           
   961                           ;main.c: 140:                 POT0 = EEPROM_R(3);
   962  04CC  3003               	movlw	3
   963  04CD  00A0               	movwf	EEPROM_R@add
   964  04CE  3000               	movlw	0
   965  04CF  00A1               	movwf	EEPROM_R@add+1
   966  04D0  120A  158A  22AC  120A  118A  	fcall	_EEPROM_R
   967  04D5  1283               	bcf	3,5	;RP0=0, select bank0
   968  04D6  1303               	bcf	3,6	;RP1=0, select bank0
   969  04D7  0821               	movf	?_EEPROM_R+1,w
   970  04D8  00F8               	movwf	_POT0+1
   971  04D9  0820               	movf	?_EEPROM_R,w
   972  04DA  00F7               	movwf	_POT0
   973                           
   974                           ;main.c: 141:                 CCPR1L = EEPROM_R(4);
   975  04DB  3004               	movlw	4
   976  04DC  00A0               	movwf	EEPROM_R@add
   977  04DD  3000               	movlw	0
   978  04DE  00A1               	movwf	EEPROM_R@add+1
   979  04DF  120A  158A  22AC  120A  118A  	fcall	_EEPROM_R
   980  04E4  1283               	bcf	3,5	;RP0=0, select bank0
   981  04E5  1303               	bcf	3,6	;RP1=0, select bank0
   982  04E6  0820               	movf	?_EEPROM_R,w
   983  04E7  0095               	movwf	21	;volatile
   984                           
   985                           ;main.c: 142:                 CCPR2L = EEPROM_R(5);
   986  04E8  3005               	movlw	5
   987  04E9  00A0               	movwf	EEPROM_R@add
   988  04EA  3000               	movlw	0
   989  04EB  00A1               	movwf	EEPROM_R@add+1
   990  04EC  120A  158A  22AC  120A  118A  	fcall	_EEPROM_R
   991  04F1  1283               	bcf	3,5	;RP0=0, select bank0
   992  04F2  1303               	bcf	3,6	;RP1=0, select bank0
   993  04F3  0820               	movf	?_EEPROM_R,w
   994  04F4  009B               	movwf	27	;volatile
   995  04F5                     l2854:
   996                           
   997                           ;main.c: 144:             if (RB4 == 0 && RB5 == 0){
   998  04F5  1A06               	btfsc	6,4	;volatile
   999  04F6  2CF8               	goto	u3481
  1000  04F7  2CF9               	goto	u3480
  1001  04F8                     u3481:
  1002  04F8  2D26               	goto	l2860
  1003  04F9                     u3480:
  1004  04F9                     l2856:
  1005  04F9  1A86               	btfsc	6,5	;volatile
  1006  04FA  2CFC               	goto	u3491
  1007  04FB  2CFD               	goto	u3490
  1008  04FC                     u3491:
  1009  04FC  2D26               	goto	l2860
  1010  04FD                     u3490:
  1011  04FD                     l2858:
  1012                           
  1013                           ;main.c: 145:                 POT0 = EEPROM_R(6);
  1014  04FD  3006               	movlw	6
  1015  04FE  00A0               	movwf	EEPROM_R@add
  1016  04FF  3000               	movlw	0
  1017  0500  00A1               	movwf	EEPROM_R@add+1
  1018  0501  120A  158A  22AC  120A  118A  	fcall	_EEPROM_R
  1019  0506  1283               	bcf	3,5	;RP0=0, select bank0
  1020  0507  1303               	bcf	3,6	;RP1=0, select bank0
  1021  0508  0821               	movf	?_EEPROM_R+1,w
  1022  0509  00F8               	movwf	_POT0+1
  1023  050A  0820               	movf	?_EEPROM_R,w
  1024  050B  00F7               	movwf	_POT0
  1025                           
  1026                           ;main.c: 146:                 CCPR1L = EEPROM_R(7);
  1027  050C  3007               	movlw	7
  1028  050D  00A0               	movwf	EEPROM_R@add
  1029  050E  3000               	movlw	0
  1030  050F  00A1               	movwf	EEPROM_R@add+1
  1031  0510  120A  158A  22AC  120A  118A  	fcall	_EEPROM_R
  1032  0515  1283               	bcf	3,5	;RP0=0, select bank0
  1033  0516  1303               	bcf	3,6	;RP1=0, select bank0
  1034  0517  0820               	movf	?_EEPROM_R,w
  1035  0518  0095               	movwf	21	;volatile
  1036                           
  1037                           ;main.c: 147:                 CCPR2L = EEPROM_R(8);
  1038  0519  3008               	movlw	8
  1039  051A  00A0               	movwf	EEPROM_R@add
  1040  051B  3000               	movlw	0
  1041  051C  00A1               	movwf	EEPROM_R@add+1
  1042  051D  120A  158A  22AC  120A  118A  	fcall	_EEPROM_R
  1043  0522  1283               	bcf	3,5	;RP0=0, select bank0
  1044  0523  1303               	bcf	3,6	;RP1=0, select bank0
  1045  0524  0820               	movf	?_EEPROM_R,w
  1046  0525  009B               	movwf	27	;volatile
  1047  0526                     l2860:
  1048                           
  1049                           ;main.c: 149:             RB1_FLAG = RB1;
  1050  0526  1003               	clrc
  1051  0527  1886               	btfsc	6,1	;volatile
  1052  0528  1403               	setc
  1053  0529  3000               	movlw	0
  1054  052A  1803               	skipnc
  1055  052B  3001               	movlw	1
  1056  052C  1683               	bsf	3,5	;RP0=1, select bank1
  1057  052D  1303               	bcf	3,6	;RP1=0, select bank1
  1058  052E  00AB               	movwf	??_main^(0+128)
  1059  052F  01AC               	clrf	(??_main^(0+128)+1)
  1060  0530  082B               	movf	??_main^(0+128),w
  1061  0531  00AD               	movwf	_RB1_FLAG^(0+128)
  1062  0532  082C               	movf	(??_main+1)^(0+128),w
  1063  0533  00AE               	movwf	(_RB1_FLAG+1)^(0+128)
  1064  0534                     l2862:
  1065                           
  1066                           ;main.c: 131:         while (RB6 == 0 && RB7 == 1){
  1067  0534  1283               	bcf	3,5	;RP0=0, select bank0
  1068  0535  1B06               	btfsc	6,6	;volatile
  1069  0536  2D38               	goto	u3501
  1070  0537  2D39               	goto	u3500
  1071  0538                     u3501:
  1072  0538  2E60               	goto	l172
  1073  0539                     u3500:
  1074  0539                     l2864:
  1075  0539  1B86               	btfsc	6,7	;volatile
  1076  053A  2D3C               	goto	u3511
  1077  053B  2D3D               	goto	u3510
  1078  053C                     u3511:
  1079  053C  2C92               	goto	l2840
  1080  053D                     u3510:
  1081  053D  2E60               	goto	l172
  1082  053E                     l2866:
  1083                           
  1084                           ;main.c: 153:             PORTE = 0X04;
  1085  053E  3004               	movlw	4
  1086  053F  0089               	movwf	9	;volatile
  1087                           
  1088                           ;main.c: 155:             switch(SEL){
  1089  0540  2E4E               	goto	l2882
  1090  0541                     l2868:
  1091                           
  1092                           ;main.c: 157:                     PORTD = 0X01;
  1093  0541  3001               	movlw	1
  1094  0542  1283               	bcf	3,5	;RP0=0, select bank0
  1095  0543  1303               	bcf	3,6	;RP1=0, select bank0
  1096  0544  0088               	movwf	8	;volatile
  1097  0545                     l2870:
  1098                           
  1099                           ;main.c: 158:                     POT0 =(1.1*(DATO-48)+5);
  1100  0545  086D               	movf	_DATO,w
  1101  0546  3ED0               	addlw	208
  1102  0547  00A0               	movwf	___xxtofl@val
  1103  0548  086E               	movf	_DATO+1,w
  1104  0549  1803               	skipnc
  1105  054A  3E01               	addlw	1
  1106  054B  3EFF               	addlw	255
  1107  054C  00A1               	movwf	___xxtofl@val+1
  1108  054D  01A2               	clrf	___xxtofl@val+2
  1109  054E  1BA1               	btfsc	___xxtofl@val+1,7
  1110  054F  03A2               	decf	___xxtofl@val+2,f
  1111  0550  0822               	movf	___xxtofl@val+2,w
  1112  0551  00A3               	movwf	___xxtofl@val+3
  1113  0552  3001               	movlw	1
  1114  0553  120A  118A  266D  120A  118A  	fcall	___xxtofl
  1115  0558  1283               	bcf	3,5	;RP0=0, select bank0
  1116  0559  1303               	bcf	3,6	;RP1=0, select bank0
  1117  055A  0823               	movf	?___xxtofl+3,w
  1118  055B  00B5               	movwf	___flmul@a+3
  1119  055C  0822               	movf	?___xxtofl+2,w
  1120  055D  00B4               	movwf	___flmul@a+2
  1121  055E  0821               	movf	?___xxtofl+1,w
  1122  055F  00B3               	movwf	___flmul@a+1
  1123  0560  0820               	movf	?___xxtofl,w
  1124  0561  00B2               	movwf	___flmul@a
  1125  0562  303F               	movlw	63
  1126  0563  00B1               	movwf	___flmul@b+3
  1127  0564  308C               	movlw	140
  1128  0565  00B0               	movwf	___flmul@b+2
  1129  0566  30CC               	movlw	204
  1130  0567  00AF               	movwf	___flmul@b+1
  1131  0568  30CD               	movlw	205
  1132  0569  00AE               	movwf	___flmul@b
  1133  056A  120A  118A  2045  120A  118A  	fcall	___flmul
  1134  056F  1283               	bcf	3,5	;RP0=0, select bank0
  1135  0570  1303               	bcf	3,6	;RP1=0, select bank0
  1136  0571  0831               	movf	?___flmul+3,w
  1137  0572  00CF               	movwf	___fladd@a+3
  1138  0573  0830               	movf	?___flmul+2,w
  1139  0574  00CE               	movwf	___fladd@a+2
  1140  0575  082F               	movf	?___flmul+1,w
  1141  0576  00CD               	movwf	___fladd@a+1
  1142  0577  082E               	movf	?___flmul,w
  1143  0578  00CC               	movwf	___fladd@a
  1144  0579  3040               	movlw	64
  1145  057A  00CB               	movwf	___fladd@b+3
  1146  057B  30A0               	movlw	160
  1147  057C  00CA               	movwf	___fladd@b+2
  1148  057D  3000               	movlw	0
  1149  057E  00C9               	movwf	___fladd@b+1
  1150  057F  3000               	movlw	0
  1151  0580  00C8               	movwf	___fladd@b
  1152  0581  120A  158A  2578  120A  118A  	fcall	___fladd
  1153  0586  1283               	bcf	3,5	;RP0=0, select bank0
  1154  0587  1303               	bcf	3,6	;RP1=0, select bank0
  1155  0588  084B               	movf	?___fladd+3,w
  1156  0589  00DF               	movwf	___fltol@f1+3
  1157  058A  084A               	movf	?___fladd+2,w
  1158  058B  00DE               	movwf	___fltol@f1+2
  1159  058C  0849               	movf	?___fladd+1,w
  1160  058D  00DD               	movwf	___fltol@f1+1
  1161  058E  0848               	movf	?___fladd,w
  1162  058F  00DC               	movwf	___fltol@f1
  1163  0590  120A  158A  233E  120A  118A  	fcall	___fltol
  1164  0595  1283               	bcf	3,5	;RP0=0, select bank0
  1165  0596  1303               	bcf	3,6	;RP1=0, select bank0
  1166  0597  085D               	movf	?___fltol+1,w
  1167  0598  00F8               	movwf	_POT0+1
  1168  0599  085C               	movf	?___fltol,w
  1169  059A  00F7               	movwf	_POT0
  1170                           
  1171                           ;main.c: 159:                     break;
  1172  059B  2E60               	goto	l172
  1173  059C                     l2872:
  1174                           
  1175                           ;main.c: 161:                     PORTD = 0X02;
  1176  059C  3002               	movlw	2
  1177  059D  1283               	bcf	3,5	;RP0=0, select bank0
  1178  059E  1303               	bcf	3,6	;RP1=0, select bank0
  1179  059F  0088               	movwf	8	;volatile
  1180  05A0                     l2874:
  1181                           
  1182                           ;main.c: 162:                     CCPR2L = (6.55*(DATO-48)+31);
  1183  05A0  086D               	movf	_DATO,w
  1184  05A1  3ED0               	addlw	208
  1185  05A2  00A0               	movwf	___xxtofl@val
  1186  05A3  086E               	movf	_DATO+1,w
  1187  05A4  1803               	skipnc
  1188  05A5  3E01               	addlw	1
  1189  05A6  3EFF               	addlw	255
  1190  05A7  00A1               	movwf	___xxtofl@val+1
  1191  05A8  01A2               	clrf	___xxtofl@val+2
  1192  05A9  1BA1               	btfsc	___xxtofl@val+1,7
  1193  05AA  03A2               	decf	___xxtofl@val+2,f
  1194  05AB  0822               	movf	___xxtofl@val+2,w
  1195  05AC  00A3               	movwf	___xxtofl@val+3
  1196  05AD  3001               	movlw	1
  1197  05AE  120A  118A  266D  120A  118A  	fcall	___xxtofl
  1198  05B3  1283               	bcf	3,5	;RP0=0, select bank0
  1199  05B4  1303               	bcf	3,6	;RP1=0, select bank0
  1200  05B5  0823               	movf	?___xxtofl+3,w
  1201  05B6  00B5               	movwf	___flmul@a+3
  1202  05B7  0822               	movf	?___xxtofl+2,w
  1203  05B8  00B4               	movwf	___flmul@a+2
  1204  05B9  0821               	movf	?___xxtofl+1,w
  1205  05BA  00B3               	movwf	___flmul@a+1
  1206  05BB  0820               	movf	?___xxtofl,w
  1207  05BC  00B2               	movwf	___flmul@a
  1208  05BD  3040               	movlw	64
  1209  05BE  00B1               	movwf	___flmul@b+3
  1210  05BF  30D1               	movlw	209
  1211  05C0  00B0               	movwf	___flmul@b+2
  1212  05C1  3099               	movlw	153
  1213  05C2  00AF               	movwf	___flmul@b+1
  1214  05C3  309A               	movlw	154
  1215  05C4  00AE               	movwf	___flmul@b
  1216  05C5  120A  118A  2045  120A  118A  	fcall	___flmul
  1217  05CA  1283               	bcf	3,5	;RP0=0, select bank0
  1218  05CB  1303               	bcf	3,6	;RP1=0, select bank0
  1219  05CC  0831               	movf	?___flmul+3,w
  1220  05CD  00CF               	movwf	___fladd@a+3
  1221  05CE  0830               	movf	?___flmul+2,w
  1222  05CF  00CE               	movwf	___fladd@a+2
  1223  05D0  082F               	movf	?___flmul+1,w
  1224  05D1  00CD               	movwf	___fladd@a+1
  1225  05D2  082E               	movf	?___flmul,w
  1226  05D3  00CC               	movwf	___fladd@a
  1227  05D4  3041               	movlw	65
  1228  05D5  00CB               	movwf	___fladd@b+3
  1229  05D6  30F8               	movlw	248
  1230  05D7  00CA               	movwf	___fladd@b+2
  1231  05D8  3000               	movlw	0
  1232  05D9  00C9               	movwf	___fladd@b+1
  1233  05DA  3000               	movlw	0
  1234  05DB  00C8               	movwf	___fladd@b
  1235  05DC  120A  158A  2578  120A  118A  	fcall	___fladd
  1236  05E1  1283               	bcf	3,5	;RP0=0, select bank0
  1237  05E2  1303               	bcf	3,6	;RP1=0, select bank0
  1238  05E3  084B               	movf	?___fladd+3,w
  1239  05E4  00DF               	movwf	___fltol@f1+3
  1240  05E5  084A               	movf	?___fladd+2,w
  1241  05E6  00DE               	movwf	___fltol@f1+2
  1242  05E7  0849               	movf	?___fladd+1,w
  1243  05E8  00DD               	movwf	___fltol@f1+1
  1244  05E9  0848               	movf	?___fladd,w
  1245  05EA  00DC               	movwf	___fltol@f1
  1246  05EB  120A  158A  233E  120A  118A  	fcall	___fltol
  1247  05F0  1283               	bcf	3,5	;RP0=0, select bank0
  1248  05F1  1303               	bcf	3,6	;RP1=0, select bank0
  1249  05F2  085C               	movf	?___fltol,w
  1250  05F3  009B               	movwf	27	;volatile
  1251                           
  1252                           ;main.c: 163:                     break;
  1253  05F4  2E60               	goto	l172
  1254  05F5                     l2876:
  1255                           
  1256                           ;main.c: 165:                     PORTD = 0X04;
  1257  05F5  3004               	movlw	4
  1258  05F6  1283               	bcf	3,5	;RP0=0, select bank0
  1259  05F7  1303               	bcf	3,6	;RP1=0, select bank0
  1260  05F8  0088               	movwf	8	;volatile
  1261  05F9                     l2878:
  1262                           
  1263                           ;main.c: 166:                     CCPR1L = (9.88*(DATO-48)+31);
  1264  05F9  086D               	movf	_DATO,w
  1265  05FA  3ED0               	addlw	208
  1266  05FB  00A0               	movwf	___xxtofl@val
  1267  05FC  086E               	movf	_DATO+1,w
  1268  05FD  1803               	skipnc
  1269  05FE  3E01               	addlw	1
  1270  05FF  3EFF               	addlw	255
  1271  0600  00A1               	movwf	___xxtofl@val+1
  1272  0601  01A2               	clrf	___xxtofl@val+2
  1273  0602  1BA1               	btfsc	___xxtofl@val+1,7
  1274  0603  03A2               	decf	___xxtofl@val+2,f
  1275  0604  0822               	movf	___xxtofl@val+2,w
  1276  0605  00A3               	movwf	___xxtofl@val+3
  1277  0606  3001               	movlw	1
  1278  0607  120A  118A  266D  120A  118A  	fcall	___xxtofl
  1279  060C  1283               	bcf	3,5	;RP0=0, select bank0
  1280  060D  1303               	bcf	3,6	;RP1=0, select bank0
  1281  060E  0823               	movf	?___xxtofl+3,w
  1282  060F  00B5               	movwf	___flmul@a+3
  1283  0610  0822               	movf	?___xxtofl+2,w
  1284  0611  00B4               	movwf	___flmul@a+2
  1285  0612  0821               	movf	?___xxtofl+1,w
  1286  0613  00B3               	movwf	___flmul@a+1
  1287  0614  0820               	movf	?___xxtofl,w
  1288  0615  00B2               	movwf	___flmul@a
  1289  0616  3041               	movlw	65
  1290  0617  00B1               	movwf	___flmul@b+3
  1291  0618  301E               	movlw	30
  1292  0619  00B0               	movwf	___flmul@b+2
  1293  061A  3014               	movlw	20
  1294  061B  00AF               	movwf	___flmul@b+1
  1295  061C  307B               	movlw	123
  1296  061D  00AE               	movwf	___flmul@b
  1297  061E  120A  118A  2045  120A  118A  	fcall	___flmul
  1298  0623  1283               	bcf	3,5	;RP0=0, select bank0
  1299  0624  1303               	bcf	3,6	;RP1=0, select bank0
  1300  0625  0831               	movf	?___flmul+3,w
  1301  0626  00CF               	movwf	___fladd@a+3
  1302  0627  0830               	movf	?___flmul+2,w
  1303  0628  00CE               	movwf	___fladd@a+2
  1304  0629  082F               	movf	?___flmul+1,w
  1305  062A  00CD               	movwf	___fladd@a+1
  1306  062B  082E               	movf	?___flmul,w
  1307  062C  00CC               	movwf	___fladd@a
  1308  062D  3041               	movlw	65
  1309  062E  00CB               	movwf	___fladd@b+3
  1310  062F  30F8               	movlw	248
  1311  0630  00CA               	movwf	___fladd@b+2
  1312  0631  3000               	movlw	0
  1313  0632  00C9               	movwf	___fladd@b+1
  1314  0633  3000               	movlw	0
  1315  0634  00C8               	movwf	___fladd@b
  1316  0635  120A  158A  2578  120A  118A  	fcall	___fladd
  1317  063A  1283               	bcf	3,5	;RP0=0, select bank0
  1318  063B  1303               	bcf	3,6	;RP1=0, select bank0
  1319  063C  084B               	movf	?___fladd+3,w
  1320  063D  00DF               	movwf	___fltol@f1+3
  1321  063E  084A               	movf	?___fladd+2,w
  1322  063F  00DE               	movwf	___fltol@f1+2
  1323  0640  0849               	movf	?___fladd+1,w
  1324  0641  00DD               	movwf	___fltol@f1+1
  1325  0642  0848               	movf	?___fladd,w
  1326  0643  00DC               	movwf	___fltol@f1
  1327  0644  120A  158A  233E  120A  118A  	fcall	___fltol
  1328  0649  1283               	bcf	3,5	;RP0=0, select bank0
  1329  064A  1303               	bcf	3,6	;RP1=0, select bank0
  1330  064B  085C               	movf	?___fltol,w
  1331  064C  0095               	movwf	21	;volatile
  1332                           
  1333                           ;main.c: 167:                     break;
  1334  064D  2E60               	goto	l172
  1335  064E                     l2882:
  1336                           
  1337                           ; Switch on 2 bytes has been partitioned into a top level switch of size 1, and 1 sub-sw
      +                          itches
  1338                           ; Switch size 1, requested type "simple"
  1339                           ; Number of cases is 1, Range of values is 0 to 0
  1340                           ; switch strategies available:
  1341                           ; Name         Instructions Cycles
  1342                           ; simple_byte            4     3 (average)
  1343                           ; direct_byte           11     8 (fixed)
  1344                           ; jumptable            260     6 (fixed)
  1345                           ;	Chosen strategy is simple_byte
  1346  064E  1683               	bsf	3,5	;RP0=1, select bank1
  1347  064F  1303               	bcf	3,6	;RP1=0, select bank1
  1348  0650  0821               	movf	(_SEL+1)^(0+128),w
  1349  0651  3A00               	xorlw	0	; case 0
  1350  0652  1903               	skipnz
  1351  0653  2E55               	goto	l2990
  1352  0654  2E60               	goto	l172
  1353  0655                     l2990:
  1354                           
  1355                           ; Switch size 1, requested type "simple"
  1356                           ; Number of cases is 3, Range of values is 97 to 99
  1357                           ; switch strategies available:
  1358                           ; Name         Instructions Cycles
  1359                           ; simple_byte           10     6 (average)
  1360                           ; direct_byte           20    11 (fixed)
  1361                           ; jumptable            263     9 (fixed)
  1362                           ;	Chosen strategy is simple_byte
  1363  0655  0820               	movf	_SEL^(0+128),w
  1364  0656  3A61               	xorlw	97	; case 97
  1365  0657  1903               	skipnz
  1366  0658  2D41               	goto	l2868
  1367  0659  3A03               	xorlw	3	; case 98
  1368  065A  1903               	skipnz
  1369  065B  2D9C               	goto	l2872
  1370  065C  3A01               	xorlw	1	; case 99
  1371  065D  1903               	skipnz
  1372  065E  2DF5               	goto	l2876
  1373  065F  2E60               	goto	l172
  1374  0660                     l172:	
  1375                           ;main.c: 169:         }
  1376                           
  1377                           
  1378                           ;main.c: 152:         while (RB6 == 1 && RB7 == 0){
  1379  0660  1283               	bcf	3,5	;RP0=0, select bank0
  1380  0661  1F06               	btfss	6,6	;volatile
  1381  0662  2E64               	goto	u3521
  1382  0663  2E65               	goto	u3520
  1383  0664                     u3521:
  1384  0664  2C87               	goto	l153
  1385  0665                     u3520:
  1386  0665                     l2884:
  1387  0665  1F86               	btfss	6,7	;volatile
  1388  0666  2E68               	goto	u3531
  1389  0667  2E69               	goto	u3530
  1390  0668                     u3531:
  1391  0668  2D3E               	goto	l2866
  1392  0669                     u3530:
  1393  0669  2C87               	goto	l2836
  1394  066A  120A  118A  2810   	ljmp	start
  1395  066D                     __end_of_main:
  1396                           
  1397                           	psect	text1
  1398  0AC6                     __ptext1:	
  1399 ;; *************** function _setup *****************
  1400 ;; Defined at:
  1401 ;;		line 173 in file "main.c"
  1402 ;; Parameters:    Size  Location     Type
  1403 ;;		None
  1404 ;; Auto vars:     Size  Location     Type
  1405 ;;		None
  1406 ;; Return value:  Size  Location     Type
  1407 ;;                  1    wreg      void 
  1408 ;; Registers used:
  1409 ;;		wreg, status,2, status,0
  1410 ;; Tracked objects:
  1411 ;;		On entry : 0/0
  1412 ;;		On exit  : 0/0
  1413 ;;		Unchanged: 0/0
  1414 ;; Data sizes:     COMMON   BANK0   BANK1   BANK3   BANK2
  1415 ;;      Params:         0       0       0       0       0
  1416 ;;      Locals:         0       0       0       0       0
  1417 ;;      Temps:          0       1       0       0       0
  1418 ;;      Totals:         0       1       0       0       0
  1419 ;;Total ram usage:        1 bytes
  1420 ;; Hardware stack levels used:    1
  1421 ;; Hardware stack levels required when called:    1
  1422 ;; This function calls:
  1423 ;;		Nothing
  1424 ;; This function is called by:
  1425 ;;		_main
  1426 ;; This function uses a non-reentrant model
  1427 ;;
  1428                           
  1429                           
  1430                           ;psect for function _setup
  1431  0AC6                     _setup:
  1432  0AC6                     l2624:	
  1433                           ;incstack = 0
  1434                           ; Regs used in _setup: [wreg+status,2+status,0]
  1435                           
  1436                           
  1437                           ;main.c: 175:     ANSEL = 0B00001111;
  1438  0AC6  300F               	movlw	15
  1439  0AC7  1683               	bsf	3,5	;RP0=1, select bank3
  1440  0AC8  1703               	bsf	3,6	;RP1=1, select bank3
  1441  0AC9  0088               	movwf	8	;volatile
  1442  0ACA                     l2626:
  1443                           
  1444                           ;main.c: 176:     ANSELH = 0X00;
  1445  0ACA  0189               	clrf	9	;volatile
  1446  0ACB                     l2628:
  1447                           
  1448                           ;main.c: 178:     TRISA = 0B00001111;
  1449  0ACB  300F               	movlw	15
  1450  0ACC  1683               	bsf	3,5	;RP0=1, select bank1
  1451  0ACD  1303               	bcf	3,6	;RP1=0, select bank1
  1452  0ACE  0085               	movwf	5	;volatile
  1453  0ACF                     l2630:
  1454                           
  1455                           ;main.c: 179:     TRISC = 0B10000000;
  1456  0ACF  3080               	movlw	128
  1457  0AD0  0087               	movwf	7	;volatile
  1458  0AD1                     l2632:
  1459                           
  1460                           ;main.c: 180:     TRISD = 0X00;
  1461  0AD1  0188               	clrf	8	;volatile
  1462  0AD2                     l2634:
  1463                           
  1464                           ;main.c: 181:     TRISE = 0X00;
  1465  0AD2  0189               	clrf	9	;volatile
  1466  0AD3                     l2636:
  1467                           
  1468                           ;main.c: 182:     TRISB = 0B11110011;
  1469  0AD3  30F3               	movlw	243
  1470  0AD4  0086               	movwf	6	;volatile
  1471                           
  1472                           ;main.c: 184:     PORTA = 0X00;
  1473  0AD5  1283               	bcf	3,5	;RP0=0, select bank0
  1474  0AD6  1303               	bcf	3,6	;RP1=0, select bank0
  1475  0AD7  0185               	clrf	5	;volatile
  1476                           
  1477                           ;main.c: 185:     PORTB = 0X00;
  1478  0AD8  0186               	clrf	6	;volatile
  1479                           
  1480                           ;main.c: 186:     PORTC = 0X00;
  1481  0AD9  0187               	clrf	7	;volatile
  1482                           
  1483                           ;main.c: 187:     PORTD = 0X00;
  1484  0ADA  0188               	clrf	8	;volatile
  1485                           
  1486                           ;main.c: 188:     PORTE = 0X00;
  1487  0ADB  0189               	clrf	9	;volatile
  1488  0ADC                     l2638:
  1489                           
  1490                           ;main.c: 191:     OSCCONbits.IRCF2 = 1;
  1491  0ADC  1683               	bsf	3,5	;RP0=1, select bank1
  1492  0ADD  1303               	bcf	3,6	;RP1=0, select bank1
  1493  0ADE  170F               	bsf	15,6	;volatile
  1494  0ADF                     l2640:
  1495                           
  1496                           ;main.c: 192:     OSCCONbits.IRCF1 = 1;
  1497  0ADF  168F               	bsf	15,5	;volatile
  1498  0AE0                     l2642:
  1499                           
  1500                           ;main.c: 193:     OSCCONbits.IRCF0 = 0;
  1501  0AE0  120F               	bcf	15,4	;volatile
  1502  0AE1                     l2644:
  1503                           
  1504                           ;main.c: 194:     OSCCONbits.SCS = 1;
  1505  0AE1  140F               	bsf	15,0	;volatile
  1506  0AE2                     l2646:
  1507                           
  1508                           ;main.c: 197:     OPTION_REG = 0B01000000;
  1509  0AE2  3040               	movlw	64
  1510  0AE3  0081               	movwf	1	;volatile
  1511  0AE4                     l2648:
  1512                           
  1513                           ;main.c: 198:     TMR0 = 206;
  1514  0AE4  30CE               	movlw	206
  1515  0AE5  1283               	bcf	3,5	;RP0=0, select bank0
  1516  0AE6  1303               	bcf	3,6	;RP1=0, select bank0
  1517  0AE7  0081               	movwf	1	;volatile
  1518  0AE8                     l2650:
  1519                           
  1520                           ;main.c: 200:     WPUB = 0B11110011;
  1521  0AE8  30F3               	movlw	243
  1522  0AE9  1683               	bsf	3,5	;RP0=1, select bank1
  1523  0AEA  1303               	bcf	3,6	;RP1=0, select bank1
  1524  0AEB  0095               	movwf	21	;volatile
  1525  0AEC                     l2652:
  1526                           
  1527                           ;main.c: 201:     IOCB = 0B11110011;
  1528  0AEC  30F3               	movlw	243
  1529  0AED  0096               	movwf	22	;volatile
  1530  0AEE                     l2654:
  1531                           
  1532                           ;main.c: 203:     T2CON = 0B11111111;
  1533  0AEE  30FF               	movlw	255
  1534  0AEF  1283               	bcf	3,5	;RP0=0, select bank0
  1535  0AF0  1303               	bcf	3,6	;RP1=0, select bank0
  1536  0AF1  0092               	movwf	18	;volatile
  1537  0AF2                     l2656:
  1538                           
  1539                           ;main.c: 204:     PR2 = 187;
  1540  0AF2  30BB               	movlw	187
  1541  0AF3  1683               	bsf	3,5	;RP0=1, select bank1
  1542  0AF4  1303               	bcf	3,6	;RP1=0, select bank1
  1543  0AF5  0092               	movwf	18	;volatile
  1544  0AF6                     l2658:
  1545                           
  1546                           ;main.c: 206:     CCP1CON = 0B00001100;
  1547  0AF6  300C               	movlw	12
  1548  0AF7  1283               	bcf	3,5	;RP0=0, select bank0
  1549  0AF8  1303               	bcf	3,6	;RP1=0, select bank0
  1550  0AF9  0097               	movwf	23	;volatile
  1551  0AFA                     l2660:
  1552                           
  1553                           ;main.c: 208:     CCP2CONbits.CCP2M0 = 1;
  1554  0AFA  141D               	bsf	29,0	;volatile
  1555  0AFB                     l2662:
  1556                           
  1557                           ;main.c: 209:     CCP2CONbits.CCP2M1 = 1;
  1558  0AFB  149D               	bsf	29,1	;volatile
  1559  0AFC                     l2664:
  1560                           
  1561                           ;main.c: 210:     CCP2CONbits.CCP2M2 = 1;
  1562  0AFC  151D               	bsf	29,2	;volatile
  1563  0AFD                     l2666:
  1564                           
  1565                           ;main.c: 211:     CCP2CONbits.CCP2M3 = 1;
  1566  0AFD  159D               	bsf	29,3	;volatile
  1567  0AFE                     l2668:
  1568                           
  1569                           ;main.c: 212:     CCP2CONbits.DC2B0 = 0;
  1570  0AFE  121D               	bcf	29,4	;volatile
  1571  0AFF                     l2670:
  1572                           
  1573                           ;main.c: 213:     CCP2CONbits.DC2B1 = 0;
  1574  0AFF  129D               	bcf	29,5	;volatile
  1575  0B00                     l2672:
  1576                           
  1577                           ;main.c: 215:     ADCON0bits.ADON = 0X01;
  1578  0B00  141F               	bsf	31,0	;volatile
  1579  0B01                     l2674:
  1580                           
  1581                           ;main.c: 216:     ADCON0bits.CHS = 0;
  1582  0B01  30C3               	movlw	-61
  1583  0B02  059F               	andwf	31,f	;volatile
  1584  0B03                     l2676:
  1585                           
  1586                           ;main.c: 217:     _delay((unsigned long)((100)*(4000000/4000000.0)));
  1587  0B03  3020               	movlw	32
  1588  0B04  1283               	bcf	3,5	;RP0=0, select bank0
  1589  0B05  1303               	bcf	3,6	;RP1=0, select bank0
  1590  0B06  00A0               	movwf	??_setup
  1591  0B07                     u3547:
  1592  0B07  0BA0               	decfsz	??_setup,f
  1593  0B08  2B07               	goto	u3547
  1594  0B09  0000               	nop
  1595  0B0A                     l2678:
  1596                           
  1597                           ;main.c: 218:     ADCON0bits.ADCS = 0X01;
  1598  0B0A  1283               	bcf	3,5	;RP0=0, select bank0
  1599  0B0B  1303               	bcf	3,6	;RP1=0, select bank0
  1600  0B0C  081F               	movf	31,w	;volatile
  1601  0B0D  393F               	andlw	-193
  1602  0B0E  3840               	iorlw	64
  1603  0B0F  009F               	movwf	31	;volatile
  1604  0B10                     l2680:
  1605                           
  1606                           ;main.c: 219:     ADCON1bits.ADFM = 0;
  1607  0B10  1683               	bsf	3,5	;RP0=1, select bank1
  1608  0B11  1303               	bcf	3,6	;RP1=0, select bank1
  1609  0B12  139F               	bcf	31,7	;volatile
  1610  0B13                     l2682:
  1611                           
  1612                           ;main.c: 220:     ADCON1bits.VCFG0 = 0;
  1613  0B13  121F               	bcf	31,4	;volatile
  1614  0B14                     l2684:
  1615                           
  1616                           ;main.c: 221:     ADCON1bits.VCFG1 = 0;
  1617  0B14  129F               	bcf	31,5	;volatile
  1618  0B15                     l2686:
  1619                           
  1620                           ;main.c: 223:     INTCONbits.GIE = 1;
  1621  0B15  178B               	bsf	11,7	;volatile
  1622  0B16                     l2688:
  1623                           
  1624                           ;main.c: 224:     INTCONbits.T0IE = 1;
  1625  0B16  168B               	bsf	11,5	;volatile
  1626  0B17                     l2690:
  1627                           
  1628                           ;main.c: 225:     INTCONbits.T0IF = 0;
  1629  0B17  110B               	bcf	11,2	;volatile
  1630  0B18                     l2692:
  1631                           
  1632                           ;main.c: 226:     PIE1bits.ADIE = 1;
  1633  0B18  170C               	bsf	12,6	;volatile
  1634  0B19                     l2694:
  1635                           
  1636                           ;main.c: 227:     PIR1bits.ADIF = 0;
  1637  0B19  1283               	bcf	3,5	;RP0=0, select bank0
  1638  0B1A  1303               	bcf	3,6	;RP1=0, select bank0
  1639  0B1B  130C               	bcf	12,6	;volatile
  1640  0B1C                     l2696:
  1641                           
  1642                           ;main.c: 228:     INTCONbits.RBIE = 0;
  1643  0B1C  118B               	bcf	11,3	;volatile
  1644  0B1D                     l2698:
  1645                           
  1646                           ;main.c: 229:     INTCONbits.RBIF = 0;
  1647  0B1D  100B               	bcf	11,0	;volatile
  1648  0B1E                     l2700:
  1649                           
  1650                           ;main.c: 230:     INTCONbits.PEIE = 1;
  1651  0B1E  170B               	bsf	11,6	;volatile
  1652  0B1F                     l2702:
  1653                           
  1654                           ;main.c: 231:     PIE1bits.RCIE = 1;
  1655  0B1F  1683               	bsf	3,5	;RP0=1, select bank1
  1656  0B20  1303               	bcf	3,6	;RP1=0, select bank1
  1657  0B21  168C               	bsf	12,5	;volatile
  1658  0B22                     l2704:
  1659                           
  1660                           ;main.c: 232:     PIR1bits.RCIF = 0;
  1661  0B22  1283               	bcf	3,5	;RP0=0, select bank0
  1662  0B23  1303               	bcf	3,6	;RP1=0, select bank0
  1663  0B24  128C               	bcf	12,5	;volatile
  1664  0B25                     l2706:
  1665                           
  1666                           ;main.c: 234:     TXSTAbits.TXEN = 1;
  1667  0B25  1683               	bsf	3,5	;RP0=1, select bank1
  1668  0B26  1303               	bcf	3,6	;RP1=0, select bank1
  1669  0B27  1698               	bsf	24,5	;volatile
  1670  0B28                     l2708:
  1671                           
  1672                           ;main.c: 235:     TXSTAbits.SYNC = 0;
  1673  0B28  1218               	bcf	24,4	;volatile
  1674  0B29                     l2710:
  1675                           
  1676                           ;main.c: 236:     RCSTAbits.SPEN = 1;
  1677  0B29  1283               	bcf	3,5	;RP0=0, select bank0
  1678  0B2A  1303               	bcf	3,6	;RP1=0, select bank0
  1679  0B2B  1798               	bsf	24,7	;volatile
  1680  0B2C                     l2712:
  1681                           
  1682                           ;main.c: 237:     TXSTAbits.TX9 = 0;
  1683  0B2C  1683               	bsf	3,5	;RP0=1, select bank1
  1684  0B2D  1303               	bcf	3,6	;RP1=0, select bank1
  1685  0B2E  1318               	bcf	24,6	;volatile
  1686  0B2F                     l2714:
  1687                           
  1688                           ;main.c: 239:     RCSTAbits.CREN = 1;
  1689  0B2F  1283               	bcf	3,5	;RP0=0, select bank0
  1690  0B30  1303               	bcf	3,6	;RP1=0, select bank0
  1691  0B31  1618               	bsf	24,4	;volatile
  1692  0B32                     l2716:
  1693                           
  1694                           ;main.c: 240:     RCSTAbits.RX9 = 0;
  1695  0B32  1318               	bcf	24,6	;volatile
  1696  0B33                     l2718:
  1697                           
  1698                           ;main.c: 242:     BAUDCTLbits.BRG16 = 0;
  1699  0B33  1683               	bsf	3,5	;RP0=1, select bank3
  1700  0B34  1703               	bsf	3,6	;RP1=1, select bank3
  1701  0B35  1187               	bcf	7,3	;volatile
  1702  0B36                     l2720:
  1703                           
  1704                           ;main.c: 243:     SPBRG = 25;
  1705  0B36  3019               	movlw	25
  1706  0B37  1683               	bsf	3,5	;RP0=1, select bank1
  1707  0B38  1303               	bcf	3,6	;RP1=0, select bank1
  1708  0B39  0099               	movwf	25	;volatile
  1709  0B3A                     l2722:
  1710                           
  1711                           ;main.c: 244:     SPBRGH = 1;
  1712  0B3A  3001               	movlw	1
  1713  0B3B  009A               	movwf	26	;volatile
  1714  0B3C                     l2724:
  1715                           
  1716                           ;main.c: 245:     TXSTAbits.BRGH = 1;
  1717  0B3C  1518               	bsf	24,2	;volatile
  1718  0B3D                     l187:
  1719  0B3D  0008               	return
  1720  0B3E                     __end_of_setup:
  1721                           
  1722                           	psect	text2
  1723  07D1                     __ptext2:	
  1724 ;; *************** function _EEPROM_W *****************
  1725 ;; Defined at:
  1726 ;;		line 291 in file "main.c"
  1727 ;; Parameters:    Size  Location     Type
  1728 ;;  dato            2    0[BANK0 ] unsigned int 
  1729 ;;  add             2    2[BANK0 ] int 
  1730 ;; Auto vars:     Size  Location     Type
  1731 ;;		None
  1732 ;; Return value:  Size  Location     Type
  1733 ;;                  1    wreg      void 
  1734 ;; Registers used:
  1735 ;;		wreg
  1736 ;; Tracked objects:
  1737 ;;		On entry : 0/0
  1738 ;;		On exit  : 0/0
  1739 ;;		Unchanged: 0/0
  1740 ;; Data sizes:     COMMON   BANK0   BANK1   BANK3   BANK2
  1741 ;;      Params:         0       4       0       0       0
  1742 ;;      Locals:         0       0       0       0       0
  1743 ;;      Temps:          0       0       0       0       0
  1744 ;;      Totals:         0       4       0       0       0
  1745 ;;Total ram usage:        4 bytes
  1746 ;; Hardware stack levels used:    1
  1747 ;; Hardware stack levels required when called:    1
  1748 ;; This function calls:
  1749 ;;		Nothing
  1750 ;; This function is called by:
  1751 ;;		_main
  1752 ;; This function uses a non-reentrant model
  1753 ;;
  1754                           
  1755                           
  1756                           ;psect for function _EEPROM_W
  1757  07D1                     _EEPROM_W:
  1758  07D1                     l2788:	
  1759                           ;incstack = 0
  1760                           ; Regs used in _EEPROM_W: [wreg]
  1761                           
  1762                           
  1763                           ;main.c: 292:     EEADR = add;
  1764  07D1  1283               	bcf	3,5	;RP0=0, select bank0
  1765  07D2  1303               	bcf	3,6	;RP1=0, select bank0
  1766  07D3  0822               	movf	EEPROM_W@add,w
  1767  07D4  1283               	bcf	3,5	;RP0=0, select bank2
  1768  07D5  1703               	bsf	3,6	;RP1=1, select bank2
  1769  07D6  008D               	movwf	13	;volatile
  1770                           
  1771                           ;main.c: 293:     EEDAT = dato;
  1772  07D7  1283               	bcf	3,5	;RP0=0, select bank0
  1773  07D8  1303               	bcf	3,6	;RP1=0, select bank0
  1774  07D9  0820               	movf	EEPROM_W@dato,w
  1775  07DA  1283               	bcf	3,5	;RP0=0, select bank2
  1776  07DB  1703               	bsf	3,6	;RP1=1, select bank2
  1777  07DC  008C               	movwf	12	;volatile
  1778  07DD                     l2790:
  1779                           
  1780                           ;main.c: 294:     EECON1bits.EEPGD = 0;
  1781  07DD  1683               	bsf	3,5	;RP0=1, select bank3
  1782  07DE  1703               	bsf	3,6	;RP1=1, select bank3
  1783  07DF  138C               	bcf	12,7	;volsfr
  1784  07E0                     l2792:
  1785                           
  1786                           ;main.c: 295:     EECON1bits.WREN = 1;
  1787  07E0  150C               	bsf	12,2	;volsfr
  1788  07E1                     l2794:
  1789                           
  1790                           ;main.c: 296:     INTCONbits.GIE = 0;
  1791  07E1  138B               	bcf	11,7	;volatile
  1792                           
  1793                           ;main.c: 297:     EECON2 = 0X55;
  1794  07E2  3055               	movlw	85
  1795  07E3  008D               	movwf	13	;volsfr
  1796                           
  1797                           ;main.c: 298:     EECON2 = 0XAA;
  1798  07E4  30AA               	movlw	170
  1799  07E5  008D               	movwf	13	;volsfr
  1800  07E6                     l2796:
  1801                           
  1802                           ;main.c: 299:     EECON1bits.WR = 1;
  1803  07E6  148C               	bsf	12,1	;volsfr
  1804  07E7                     l204:	
  1805                           ;main.c: 300:     while(PIR2bits.EEIF == 0);
  1806                           
  1807  07E7  1283               	bcf	3,5	;RP0=0, select bank0
  1808  07E8  1303               	bcf	3,6	;RP1=0, select bank0
  1809  07E9  1E0D               	btfss	13,4	;volatile
  1810  07EA  2FEC               	goto	u3391
  1811  07EB  2FED               	goto	u3390
  1812  07EC                     u3391:
  1813  07EC  2FE7               	goto	l204
  1814  07ED                     u3390:
  1815  07ED                     l206:
  1816                           
  1817                           ;main.c: 301:     PIR2bits.EEIF = 0;
  1818  07ED  120D               	bcf	13,4	;volatile
  1819                           
  1820                           ;main.c: 302:     EECON1bits.WREN = 0;
  1821  07EE  1683               	bsf	3,5	;RP0=1, select bank3
  1822  07EF  1703               	bsf	3,6	;RP1=1, select bank3
  1823  07F0  110C               	bcf	12,2	;volsfr
  1824                           
  1825                           ;main.c: 303:     INTCONbits.GIE = 1;
  1826  07F1  178B               	bsf	11,7	;volatile
  1827  07F2                     l207:
  1828  07F2  0008               	return
  1829  07F3                     __end_of_EEPROM_W:
  1830                           
  1831                           	psect	text3
  1832  0AAC                     __ptext3:	
  1833 ;; *************** function _EEPROM_R *****************
  1834 ;; Defined at:
  1835 ;;		line 307 in file "main.c"
  1836 ;; Parameters:    Size  Location     Type
  1837 ;;  add             2    0[BANK0 ] unsigned int 
  1838 ;; Auto vars:     Size  Location     Type
  1839 ;;  dato            2    4[BANK0 ] unsigned int 
  1840 ;; Return value:  Size  Location     Type
  1841 ;;                  2    0[BANK0 ] unsigned int 
  1842 ;; Registers used:
  1843 ;;		wreg
  1844 ;; Tracked objects:
  1845 ;;		On entry : 0/0
  1846 ;;		On exit  : 0/0
  1847 ;;		Unchanged: 0/0
  1848 ;; Data sizes:     COMMON   BANK0   BANK1   BANK3   BANK2
  1849 ;;      Params:         0       2       0       0       0
  1850 ;;      Locals:         0       2       0       0       0
  1851 ;;      Temps:          0       2       0       0       0
  1852 ;;      Totals:         0       6       0       0       0
  1853 ;;Total ram usage:        6 bytes
  1854 ;; Hardware stack levels used:    1
  1855 ;; Hardware stack levels required when called:    1
  1856 ;; This function calls:
  1857 ;;		Nothing
  1858 ;; This function is called by:
  1859 ;;		_main
  1860 ;; This function uses a non-reentrant model
  1861 ;;
  1862                           
  1863                           
  1864                           ;psect for function _EEPROM_R
  1865  0AAC                     _EEPROM_R:
  1866  0AAC                     l2798:	
  1867                           ;incstack = 0
  1868                           ; Regs used in _EEPROM_R: [wreg]
  1869                           
  1870                           
  1871                           ;main.c: 308:     EEADR = add;
  1872  0AAC  1283               	bcf	3,5	;RP0=0, select bank0
  1873  0AAD  1303               	bcf	3,6	;RP1=0, select bank0
  1874  0AAE  0820               	movf	EEPROM_R@add,w
  1875  0AAF  1283               	bcf	3,5	;RP0=0, select bank2
  1876  0AB0  1703               	bsf	3,6	;RP1=1, select bank2
  1877  0AB1  008D               	movwf	13	;volatile
  1878  0AB2                     l2800:
  1879                           
  1880                           ;main.c: 309:     EECON1bits.EEPGD = 0;
  1881  0AB2  1683               	bsf	3,5	;RP0=1, select bank3
  1882  0AB3  1703               	bsf	3,6	;RP1=1, select bank3
  1883  0AB4  138C               	bcf	12,7	;volsfr
  1884  0AB5                     l2802:
  1885                           
  1886                           ;main.c: 310:     EECON1bits.RD = 1;
  1887  0AB5  140C               	bsf	12,0	;volsfr
  1888                           
  1889                           ;main.c: 311:     unsigned int dato = EEDATA;
  1890  0AB6  1283               	bcf	3,5	;RP0=0, select bank2
  1891  0AB7  1703               	bsf	3,6	;RP1=1, select bank2
  1892  0AB8  080C               	movf	12,w	;volatile
  1893  0AB9  1283               	bcf	3,5	;RP0=0, select bank0
  1894  0ABA  1303               	bcf	3,6	;RP1=0, select bank0
  1895  0ABB  00A2               	movwf	??_EEPROM_R
  1896  0ABC  01A3               	clrf	??_EEPROM_R+1
  1897  0ABD  0822               	movf	??_EEPROM_R,w
  1898  0ABE  00A4               	movwf	EEPROM_R@dato
  1899  0ABF  0823               	movf	??_EEPROM_R+1,w
  1900  0AC0  00A5               	movwf	EEPROM_R@dato+1
  1901                           
  1902                           ;main.c: 312:     return dato;
  1903  0AC1  0825               	movf	EEPROM_R@dato+1,w
  1904  0AC2  00A1               	movwf	?_EEPROM_R+1
  1905  0AC3  0824               	movf	EEPROM_R@dato,w
  1906  0AC4  00A0               	movwf	?_EEPROM_R
  1907  0AC5                     l210:
  1908  0AC5  0008               	return
  1909  0AC6                     __end_of_EEPROM_R:
  1910                           
  1911                           	psect	text4
  1912  0BBA                     __ptext4:	
  1913 ;; *************** function _ANALOGICOS *****************
  1914 ;; Defined at:
  1915 ;;		line 249 in file "main.c"
  1916 ;; Parameters:    Size  Location     Type
  1917 ;;  VALORAN         2   71[BANK0 ] int 
  1918 ;; Auto vars:     Size  Location     Type
  1919 ;;		None
  1920 ;; Return value:  Size  Location     Type
  1921 ;;                  1    wreg      void 
  1922 ;; Registers used:
  1923 ;;		wreg, fsr0l, fsr0h, status,2, status,0, btemp+1, pclath, cstack
  1924 ;; Tracked objects:
  1925 ;;		On entry : 0/0
  1926 ;;		On exit  : 0/0
  1927 ;;		Unchanged: 0/0
  1928 ;; Data sizes:     COMMON   BANK0   BANK1   BANK3   BANK2
  1929 ;;      Params:         0       2       0       0       0
  1930 ;;      Locals:         0       0       0       0       0
  1931 ;;      Temps:          0       0       3       0       0
  1932 ;;      Totals:         0       2       3       0       0
  1933 ;;Total ram usage:        5 bytes
  1934 ;; Hardware stack levels used:    1
  1935 ;; Hardware stack levels required when called:    3
  1936 ;; This function calls:
  1937 ;;		___fladd
  1938 ;;		___flmul
  1939 ;;		___fltol
  1940 ;;		___xxtofl
  1941 ;; This function is called by:
  1942 ;;		_main
  1943 ;; This function uses a non-reentrant model
  1944 ;;
  1945                           
  1946                           
  1947                           ;psect for function _ANALOGICOS
  1948  0BBA                     _ANALOGICOS:
  1949  0BBA                     l2726:	
  1950                           ;incstack = 0
  1951                           ; Regs used in _ANALOGICOS: [wreg-fsr0h+status,2+status,0+btemp+1+pclath+cstack]
  1952                           
  1953                           
  1954                           ;main.c: 251:     switch(ADCON0bits.CHS){
  1955  0BBA  2D5A               	goto	l2780
  1956  0BBB                     l2728:
  1957                           
  1958                           ;main.c: 253:             POT0 = ((0.0380*VALORAN)+5);
  1959  0BBB  1283               	bcf	3,5	;RP0=0, select bank0
  1960  0BBC  1303               	bcf	3,6	;RP1=0, select bank0
  1961  0BBD  0867               	movf	ANALOGICOS@VALORAN,w
  1962  0BBE  00A0               	movwf	___xxtofl@val
  1963  0BBF  0868               	movf	ANALOGICOS@VALORAN+1,w
  1964  0BC0  00A1               	movwf	___xxtofl@val+1
  1965  0BC1  3000               	movlw	0
  1966  0BC2  1BA1               	btfsc	___xxtofl@val+1,7
  1967  0BC3  30FF               	movlw	255
  1968  0BC4  00A2               	movwf	___xxtofl@val+2
  1969  0BC5  00A3               	movwf	___xxtofl@val+3
  1970  0BC6  3001               	movlw	1
  1971  0BC7  120A  118A  266D  120A  158A  	fcall	___xxtofl
  1972  0BCC  1283               	bcf	3,5	;RP0=0, select bank0
  1973  0BCD  1303               	bcf	3,6	;RP1=0, select bank0
  1974  0BCE  0823               	movf	?___xxtofl+3,w
  1975  0BCF  00B5               	movwf	___flmul@a+3
  1976  0BD0  0822               	movf	?___xxtofl+2,w
  1977  0BD1  00B4               	movwf	___flmul@a+2
  1978  0BD2  0821               	movf	?___xxtofl+1,w
  1979  0BD3  00B3               	movwf	___flmul@a+1
  1980  0BD4  0820               	movf	?___xxtofl,w
  1981  0BD5  00B2               	movwf	___flmul@a
  1982  0BD6  303D               	movlw	61
  1983  0BD7  00B1               	movwf	___flmul@b+3
  1984  0BD8  301B               	movlw	27
  1985  0BD9  00B0               	movwf	___flmul@b+2
  1986  0BDA  30A5               	movlw	165
  1987  0BDB  00AF               	movwf	___flmul@b+1
  1988  0BDC  30E3               	movlw	227
  1989  0BDD  00AE               	movwf	___flmul@b
  1990  0BDE  120A  118A  2045  120A  158A  	fcall	___flmul
  1991  0BE3  1283               	bcf	3,5	;RP0=0, select bank0
  1992  0BE4  1303               	bcf	3,6	;RP1=0, select bank0
  1993  0BE5  0831               	movf	?___flmul+3,w
  1994  0BE6  00CF               	movwf	___fladd@a+3
  1995  0BE7  0830               	movf	?___flmul+2,w
  1996  0BE8  00CE               	movwf	___fladd@a+2
  1997  0BE9  082F               	movf	?___flmul+1,w
  1998  0BEA  00CD               	movwf	___fladd@a+1
  1999  0BEB  082E               	movf	?___flmul,w
  2000  0BEC  00CC               	movwf	___fladd@a
  2001  0BED  3040               	movlw	64
  2002  0BEE  00CB               	movwf	___fladd@b+3
  2003  0BEF  30A0               	movlw	160
  2004  0BF0  00CA               	movwf	___fladd@b+2
  2005  0BF1  3000               	movlw	0
  2006  0BF2  00C9               	movwf	___fladd@b+1
  2007  0BF3  3000               	movlw	0
  2008  0BF4  00C8               	movwf	___fladd@b
  2009  0BF5  120A  158A  2578  120A  158A  	fcall	___fladd
  2010  0BFA  1283               	bcf	3,5	;RP0=0, select bank0
  2011  0BFB  1303               	bcf	3,6	;RP1=0, select bank0
  2012  0BFC  084B               	movf	?___fladd+3,w
  2013  0BFD  00DF               	movwf	___fltol@f1+3
  2014  0BFE  084A               	movf	?___fladd+2,w
  2015  0BFF  00DE               	movwf	___fltol@f1+2
  2016  0C00  0849               	movf	?___fladd+1,w
  2017  0C01  00DD               	movwf	___fltol@f1+1
  2018  0C02  0848               	movf	?___fladd,w
  2019  0C03  00DC               	movwf	___fltol@f1
  2020  0C04  120A  158A  233E  120A  158A  	fcall	___fltol
  2021  0C09  1283               	bcf	3,5	;RP0=0, select bank0
  2022  0C0A  1303               	bcf	3,6	;RP1=0, select bank0
  2023  0C0B  085D               	movf	?___fltol+1,w
  2024  0C0C  00F8               	movwf	_POT0+1
  2025  0C0D  085C               	movf	?___fltol,w
  2026  0C0E  00F7               	movwf	_POT0
  2027  0C0F                     l2730:
  2028                           
  2029                           ;main.c: 254:             ADCON0bits.CHS = 1;
  2030  0C0F  081F               	movf	31,w	;volatile
  2031  0C10  39C3               	andlw	-61
  2032  0C11  3804               	iorlw	4
  2033  0C12  009F               	movwf	31	;volatile
  2034  0C13                     l2732:
  2035                           
  2036                           ;main.c: 255:            _delay((unsigned long)((100)*(4000000/4000000.0)));
  2037  0C13  3020               	movlw	32
  2038  0C14  1683               	bsf	3,5	;RP0=1, select bank1
  2039  0C15  1303               	bcf	3,6	;RP1=0, select bank1
  2040  0C16  00A8               	movwf	??_ANALOGICOS^(0+128)
  2041  0C17                     u3557:
  2042  0C17  0BA8               	decfsz	??_ANALOGICOS^(0+128),f
  2043  0C18  2C17               	goto	u3557
  2044  0C19  0000               	nop
  2045  0C1A                     l2734:
  2046                           
  2047                           ;main.c: 256:             ADCON0bits.GO = 1;
  2048  0C1A  1283               	bcf	3,5	;RP0=0, select bank0
  2049  0C1B  1303               	bcf	3,6	;RP1=0, select bank0
  2050  0C1C  149F               	bsf	31,1	;volatile
  2051                           
  2052                           ;main.c: 257:             break;
  2053  0C1D  2D77               	goto	l201
  2054  0C1E                     l2736:
  2055                           
  2056                           ;main.c: 260:             POT1 = (((0.47*VALORAN)+31));
  2057  0C1E  1283               	bcf	3,5	;RP0=0, select bank0
  2058  0C1F  1303               	bcf	3,6	;RP1=0, select bank0
  2059  0C20  0867               	movf	ANALOGICOS@VALORAN,w
  2060  0C21  00A0               	movwf	___xxtofl@val
  2061  0C22  0868               	movf	ANALOGICOS@VALORAN+1,w
  2062  0C23  00A1               	movwf	___xxtofl@val+1
  2063  0C24  3000               	movlw	0
  2064  0C25  1BA1               	btfsc	___xxtofl@val+1,7
  2065  0C26  30FF               	movlw	255
  2066  0C27  00A2               	movwf	___xxtofl@val+2
  2067  0C28  00A3               	movwf	___xxtofl@val+3
  2068  0C29  3001               	movlw	1
  2069  0C2A  120A  118A  266D  120A  158A  	fcall	___xxtofl
  2070  0C2F  1283               	bcf	3,5	;RP0=0, select bank0
  2071  0C30  1303               	bcf	3,6	;RP1=0, select bank0
  2072  0C31  0823               	movf	?___xxtofl+3,w
  2073  0C32  00B5               	movwf	___flmul@a+3
  2074  0C33  0822               	movf	?___xxtofl+2,w
  2075  0C34  00B4               	movwf	___flmul@a+2
  2076  0C35  0821               	movf	?___xxtofl+1,w
  2077  0C36  00B3               	movwf	___flmul@a+1
  2078  0C37  0820               	movf	?___xxtofl,w
  2079  0C38  00B2               	movwf	___flmul@a
  2080  0C39  303E               	movlw	62
  2081  0C3A  00B1               	movwf	___flmul@b+3
  2082  0C3B  30F0               	movlw	240
  2083  0C3C  00B0               	movwf	___flmul@b+2
  2084  0C3D  30A3               	movlw	163
  2085  0C3E  00AF               	movwf	___flmul@b+1
  2086  0C3F  30D7               	movlw	215
  2087  0C40  00AE               	movwf	___flmul@b
  2088  0C41  120A  118A  2045  120A  158A  	fcall	___flmul
  2089  0C46  1283               	bcf	3,5	;RP0=0, select bank0
  2090  0C47  1303               	bcf	3,6	;RP1=0, select bank0
  2091  0C48  0831               	movf	?___flmul+3,w
  2092  0C49  00CF               	movwf	___fladd@a+3
  2093  0C4A  0830               	movf	?___flmul+2,w
  2094  0C4B  00CE               	movwf	___fladd@a+2
  2095  0C4C  082F               	movf	?___flmul+1,w
  2096  0C4D  00CD               	movwf	___fladd@a+1
  2097  0C4E  082E               	movf	?___flmul,w
  2098  0C4F  00CC               	movwf	___fladd@a
  2099  0C50  3041               	movlw	65
  2100  0C51  00CB               	movwf	___fladd@b+3
  2101  0C52  30F8               	movlw	248
  2102  0C53  00CA               	movwf	___fladd@b+2
  2103  0C54  3000               	movlw	0
  2104  0C55  00C9               	movwf	___fladd@b+1
  2105  0C56  3000               	movlw	0
  2106  0C57  00C8               	movwf	___fladd@b
  2107  0C58  120A  158A  2578  120A  158A  	fcall	___fladd
  2108  0C5D  1283               	bcf	3,5	;RP0=0, select bank0
  2109  0C5E  1303               	bcf	3,6	;RP1=0, select bank0
  2110  0C5F  084B               	movf	?___fladd+3,w
  2111  0C60  00DF               	movwf	___fltol@f1+3
  2112  0C61  084A               	movf	?___fladd+2,w
  2113  0C62  00DE               	movwf	___fltol@f1+2
  2114  0C63  0849               	movf	?___fladd+1,w
  2115  0C64  00DD               	movwf	___fltol@f1+1
  2116  0C65  0848               	movf	?___fladd,w
  2117  0C66  00DC               	movwf	___fltol@f1
  2118  0C67  120A  158A  233E  120A  158A  	fcall	___fltol
  2119  0C6C  1283               	bcf	3,5	;RP0=0, select bank0
  2120  0C6D  1303               	bcf	3,6	;RP1=0, select bank0
  2121  0C6E  085D               	movf	?___fltol+1,w
  2122  0C6F  00F6               	movwf	_POT1+1
  2123  0C70  085C               	movf	?___fltol,w
  2124  0C71  00F5               	movwf	_POT1
  2125  0C72                     l2738:
  2126                           
  2127                           ;main.c: 261:             CCPR1L = POT1;
  2128  0C72  0875               	movf	_POT1,w
  2129  0C73  0095               	movwf	21	;volatile
  2130  0C74                     l2740:
  2131                           
  2132                           ;main.c: 262:             ADCON0bits.CHS = 2;
  2133  0C74  081F               	movf	31,w	;volatile
  2134  0C75  39C3               	andlw	-61
  2135  0C76  3808               	iorlw	8
  2136  0C77  009F               	movwf	31	;volatile
  2137  0C78                     l2742:
  2138                           
  2139                           ;main.c: 263:             _delay((unsigned long)((100)*(4000000/4000000.0)));
  2140  0C78  3020               	movlw	32
  2141  0C79  1683               	bsf	3,5	;RP0=1, select bank1
  2142  0C7A  1303               	bcf	3,6	;RP1=0, select bank1
  2143  0C7B  00A8               	movwf	??_ANALOGICOS^(0+128)
  2144  0C7C                     u3567:
  2145  0C7C  0BA8               	decfsz	??_ANALOGICOS^(0+128),f
  2146  0C7D  2C7C               	goto	u3567
  2147  0C7E  0000               	nop
  2148  0C7F                     l2744:
  2149                           
  2150                           ;main.c: 264:            ADCON0bits.GO = 1;
  2151  0C7F  1283               	bcf	3,5	;RP0=0, select bank0
  2152  0C80  1303               	bcf	3,6	;RP1=0, select bank0
  2153  0C81  149F               	bsf	31,1	;volatile
  2154                           
  2155                           ;main.c: 265:             break;
  2156  0C82  2D77               	goto	l201
  2157  0C83                     l2746:
  2158                           
  2159                           ;main.c: 268:             POT2 = ((0.23*VALORAN)+31);
  2160  0C83  1283               	bcf	3,5	;RP0=0, select bank0
  2161  0C84  1303               	bcf	3,6	;RP1=0, select bank0
  2162  0C85  0867               	movf	ANALOGICOS@VALORAN,w
  2163  0C86  00A0               	movwf	___xxtofl@val
  2164  0C87  0868               	movf	ANALOGICOS@VALORAN+1,w
  2165  0C88  00A1               	movwf	___xxtofl@val+1
  2166  0C89  3000               	movlw	0
  2167  0C8A  1BA1               	btfsc	___xxtofl@val+1,7
  2168  0C8B  30FF               	movlw	255
  2169  0C8C  00A2               	movwf	___xxtofl@val+2
  2170  0C8D  00A3               	movwf	___xxtofl@val+3
  2171  0C8E  3001               	movlw	1
  2172  0C8F  120A  118A  266D  120A  158A  	fcall	___xxtofl
  2173  0C94  1283               	bcf	3,5	;RP0=0, select bank0
  2174  0C95  1303               	bcf	3,6	;RP1=0, select bank0
  2175  0C96  0823               	movf	?___xxtofl+3,w
  2176  0C97  00B5               	movwf	___flmul@a+3
  2177  0C98  0822               	movf	?___xxtofl+2,w
  2178  0C99  00B4               	movwf	___flmul@a+2
  2179  0C9A  0821               	movf	?___xxtofl+1,w
  2180  0C9B  00B3               	movwf	___flmul@a+1
  2181  0C9C  0820               	movf	?___xxtofl,w
  2182  0C9D  00B2               	movwf	___flmul@a
  2183  0C9E  303E               	movlw	62
  2184  0C9F  00B1               	movwf	___flmul@b+3
  2185  0CA0  306B               	movlw	107
  2186  0CA1  00B0               	movwf	___flmul@b+2
  2187  0CA2  3085               	movlw	133
  2188  0CA3  00AF               	movwf	___flmul@b+1
  2189  0CA4  301F               	movlw	31
  2190  0CA5  00AE               	movwf	___flmul@b
  2191  0CA6  120A  118A  2045  120A  158A  	fcall	___flmul
  2192  0CAB  1283               	bcf	3,5	;RP0=0, select bank0
  2193  0CAC  1303               	bcf	3,6	;RP1=0, select bank0
  2194  0CAD  0831               	movf	?___flmul+3,w
  2195  0CAE  00CF               	movwf	___fladd@a+3
  2196  0CAF  0830               	movf	?___flmul+2,w
  2197  0CB0  00CE               	movwf	___fladd@a+2
  2198  0CB1  082F               	movf	?___flmul+1,w
  2199  0CB2  00CD               	movwf	___fladd@a+1
  2200  0CB3  082E               	movf	?___flmul,w
  2201  0CB4  00CC               	movwf	___fladd@a
  2202  0CB5  3041               	movlw	65
  2203  0CB6  00CB               	movwf	___fladd@b+3
  2204  0CB7  30F8               	movlw	248
  2205  0CB8  00CA               	movwf	___fladd@b+2
  2206  0CB9  3000               	movlw	0
  2207  0CBA  00C9               	movwf	___fladd@b+1
  2208  0CBB  3000               	movlw	0
  2209  0CBC  00C8               	movwf	___fladd@b
  2210  0CBD  120A  158A  2578  120A  158A  	fcall	___fladd
  2211  0CC2  1283               	bcf	3,5	;RP0=0, select bank0
  2212  0CC3  1303               	bcf	3,6	;RP1=0, select bank0
  2213  0CC4  084B               	movf	?___fladd+3,w
  2214  0CC5  00DF               	movwf	___fltol@f1+3
  2215  0CC6  084A               	movf	?___fladd+2,w
  2216  0CC7  00DE               	movwf	___fltol@f1+2
  2217  0CC8  0849               	movf	?___fladd+1,w
  2218  0CC9  00DD               	movwf	___fltol@f1+1
  2219  0CCA  0848               	movf	?___fladd,w
  2220  0CCB  00DC               	movwf	___fltol@f1
  2221  0CCC  120A  158A  233E  120A  158A  	fcall	___fltol
  2222  0CD1  1283               	bcf	3,5	;RP0=0, select bank0
  2223  0CD2  1303               	bcf	3,6	;RP1=0, select bank0
  2224  0CD3  085D               	movf	?___fltol+1,w
  2225  0CD4  00EA               	movwf	_POT2+1
  2226  0CD5  085C               	movf	?___fltol,w
  2227  0CD6  00E9               	movwf	_POT2
  2228  0CD7                     l2748:
  2229                           
  2230                           ;main.c: 269:             CCPR2L = POT2;
  2231  0CD7  0869               	movf	_POT2,w
  2232  0CD8  009B               	movwf	27	;volatile
  2233  0CD9                     l2750:
  2234                           
  2235                           ;main.c: 270:             ADCON0bits.CHS = 3;
  2236  0CD9  081F               	movf	31,w	;volatile
  2237  0CDA  39C3               	andlw	-61
  2238  0CDB  380C               	iorlw	12
  2239  0CDC  009F               	movwf	31	;volatile
  2240  0CDD                     l2752:
  2241                           
  2242                           ;main.c: 271:            _delay((unsigned long)((100)*(4000000/4000000.0)));
  2243  0CDD  3020               	movlw	32
  2244  0CDE  1683               	bsf	3,5	;RP0=1, select bank1
  2245  0CDF  1303               	bcf	3,6	;RP1=0, select bank1
  2246  0CE0  00A8               	movwf	??_ANALOGICOS^(0+128)
  2247  0CE1                     u3577:
  2248  0CE1  0BA8               	decfsz	??_ANALOGICOS^(0+128),f
  2249  0CE2  2CE1               	goto	u3577
  2250  0CE3  0000               	nop
  2251  0CE4                     l2754:
  2252                           
  2253                           ;main.c: 272:              ADCON0bits.GO = 1;
  2254  0CE4  1283               	bcf	3,5	;RP0=0, select bank0
  2255  0CE5  1303               	bcf	3,6	;RP1=0, select bank0
  2256  0CE6  149F               	bsf	31,1	;volatile
  2257                           
  2258                           ;main.c: 273:             break;
  2259  0CE7  2D77               	goto	l201
  2260  0CE8                     l2756:
  2261                           
  2262                           ;main.c: 275:            if (VALORAN >= 52 && VALORAN<=179){
  2263  0CE8  1283               	bcf	3,5	;RP0=0, select bank0
  2264  0CE9  1303               	bcf	3,6	;RP1=0, select bank0
  2265  0CEA  0868               	movf	ANALOGICOS@VALORAN+1,w
  2266  0CEB  3A80               	xorlw	128
  2267  0CEC  00FF               	movwf	btemp+1
  2268  0CED  3080               	movlw	128
  2269  0CEE  027F               	subwf	btemp+1,w
  2270  0CEF  1D03               	skipz
  2271  0CF0  2CF3               	goto	u3335
  2272  0CF1  3034               	movlw	52
  2273  0CF2  0267               	subwf	ANALOGICOS@VALORAN,w
  2274  0CF3                     u3335:
  2275  0CF3  1C03               	skipc
  2276  0CF4  2CF6               	goto	u3331
  2277  0CF5  2CF7               	goto	u3330
  2278  0CF6                     u3331:
  2279  0CF6  2D0D               	goto	l196
  2280  0CF7                     u3330:
  2281  0CF7                     l2758:
  2282  0CF7  1283               	bcf	3,5	;RP0=0, select bank0
  2283  0CF8  1303               	bcf	3,6	;RP1=0, select bank0
  2284  0CF9  0868               	movf	ANALOGICOS@VALORAN+1,w
  2285  0CFA  3A80               	xorlw	128
  2286  0CFB  00FF               	movwf	btemp+1
  2287  0CFC  3080               	movlw	128
  2288  0CFD  027F               	subwf	btemp+1,w
  2289  0CFE  1D03               	skipz
  2290  0CFF  2D02               	goto	u3345
  2291  0D00  30B4               	movlw	180
  2292  0D01  0267               	subwf	ANALOGICOS@VALORAN,w
  2293  0D02                     u3345:
  2294  0D02  1803               	skipnc
  2295  0D03  2D05               	goto	u3341
  2296  0D04  2D06               	goto	u3340
  2297  0D05                     u3341:
  2298  0D05  2D0D               	goto	l196
  2299  0D06                     u3340:
  2300  0D06                     l2760:
  2301                           
  2302                           ;main.c: 276:                POT3 = 12;
  2303  0D06  300C               	movlw	12
  2304  0D07  1683               	bsf	3,5	;RP0=1, select bank1
  2305  0D08  1303               	bcf	3,6	;RP1=0, select bank1
  2306  0D09  00A6               	movwf	_POT3^(0+128)
  2307  0D0A  3000               	movlw	0
  2308  0D0B  00A7               	movwf	(_POT3^(0+128)+1)
  2309                           
  2310                           ;main.c: 277:            }
  2311  0D0C  2D4B               	goto	l2772
  2312  0D0D                     l196:	
  2313                           ;main.c: 278:            else if (VALORAN >= 0 && VALORAN<=51){
  2314                           
  2315  0D0D  1283               	bcf	3,5	;RP0=0, select bank0
  2316  0D0E  1303               	bcf	3,6	;RP1=0, select bank0
  2317  0D0F  1BE8               	btfsc	ANALOGICOS@VALORAN+1,7
  2318  0D10  2D12               	goto	u3351
  2319  0D11  2D13               	goto	u3350
  2320  0D12                     u3351:
  2321  0D12  2D27               	goto	l2766
  2322  0D13                     u3350:
  2323  0D13                     l2762:
  2324  0D13  0868               	movf	ANALOGICOS@VALORAN+1,w
  2325  0D14  3A80               	xorlw	128
  2326  0D15  00FF               	movwf	btemp+1
  2327  0D16  3080               	movlw	128
  2328  0D17  027F               	subwf	btemp+1,w
  2329  0D18  1D03               	skipz
  2330  0D19  2D1C               	goto	u3365
  2331  0D1A  3034               	movlw	52
  2332  0D1B  0267               	subwf	ANALOGICOS@VALORAN,w
  2333  0D1C                     u3365:
  2334  0D1C  1803               	skipnc
  2335  0D1D  2D1F               	goto	u3361
  2336  0D1E  2D20               	goto	u3360
  2337  0D1F                     u3361:
  2338  0D1F  2D27               	goto	l2766
  2339  0D20                     u3360:
  2340  0D20                     l2764:
  2341                           
  2342                           ;main.c: 279:                POT3 = 11;
  2343  0D20  300B               	movlw	11
  2344  0D21  1683               	bsf	3,5	;RP0=1, select bank1
  2345  0D22  1303               	bcf	3,6	;RP1=0, select bank1
  2346  0D23  00A6               	movwf	_POT3^(0+128)
  2347  0D24  3000               	movlw	0
  2348  0D25  00A7               	movwf	(_POT3^(0+128)+1)
  2349                           
  2350                           ;main.c: 280:            }
  2351  0D26  2D4B               	goto	l2772
  2352  0D27                     l2766:
  2353  0D27  1283               	bcf	3,5	;RP0=0, select bank0
  2354  0D28  1303               	bcf	3,6	;RP1=0, select bank0
  2355  0D29  0868               	movf	ANALOGICOS@VALORAN+1,w
  2356  0D2A  3A80               	xorlw	128
  2357  0D2B  00FF               	movwf	btemp+1
  2358  0D2C  3080               	movlw	128
  2359  0D2D  027F               	subwf	btemp+1,w
  2360  0D2E  1D03               	skipz
  2361  0D2F  2D32               	goto	u3375
  2362  0D30  30B4               	movlw	180
  2363  0D31  0267               	subwf	ANALOGICOS@VALORAN,w
  2364  0D32                     u3375:
  2365  0D32  1C03               	skipc
  2366  0D33  2D35               	goto	u3371
  2367  0D34  2D36               	goto	u3370
  2368  0D35                     u3371:
  2369  0D35  2D4B               	goto	l2772
  2370  0D36                     u3370:
  2371  0D36                     l2768:
  2372  0D36  1283               	bcf	3,5	;RP0=0, select bank0
  2373  0D37  1303               	bcf	3,6	;RP1=0, select bank0
  2374  0D38  0868               	movf	ANALOGICOS@VALORAN+1,w
  2375  0D39  3A80               	xorlw	128
  2376  0D3A  00FF               	movwf	btemp+1
  2377  0D3B  3081               	movlw	129
  2378  0D3C  027F               	subwf	btemp+1,w
  2379  0D3D  1D03               	skipz
  2380  0D3E  2D41               	goto	u3385
  2381  0D3F  3000               	movlw	0
  2382  0D40  0267               	subwf	ANALOGICOS@VALORAN,w
  2383  0D41                     u3385:
  2384  0D41  1803               	skipnc
  2385  0D42  2D44               	goto	u3381
  2386  0D43  2D45               	goto	u3380
  2387  0D44                     u3381:
  2388  0D44  2D4B               	goto	l2772
  2389  0D45                     u3380:
  2390  0D45                     l2770:
  2391                           
  2392                           ;main.c: 282:                POT3 = 18;
  2393  0D45  3012               	movlw	18
  2394  0D46  1683               	bsf	3,5	;RP0=1, select bank1
  2395  0D47  1303               	bcf	3,6	;RP1=0, select bank1
  2396  0D48  00A6               	movwf	_POT3^(0+128)
  2397  0D49  3000               	movlw	0
  2398  0D4A  00A7               	movwf	(_POT3^(0+128)+1)
  2399  0D4B                     l2772:
  2400                           
  2401                           ;main.c: 284:            ADCON0bits.CHS = 0;
  2402  0D4B  30C3               	movlw	-61
  2403  0D4C  1283               	bcf	3,5	;RP0=0, select bank0
  2404  0D4D  1303               	bcf	3,6	;RP1=0, select bank0
  2405  0D4E  059F               	andwf	31,f	;volatile
  2406  0D4F                     l2774:
  2407                           
  2408                           ;main.c: 285:            _delay((unsigned long)((100)*(4000000/4000000.0)));
  2409  0D4F  3020               	movlw	32
  2410  0D50  1683               	bsf	3,5	;RP0=1, select bank1
  2411  0D51  1303               	bcf	3,6	;RP1=0, select bank1
  2412  0D52  00A8               	movwf	??_ANALOGICOS^(0+128)
  2413  0D53                     u3587:
  2414  0D53  0BA8               	decfsz	??_ANALOGICOS^(0+128),f
  2415  0D54  2D53               	goto	u3587
  2416  0D55  0000               	nop
  2417  0D56                     l2776:
  2418                           
  2419                           ;main.c: 286:            ADCON0bits.GO = 1;
  2420  0D56  1283               	bcf	3,5	;RP0=0, select bank0
  2421  0D57  1303               	bcf	3,6	;RP1=0, select bank0
  2422  0D58  149F               	bsf	31,1	;volatile
  2423                           
  2424                           ;main.c: 287:            break;
  2425  0D59  2D77               	goto	l201
  2426  0D5A                     l2780:
  2427  0D5A  1283               	bcf	3,5	;RP0=0, select bank0
  2428  0D5B  1303               	bcf	3,6	;RP1=0, select bank0
  2429  0D5C  0C1F               	rrf	31,w	;volatile
  2430  0D5D  1683               	bsf	3,5	;RP0=1, select bank1
  2431  0D5E  1303               	bcf	3,6	;RP1=0, select bank1
  2432  0D5F  00A8               	movwf	??_ANALOGICOS^(0+128)
  2433  0D60  0C28               	rrf	??_ANALOGICOS^(0+128),w
  2434  0D61  390F               	andlw	15
  2435  0D62  00A9               	movwf	(??_ANALOGICOS+1)^(0+128)
  2436  0D63  01AA               	clrf	((??_ANALOGICOS+1)^(0+128)+1)
  2437                           
  2438                           ; Switch on 2 bytes has been partitioned into a top level switch of size 1, and 1 sub-sw
      +                          itches
  2439                           ; Switch size 1, requested type "simple"
  2440                           ; Number of cases is 1, Range of values is 0 to 0
  2441                           ; switch strategies available:
  2442                           ; Name         Instructions Cycles
  2443                           ; simple_byte            4     3 (average)
  2444                           ; direct_byte           11     8 (fixed)
  2445                           ; jumptable            260     6 (fixed)
  2446                           ;	Chosen strategy is simple_byte
  2447  0D64  082A               	movf	(??_ANALOGICOS+2)^(0+128),w
  2448  0D65  3A00               	xorlw	0	; case 0
  2449  0D66  1903               	skipnz
  2450  0D67  2D69               	goto	l2992
  2451  0D68  2D77               	goto	l201
  2452  0D69                     l2992:
  2453                           
  2454                           ; Switch size 1, requested type "simple"
  2455                           ; Number of cases is 4, Range of values is 0 to 3
  2456                           ; switch strategies available:
  2457                           ; Name         Instructions Cycles
  2458                           ; simple_byte           13     7 (average)
  2459                           ; direct_byte           20     8 (fixed)
  2460                           ; jumptable            260     6 (fixed)
  2461                           ;	Chosen strategy is simple_byte
  2462  0D69  0829               	movf	(??_ANALOGICOS+1)^(0+128),w
  2463  0D6A  3A00               	xorlw	0	; case 0
  2464  0D6B  1903               	skipnz
  2465  0D6C  2BBB               	goto	l2728
  2466  0D6D  3A01               	xorlw	1	; case 1
  2467  0D6E  1903               	skipnz
  2468  0D6F  2C1E               	goto	l2736
  2469  0D70  3A03               	xorlw	3	; case 2
  2470  0D71  1903               	skipnz
  2471  0D72  2C83               	goto	l2746
  2472  0D73  3A01               	xorlw	1	; case 3
  2473  0D74  1903               	skipnz
  2474  0D75  2CE8               	goto	l2756
  2475  0D76  2D77               	goto	l201
  2476  0D77                     l201:
  2477  0D77  0008               	return
  2478  0D78                     __end_of_ANALOGICOS:
  2479                           
  2480                           	psect	text5
  2481  066D                     __ptext5:	
  2482 ;; *************** function ___xxtofl *****************
  2483 ;; Defined at:
  2484 ;;		line 10 in file "C:\Program Files\Microchip\xc8\v2.31\pic\sources\c90\common\xxtofl.c"
  2485 ;; Parameters:    Size  Location     Type
  2486 ;;  sign            1    wreg     unsigned char 
  2487 ;;  val             4    0[BANK0 ] long 
  2488 ;; Auto vars:     Size  Location     Type
  2489 ;;  sign            1    8[BANK0 ] unsigned char 
  2490 ;;  arg             4   10[BANK0 ] unsigned long 
  2491 ;;  exp             1    9[BANK0 ] unsigned char 
  2492 ;; Return value:  Size  Location     Type
  2493 ;;                  4    0[BANK0 ] unsigned char 
  2494 ;; Registers used:
  2495 ;;		wreg, status,2, status,0
  2496 ;; Tracked objects:
  2497 ;;		On entry : 0/0
  2498 ;;		On exit  : 0/0
  2499 ;;		Unchanged: 0/0
  2500 ;; Data sizes:     COMMON   BANK0   BANK1   BANK3   BANK2
  2501 ;;      Params:         0       4       0       0       0
  2502 ;;      Locals:         0       6       0       0       0
  2503 ;;      Temps:          0       4       0       0       0
  2504 ;;      Totals:         0      14       0       0       0
  2505 ;;Total ram usage:       14 bytes
  2506 ;; Hardware stack levels used:    1
  2507 ;; Hardware stack levels required when called:    1
  2508 ;; This function calls:
  2509 ;;		Nothing
  2510 ;; This function is called by:
  2511 ;;		_main
  2512 ;;		_ANALOGICOS
  2513 ;; This function uses a non-reentrant model
  2514 ;;
  2515                           
  2516                           
  2517                           ;psect for function ___xxtofl
  2518  066D                     ___xxtofl:
  2519                           
  2520                           ;incstack = 0
  2521                           ; Regs used in ___xxtofl: [wreg+status,2+status,0]
  2522                           ;___xxtofl@sign stored from wreg
  2523  066D  1283               	bcf	3,5	;RP0=0, select bank0
  2524  066E  1303               	bcf	3,6	;RP1=0, select bank0
  2525  066F  00A8               	movwf	___xxtofl@sign
  2526  0670                     l2580:
  2527  0670  0828               	movf	___xxtofl@sign,w
  2528  0671  1903               	btfsc	3,2
  2529  0672  2E74               	goto	u3191
  2530  0673  2E75               	goto	u3190
  2531  0674                     u3191:
  2532  0674  2E89               	goto	l2586
  2533  0675                     u3190:
  2534  0675                     l2582:
  2535  0675  1FA3               	btfss	___xxtofl@val+3,7
  2536  0676  2E78               	goto	u3201
  2537  0677  2E79               	goto	u3200
  2538  0678                     u3201:
  2539  0678  2E89               	goto	l2586
  2540  0679                     u3200:
  2541  0679                     l2584:
  2542  0679  0920               	comf	___xxtofl@val,w
  2543  067A  00AA               	movwf	___xxtofl@arg
  2544  067B  0921               	comf	___xxtofl@val+1,w
  2545  067C  00AB               	movwf	___xxtofl@arg+1
  2546  067D  0922               	comf	___xxtofl@val+2,w
  2547  067E  00AC               	movwf	___xxtofl@arg+2
  2548  067F  0923               	comf	___xxtofl@val+3,w
  2549  0680  00AD               	movwf	___xxtofl@arg+3
  2550  0681  0AAA               	incf	___xxtofl@arg,f
  2551  0682  1903               	skipnz
  2552  0683  0AAB               	incf	___xxtofl@arg+1,f
  2553  0684  1903               	skipnz
  2554  0685  0AAC               	incf	___xxtofl@arg+2,f
  2555  0686  1903               	skipnz
  2556  0687  0AAD               	incf	___xxtofl@arg+3,f
  2557  0688  2E91               	goto	l729
  2558  0689                     l2586:
  2559  0689  0823               	movf	___xxtofl@val+3,w
  2560  068A  00AD               	movwf	___xxtofl@arg+3
  2561  068B  0822               	movf	___xxtofl@val+2,w
  2562  068C  00AC               	movwf	___xxtofl@arg+2
  2563  068D  0821               	movf	___xxtofl@val+1,w
  2564  068E  00AB               	movwf	___xxtofl@arg+1
  2565  068F  0820               	movf	___xxtofl@val,w
  2566  0690  00AA               	movwf	___xxtofl@arg
  2567  0691                     l729:
  2568  0691  0823               	movf	___xxtofl@val+3,w
  2569  0692  0422               	iorwf	___xxtofl@val+2,w
  2570  0693  0421               	iorwf	___xxtofl@val+1,w
  2571  0694  0420               	iorwf	___xxtofl@val,w
  2572  0695  1D03               	skipz
  2573  0696  2E98               	goto	u3211
  2574  0697  2E99               	goto	u3210
  2575  0698                     u3211:
  2576  0698  2EA2               	goto	l2592
  2577  0699                     u3210:
  2578  0699                     l2588:
  2579  0699  3000               	movlw	0
  2580  069A  00A3               	movwf	?___xxtofl+3
  2581  069B  3000               	movlw	0
  2582  069C  00A2               	movwf	?___xxtofl+2
  2583  069D  3000               	movlw	0
  2584  069E  00A1               	movwf	?___xxtofl+1
  2585  069F  3000               	movlw	0
  2586  06A0  00A0               	movwf	?___xxtofl
  2587  06A1  2F28               	goto	l731
  2588  06A2                     l2592:
  2589  06A2  3096               	movlw	150
  2590  06A3  00A4               	movwf	??___xxtofl
  2591  06A4  0824               	movf	??___xxtofl,w
  2592  06A5  00A9               	movwf	___xxtofl@exp
  2593  06A6  2EB4               	goto	l2596
  2594  06A7                     l2594:
  2595  06A7  3001               	movlw	1
  2596  06A8  00A4               	movwf	??___xxtofl
  2597  06A9  0824               	movf	??___xxtofl,w
  2598  06AA  07A9               	addwf	___xxtofl@exp,f
  2599  06AB  3001               	movlw	1
  2600  06AC                     u3225:
  2601  06AC  1003               	clrc
  2602  06AD  0CAD               	rrf	___xxtofl@arg+3,f
  2603  06AE  0CAC               	rrf	___xxtofl@arg+2,f
  2604  06AF  0CAB               	rrf	___xxtofl@arg+1,f
  2605  06B0  0CAA               	rrf	___xxtofl@arg,f
  2606  06B1  3EFF               	addlw	-1
  2607  06B2  1D03               	skipz
  2608  06B3  2EAC               	goto	u3225
  2609  06B4                     l2596:
  2610  06B4  30FE               	movlw	254
  2611  06B5  052D               	andwf	___xxtofl@arg+3,w
  2612  06B6  1D03               	btfss	3,2
  2613  06B7  2EB9               	goto	u3231
  2614  06B8  2EBA               	goto	u3230
  2615  06B9                     u3231:
  2616  06B9  2EA7               	goto	l2594
  2617  06BA                     u3230:
  2618  06BA  2ED6               	goto	l735
  2619  06BB                     l2598:
  2620  06BB  3001               	movlw	1
  2621  06BC  00A4               	movwf	??___xxtofl
  2622  06BD  0824               	movf	??___xxtofl,w
  2623  06BE  07A9               	addwf	___xxtofl@exp,f
  2624  06BF                     l2600:
  2625  06BF  3001               	movlw	1
  2626  06C0  07AA               	addwf	___xxtofl@arg,f
  2627  06C1  3000               	movlw	0
  2628  06C2  1803               	skipnc
  2629  06C3  3001               	movlw	1
  2630  06C4  07AB               	addwf	___xxtofl@arg+1,f
  2631  06C5  3000               	movlw	0
  2632  06C6  1803               	skipnc
  2633  06C7  3001               	movlw	1
  2634  06C8  07AC               	addwf	___xxtofl@arg+2,f
  2635  06C9  3000               	movlw	0
  2636  06CA  1803               	skipnc
  2637  06CB  3001               	movlw	1
  2638  06CC  07AD               	addwf	___xxtofl@arg+3,f
  2639  06CD                     l2602:
  2640  06CD  3001               	movlw	1
  2641  06CE                     u3245:
  2642  06CE  1003               	clrc
  2643  06CF  0CAD               	rrf	___xxtofl@arg+3,f
  2644  06D0  0CAC               	rrf	___xxtofl@arg+2,f
  2645  06D1  0CAB               	rrf	___xxtofl@arg+1,f
  2646  06D2  0CAA               	rrf	___xxtofl@arg,f
  2647  06D3  3EFF               	addlw	-1
  2648  06D4  1D03               	skipz
  2649  06D5  2ECE               	goto	u3245
  2650  06D6                     l735:
  2651  06D6  30FF               	movlw	255
  2652  06D7  052D               	andwf	___xxtofl@arg+3,w
  2653  06D8  1D03               	btfss	3,2
  2654  06D9  2EDB               	goto	u3251
  2655  06DA  2EDC               	goto	u3250
  2656  06DB                     u3251:
  2657  06DB  2EBB               	goto	l2598
  2658  06DC                     u3250:
  2659  06DC  2EE8               	goto	l2606
  2660  06DD                     l2604:
  2661  06DD  3001               	movlw	1
  2662  06DE  02A9               	subwf	___xxtofl@exp,f
  2663  06DF  3001               	movlw	1
  2664  06E0  00A4               	movwf	??___xxtofl
  2665  06E1                     u3265:
  2666  06E1  1003               	clrc
  2667  06E2  0DAA               	rlf	___xxtofl@arg,f
  2668  06E3  0DAB               	rlf	___xxtofl@arg+1,f
  2669  06E4  0DAC               	rlf	___xxtofl@arg+2,f
  2670  06E5  0DAD               	rlf	___xxtofl@arg+3,f
  2671  06E6  0BA4               	decfsz	??___xxtofl,f
  2672  06E7  2EE1               	goto	u3265
  2673  06E8                     l2606:
  2674  06E8  1BAC               	btfsc	___xxtofl@arg+2,7
  2675  06E9  2EEB               	goto	u3271
  2676  06EA  2EEC               	goto	u3270
  2677  06EB                     u3271:
  2678  06EB  2EF2               	goto	l742
  2679  06EC                     u3270:
  2680  06EC                     l2608:
  2681  06EC  3002               	movlw	2
  2682  06ED  0229               	subwf	___xxtofl@exp,w
  2683  06EE  1803               	skipnc
  2684  06EF  2EF1               	goto	u3281
  2685  06F0  2EF2               	goto	u3280
  2686  06F1                     u3281:
  2687  06F1  2EDD               	goto	l2604
  2688  06F2                     u3280:
  2689  06F2                     l742:
  2690  06F2  1829               	btfsc	___xxtofl@exp,0
  2691  06F3  2EF5               	goto	u3291
  2692  06F4  2EF6               	goto	u3290
  2693  06F5                     u3291:
  2694  06F5  2EFE               	goto	l743
  2695  06F6                     u3290:
  2696  06F6                     l2610:
  2697  06F6  30FF               	movlw	255
  2698  06F7  05AA               	andwf	___xxtofl@arg,f
  2699  06F8  30FF               	movlw	255
  2700  06F9  05AB               	andwf	___xxtofl@arg+1,f
  2701  06FA  307F               	movlw	127
  2702  06FB  05AC               	andwf	___xxtofl@arg+2,f
  2703  06FC  30FF               	movlw	255
  2704  06FD  05AD               	andwf	___xxtofl@arg+3,f
  2705  06FE                     l743:
  2706  06FE  1003               	clrc
  2707  06FF  0CA9               	rrf	___xxtofl@exp,f
  2708  0700                     l2612:
  2709  0700  0829               	movf	___xxtofl@exp,w
  2710  0701  00A4               	movwf	??___xxtofl
  2711  0702  01A5               	clrf	??___xxtofl+1
  2712  0703  01A6               	clrf	??___xxtofl+2
  2713  0704  01A7               	clrf	??___xxtofl+3
  2714  0705  3018               	movlw	24
  2715  0706                     u3305:
  2716  0706  1003               	clrc
  2717  0707  0DA4               	rlf	??___xxtofl,f
  2718  0708  0DA5               	rlf	??___xxtofl+1,f
  2719  0709  0DA6               	rlf	??___xxtofl+2,f
  2720  070A  0DA7               	rlf	??___xxtofl+3,f
  2721  070B                     u3300:
  2722  070B  3EFF               	addlw	-1
  2723  070C  1D03               	skipz
  2724  070D  2F06               	goto	u3305
  2725  070E  0824               	movf	??___xxtofl,w
  2726  070F  04AA               	iorwf	___xxtofl@arg,f
  2727  0710  0825               	movf	??___xxtofl+1,w
  2728  0711  04AB               	iorwf	___xxtofl@arg+1,f
  2729  0712  0826               	movf	??___xxtofl+2,w
  2730  0713  04AC               	iorwf	___xxtofl@arg+2,f
  2731  0714  0827               	movf	??___xxtofl+3,w
  2732  0715  04AD               	iorwf	___xxtofl@arg+3,f
  2733  0716                     l2614:
  2734  0716  0828               	movf	___xxtofl@sign,w
  2735  0717  1903               	btfsc	3,2
  2736  0718  2F1A               	goto	u3311
  2737  0719  2F1B               	goto	u3310
  2738  071A                     u3311:
  2739  071A  2F20               	goto	l2620
  2740  071B                     u3310:
  2741  071B                     l2616:
  2742  071B  1FA3               	btfss	___xxtofl@val+3,7
  2743  071C  2F1E               	goto	u3321
  2744  071D  2F1F               	goto	u3320
  2745  071E                     u3321:
  2746  071E  2F20               	goto	l2620
  2747  071F                     u3320:
  2748  071F                     l2618:
  2749  071F  17AD               	bsf	___xxtofl@arg+3,7
  2750  0720                     l2620:
  2751  0720  082D               	movf	___xxtofl@arg+3,w
  2752  0721  00A3               	movwf	?___xxtofl+3
  2753  0722  082C               	movf	___xxtofl@arg+2,w
  2754  0723  00A2               	movwf	?___xxtofl+2
  2755  0724  082B               	movf	___xxtofl@arg+1,w
  2756  0725  00A1               	movwf	?___xxtofl+1
  2757  0726  082A               	movf	___xxtofl@arg,w
  2758  0727  00A0               	movwf	?___xxtofl
  2759  0728                     l731:
  2760  0728  0008               	return
  2761  0729                     __end_of___xxtofl:
  2762                           
  2763                           	psect	text6
  2764  0B3E                     __ptext6:	
  2765 ;; *************** function ___fltol *****************
  2766 ;; Defined at:
  2767 ;;		line 43 in file "C:\Program Files\Microchip\xc8\v2.31\pic\sources\c90\common\fltol.c"
  2768 ;; Parameters:    Size  Location     Type
  2769 ;;  f1              4   60[BANK0 ] unsigned char 
  2770 ;; Auto vars:     Size  Location     Type
  2771 ;;  exp1            1   70[BANK0 ] unsigned char 
  2772 ;;  sign1           1   69[BANK0 ] unsigned char 
  2773 ;; Return value:  Size  Location     Type
  2774 ;;                  4   60[BANK0 ] long 
  2775 ;; Registers used:
  2776 ;;		wreg, status,2, status,0
  2777 ;; Tracked objects:
  2778 ;;		On entry : 0/0
  2779 ;;		On exit  : 0/0
  2780 ;;		Unchanged: 0/0
  2781 ;; Data sizes:     COMMON   BANK0   BANK1   BANK3   BANK2
  2782 ;;      Params:         0       4       0       0       0
  2783 ;;      Locals:         0       2       0       0       0
  2784 ;;      Temps:          0       5       0       0       0
  2785 ;;      Totals:         0      11       0       0       0
  2786 ;;Total ram usage:       11 bytes
  2787 ;; Hardware stack levels used:    1
  2788 ;; Hardware stack levels required when called:    1
  2789 ;; This function calls:
  2790 ;;		Nothing
  2791 ;; This function is called by:
  2792 ;;		_main
  2793 ;;		_ANALOGICOS
  2794 ;; This function uses a non-reentrant model
  2795 ;;
  2796                           
  2797                           
  2798                           ;psect for function ___fltol
  2799  0B3E                     ___fltol:
  2800  0B3E                     l1628:	
  2801                           ;incstack = 0
  2802                           ; Regs used in ___fltol: [wreg+status,2+status,0]
  2803                           
  2804  0B3E  1003               	clrc
  2805  0B3F  1283               	bcf	3,5	;RP0=0, select bank0
  2806  0B40  1303               	bcf	3,6	;RP1=0, select bank0
  2807  0B41  0D5E               	rlf	___fltol@f1+2,w
  2808  0B42  0D5F               	rlf	___fltol@f1+3,w
  2809  0B43  00E0               	movwf	??___fltol
  2810  0B44  0860               	movf	??___fltol,w
  2811  0B45  00E6               	movwf	___fltol@exp1
  2812  0B46  0866               	movf	___fltol@exp1,w
  2813  0B47  1D03               	btfss	3,2
  2814  0B48  2B4A               	goto	u1431
  2815  0B49  2B4B               	goto	u1430
  2816  0B4A                     u1431:
  2817  0B4A  2B54               	goto	l1634
  2818  0B4B                     u1430:
  2819  0B4B                     l1630:
  2820  0B4B  3000               	movlw	0
  2821  0B4C  00DF               	movwf	?___fltol+3
  2822  0B4D  3000               	movlw	0
  2823  0B4E  00DE               	movwf	?___fltol+2
  2824  0B4F  3000               	movlw	0
  2825  0B50  00DD               	movwf	?___fltol+1
  2826  0B51  3000               	movlw	0
  2827  0B52  00DC               	movwf	?___fltol
  2828  0B53  2BB9               	goto	l482
  2829  0B54                     l1634:
  2830  0B54  085C               	movf	___fltol@f1,w
  2831  0B55  00E0               	movwf	??___fltol
  2832  0B56  085D               	movf	___fltol@f1+1,w
  2833  0B57  00E1               	movwf	??___fltol+1
  2834  0B58  085E               	movf	___fltol@f1+2,w
  2835  0B59  00E2               	movwf	??___fltol+2
  2836  0B5A  085F               	movf	___fltol@f1+3,w
  2837  0B5B  00E3               	movwf	??___fltol+3
  2838  0B5C  301F               	movlw	31
  2839  0B5D                     u1445:
  2840  0B5D  1003               	clrc
  2841  0B5E  0CE3               	rrf	??___fltol+3,f
  2842  0B5F  0CE2               	rrf	??___fltol+2,f
  2843  0B60  0CE1               	rrf	??___fltol+1,f
  2844  0B61  0CE0               	rrf	??___fltol,f
  2845  0B62                     u1440:
  2846  0B62  3EFF               	addlw	-1
  2847  0B63  1D03               	skipz
  2848  0B64  2B5D               	goto	u1445
  2849  0B65  0860               	movf	??___fltol,w
  2850  0B66  00E4               	movwf	??___fltol+4
  2851  0B67  0864               	movf	??___fltol+4,w
  2852  0B68  00E5               	movwf	___fltol@sign1
  2853  0B69                     l1636:
  2854  0B69  17DE               	bsf	___fltol@f1+2,7
  2855  0B6A                     l1638:
  2856  0B6A  30FF               	movlw	255
  2857  0B6B  05DC               	andwf	___fltol@f1,f
  2858  0B6C  30FF               	movlw	255
  2859  0B6D  05DD               	andwf	___fltol@f1+1,f
  2860  0B6E  30FF               	movlw	255
  2861  0B6F  05DE               	andwf	___fltol@f1+2,f
  2862  0B70  3000               	movlw	0
  2863  0B71  05DF               	andwf	___fltol@f1+3,f
  2864  0B72                     l1640:
  2865  0B72  3096               	movlw	150
  2866  0B73  02E6               	subwf	___fltol@exp1,f
  2867  0B74                     l1642:
  2868  0B74  1FE6               	btfss	___fltol@exp1,7
  2869  0B75  2B77               	goto	u1451
  2870  0B76  2B78               	goto	u1450
  2871  0B77                     u1451:
  2872  0B77  2B92               	goto	l1652
  2873  0B78                     u1450:
  2874  0B78                     l1644:
  2875  0B78  0866               	movf	___fltol@exp1,w
  2876  0B79  3A80               	xorlw	128
  2877  0B7A  3E97               	addlw	151
  2878  0B7B  1803               	skipnc
  2879  0B7C  2B7E               	goto	u1461
  2880  0B7D  2B7F               	goto	u1460
  2881  0B7E                     u1461:
  2882  0B7E  2B80               	goto	l1650
  2883  0B7F                     u1460:
  2884  0B7F  2B4B               	goto	l1630
  2885  0B80                     l1650:
  2886  0B80  3001               	movlw	1
  2887  0B81                     u1475:
  2888  0B81  1003               	clrc
  2889  0B82  0CDF               	rrf	___fltol@f1+3,f
  2890  0B83  0CDE               	rrf	___fltol@f1+2,f
  2891  0B84  0CDD               	rrf	___fltol@f1+1,f
  2892  0B85  0CDC               	rrf	___fltol@f1,f
  2893  0B86  3EFF               	addlw	-1
  2894  0B87  1D03               	skipz
  2895  0B88  2B81               	goto	u1475
  2896  0B89  3001               	movlw	1
  2897  0B8A  00E0               	movwf	??___fltol
  2898  0B8B  0860               	movf	??___fltol,w
  2899  0B8C  07E6               	addwf	___fltol@exp1,f
  2900  0B8D  1D03               	btfss	3,2
  2901  0B8E  2B90               	goto	u1481
  2902  0B8F  2B91               	goto	u1480
  2903  0B90                     u1481:
  2904  0B90  2B80               	goto	l1650
  2905  0B91                     u1480:
  2906  0B91  2BA9               	goto	l1660
  2907  0B92                     l1652:
  2908  0B92  3020               	movlw	32
  2909  0B93  0266               	subwf	___fltol@exp1,w
  2910  0B94  1C03               	skipc
  2911  0B95  2B97               	goto	u1491
  2912  0B96  2B98               	goto	u1490
  2913  0B97                     u1491:
  2914  0B97  2BA4               	goto	l489
  2915  0B98                     u1490:
  2916  0B98  2B4B               	goto	l1630
  2917  0B99                     l1658:
  2918  0B99  3001               	movlw	1
  2919  0B9A  00E0               	movwf	??___fltol
  2920  0B9B                     u1505:
  2921  0B9B  1003               	clrc
  2922  0B9C  0DDC               	rlf	___fltol@f1,f
  2923  0B9D  0DDD               	rlf	___fltol@f1+1,f
  2924  0B9E  0DDE               	rlf	___fltol@f1+2,f
  2925  0B9F  0DDF               	rlf	___fltol@f1+3,f
  2926  0BA0  0BE0               	decfsz	??___fltol,f
  2927  0BA1  2B9B               	goto	u1505
  2928  0BA2  3001               	movlw	1
  2929  0BA3  02E6               	subwf	___fltol@exp1,f
  2930  0BA4                     l489:
  2931  0BA4  0866               	movf	___fltol@exp1,w
  2932  0BA5  1D03               	btfss	3,2
  2933  0BA6  2BA8               	goto	u1511
  2934  0BA7  2BA9               	goto	u1510
  2935  0BA8                     u1511:
  2936  0BA8  2B99               	goto	l1658
  2937  0BA9                     u1510:
  2938  0BA9                     l1660:
  2939  0BA9  0865               	movf	___fltol@sign1,w
  2940  0BAA  1903               	btfsc	3,2
  2941  0BAB  2BAD               	goto	u1521
  2942  0BAC  2BAE               	goto	u1520
  2943  0BAD                     u1521:
  2944  0BAD  2BB9               	goto	l492
  2945  0BAE                     u1520:
  2946  0BAE                     l1662:
  2947  0BAE  09DC               	comf	___fltol@f1,f
  2948  0BAF  09DD               	comf	___fltol@f1+1,f
  2949  0BB0  09DE               	comf	___fltol@f1+2,f
  2950  0BB1  09DF               	comf	___fltol@f1+3,f
  2951  0BB2  0ADC               	incf	___fltol@f1,f
  2952  0BB3  1903               	skipnz
  2953  0BB4  0ADD               	incf	___fltol@f1+1,f
  2954  0BB5  1903               	skipnz
  2955  0BB6  0ADE               	incf	___fltol@f1+2,f
  2956  0BB7  1903               	skipnz
  2957  0BB8  0ADF               	incf	___fltol@f1+3,f
  2958  0BB9                     l492:
  2959  0BB9                     l482:
  2960  0BB9  0008               	return
  2961  0BBA                     __end_of___fltol:
  2962                           
  2963                           	psect	text7
  2964  0045                     __ptext7:	
  2965 ;; *************** function ___flmul *****************
  2966 ;; Defined at:
  2967 ;;		line 8 in file "C:\Program Files\Microchip\xc8\v2.31\pic\sources\c90\common\sprcmul.c"
  2968 ;; Parameters:    Size  Location     Type
  2969 ;;  b               4   14[BANK0 ] long 
  2970 ;;  a               4   18[BANK0 ] long 
  2971 ;; Auto vars:     Size  Location     Type
  2972 ;;  prod            4   34[BANK0 ] struct .
  2973 ;;  grs             4   29[BANK0 ] unsigned long 
  2974 ;;  temp            2   38[BANK0 ] struct .
  2975 ;;  bexp            1   33[BANK0 ] unsigned char 
  2976 ;;  aexp            1   28[BANK0 ] unsigned char 
  2977 ;;  sign            1   27[BANK0 ] unsigned char 
  2978 ;; Return value:  Size  Location     Type
  2979 ;;                  4   14[BANK0 ] unsigned char 
  2980 ;; Registers used:
  2981 ;;		wreg, status,2, status,0, btemp+1, pclath, cstack
  2982 ;; Tracked objects:
  2983 ;;		On entry : 0/0
  2984 ;;		On exit  : 0/0
  2985 ;;		Unchanged: 0/0
  2986 ;; Data sizes:     COMMON   BANK0   BANK1   BANK3   BANK2
  2987 ;;      Params:         0       8       0       0       0
  2988 ;;      Locals:         0      13       0       0       0
  2989 ;;      Temps:          0       5       0       0       0
  2990 ;;      Totals:         0      26       0       0       0
  2991 ;;Total ram usage:       26 bytes
  2992 ;; Hardware stack levels used:    1
  2993 ;; Hardware stack levels required when called:    2
  2994 ;; This function calls:
  2995 ;;		__Umul8_16
  2996 ;; This function is called by:
  2997 ;;		_main
  2998 ;;		_ANALOGICOS
  2999 ;; This function uses a non-reentrant model
  3000 ;;
  3001                           
  3002                           
  3003                           ;psect for function ___flmul
  3004  0045                     ___flmul:
  3005  0045                     l2440:	
  3006                           ;incstack = 0
  3007                           ; Regs used in ___flmul: [wreg+status,2+status,0+btemp+1+pclath+cstack]
  3008                           
  3009  0045  1283               	bcf	3,5	;RP0=0, select bank0
  3010  0046  1303               	bcf	3,6	;RP1=0, select bank0
  3011  0047  0831               	movf	___flmul@b+3,w
  3012  0048  3980               	andlw	128
  3013  0049  00B6               	movwf	??___flmul
  3014  004A  0836               	movf	??___flmul,w
  3015  004B  00BB               	movwf	___flmul@sign
  3016  004C                     l2442:
  3017  004C  0831               	movf	___flmul@b+3,w
  3018  004D  00B6               	movwf	??___flmul
  3019  004E  0736               	addwf	??___flmul,w
  3020  004F  00B7               	movwf	??___flmul+1
  3021  0050  0837               	movf	??___flmul+1,w
  3022  0051  00C1               	movwf	___flmul@bexp
  3023  0052                     l2444:
  3024  0052  1FB0               	btfss	___flmul@b+2,7
  3025  0053  2855               	goto	u2821
  3026  0054  2856               	goto	u2820
  3027  0055                     u2821:
  3028  0055  2857               	goto	l2448
  3029  0056                     u2820:
  3030  0056                     l2446:
  3031  0056  1441               	bsf	___flmul@bexp,0
  3032  0057                     l2448:
  3033  0057  0841               	movf	___flmul@bexp,w
  3034  0058  1903               	btfsc	3,2
  3035  0059  285B               	goto	u2831
  3036  005A  285C               	goto	u2830
  3037  005B                     u2831:
  3038  005B  286B               	goto	l2456
  3039  005C                     u2830:
  3040  005C                     l2450:
  3041  005C  0A41               	incf	___flmul@bexp,w
  3042  005D  1D03               	btfss	3,2
  3043  005E  2860               	goto	u2841
  3044  005F  2861               	goto	u2840
  3045  0060                     u2841:
  3046  0060  2869               	goto	l2454
  3047  0061                     u2840:
  3048  0061                     l2452:
  3049  0061  3000               	movlw	0
  3050  0062  00B1               	movwf	___flmul@b+3
  3051  0063  3000               	movlw	0
  3052  0064  00B0               	movwf	___flmul@b+2
  3053  0065  3000               	movlw	0
  3054  0066  00AF               	movwf	___flmul@b+1
  3055  0067  3000               	movlw	0
  3056  0068  00AE               	movwf	___flmul@b
  3057  0069                     l2454:
  3058  0069  17B0               	bsf	___flmul@b+2,7
  3059  006A  2873               	goto	l2458
  3060  006B                     l2456:
  3061  006B  3000               	movlw	0
  3062  006C  00B1               	movwf	___flmul@b+3
  3063  006D  3000               	movlw	0
  3064  006E  00B0               	movwf	___flmul@b+2
  3065  006F  3000               	movlw	0
  3066  0070  00AF               	movwf	___flmul@b+1
  3067  0071  3000               	movlw	0
  3068  0072  00AE               	movwf	___flmul@b
  3069  0073                     l2458:
  3070  0073  0835               	movf	___flmul@a+3,w
  3071  0074  3980               	andlw	128
  3072  0075  00B6               	movwf	??___flmul
  3073  0076  0836               	movf	??___flmul,w
  3074  0077  06BB               	xorwf	___flmul@sign,f
  3075  0078                     l2460:
  3076  0078  0835               	movf	___flmul@a+3,w
  3077  0079  00B6               	movwf	??___flmul
  3078  007A  0736               	addwf	??___flmul,w
  3079  007B  00B7               	movwf	??___flmul+1
  3080  007C  0837               	movf	??___flmul+1,w
  3081  007D  00BC               	movwf	___flmul@aexp
  3082  007E                     l2462:
  3083  007E  1FB4               	btfss	___flmul@a+2,7
  3084  007F  2881               	goto	u2851
  3085  0080  2882               	goto	u2850
  3086  0081                     u2851:
  3087  0081  2883               	goto	l2466
  3088  0082                     u2850:
  3089  0082                     l2464:
  3090  0082  143C               	bsf	___flmul@aexp,0
  3091  0083                     l2466:
  3092  0083  083C               	movf	___flmul@aexp,w
  3093  0084  1903               	btfsc	3,2
  3094  0085  2887               	goto	u2861
  3095  0086  2888               	goto	u2860
  3096  0087                     u2861:
  3097  0087  2897               	goto	l2474
  3098  0088                     u2860:
  3099  0088                     l2468:
  3100  0088  0A3C               	incf	___flmul@aexp,w
  3101  0089  1D03               	btfss	3,2
  3102  008A  288C               	goto	u2871
  3103  008B  288D               	goto	u2870
  3104  008C                     u2871:
  3105  008C  2895               	goto	l2472
  3106  008D                     u2870:
  3107  008D                     l2470:
  3108  008D  3000               	movlw	0
  3109  008E  00B5               	movwf	___flmul@a+3
  3110  008F  3000               	movlw	0
  3111  0090  00B4               	movwf	___flmul@a+2
  3112  0091  3000               	movlw	0
  3113  0092  00B3               	movwf	___flmul@a+1
  3114  0093  3000               	movlw	0
  3115  0094  00B2               	movwf	___flmul@a
  3116  0095                     l2472:
  3117  0095  17B4               	bsf	___flmul@a+2,7
  3118  0096  289F               	goto	l2476
  3119  0097                     l2474:
  3120  0097  3000               	movlw	0
  3121  0098  00B5               	movwf	___flmul@a+3
  3122  0099  3000               	movlw	0
  3123  009A  00B4               	movwf	___flmul@a+2
  3124  009B  3000               	movlw	0
  3125  009C  00B3               	movwf	___flmul@a+1
  3126  009D  3000               	movlw	0
  3127  009E  00B2               	movwf	___flmul@a
  3128  009F                     l2476:
  3129  009F  083C               	movf	___flmul@aexp,w
  3130  00A0  1903               	btfsc	3,2
  3131  00A1  28A3               	goto	u2881
  3132  00A2  28A4               	goto	u2880
  3133  00A3                     u2881:
  3134  00A3  28A9               	goto	l2480
  3135  00A4                     u2880:
  3136  00A4                     l2478:
  3137  00A4  0841               	movf	___flmul@bexp,w
  3138  00A5  1D03               	btfss	3,2
  3139  00A6  28A8               	goto	u2891
  3140  00A7  28A9               	goto	u2890
  3141  00A8                     u2891:
  3142  00A8  28B2               	goto	l2484
  3143  00A9                     u2890:
  3144  00A9                     l2480:
  3145  00A9  3000               	movlw	0
  3146  00AA  00B1               	movwf	?___flmul+3
  3147  00AB  3000               	movlw	0
  3148  00AC  00B0               	movwf	?___flmul+2
  3149  00AD  3000               	movlw	0
  3150  00AE  00AF               	movwf	?___flmul+1
  3151  00AF  3000               	movlw	0
  3152  00B0  00AE               	movwf	?___flmul
  3153  00B1  2BA5               	goto	l685
  3154  00B2                     l2484:
  3155  00B2  082E               	movf	___flmul@b,w
  3156  00B3  00B6               	movwf	??___flmul
  3157  00B4  0836               	movf	??___flmul,w
  3158  00B5  00A0               	movwf	__Umul8_16@multiplicand
  3159  00B6  0834               	movf	___flmul@a+2,w
  3160  00B7  120A  118A  27A8  120A  118A  	fcall	__Umul8_16
  3161  00BC  1283               	bcf	3,5	;RP0=0, select bank0
  3162  00BD  1303               	bcf	3,6	;RP1=0, select bank0
  3163  00BE  0821               	movf	?__Umul8_16+1,w
  3164  00BF  00C7               	movwf	___flmul@temp+1
  3165  00C0  0820               	movf	?__Umul8_16,w
  3166  00C1  00C6               	movwf	___flmul@temp
  3167  00C2                     l2486:
  3168  00C2  0846               	movf	___flmul@temp,w
  3169  00C3  00B6               	movwf	??___flmul
  3170  00C4  01B7               	clrf	??___flmul+1
  3171  00C5  01B8               	clrf	??___flmul+2
  3172  00C6  01B9               	clrf	??___flmul+3
  3173  00C7  0839               	movf	??___flmul+3,w
  3174  00C8  00C0               	movwf	___flmul@grs+3
  3175  00C9  0838               	movf	??___flmul+2,w
  3176  00CA  00BF               	movwf	___flmul@grs+2
  3177  00CB  0837               	movf	??___flmul+1,w
  3178  00CC  00BE               	movwf	___flmul@grs+1
  3179  00CD  0836               	movf	??___flmul,w
  3180  00CE  00BD               	movwf	___flmul@grs
  3181  00CF                     l2488:
  3182  00CF  0847               	movf	___flmul@temp+1,w
  3183  00D0  00B6               	movwf	??___flmul
  3184  00D1  01B7               	clrf	??___flmul+1
  3185  00D2  01B8               	clrf	??___flmul+2
  3186  00D3  01B9               	clrf	??___flmul+3
  3187  00D4  0839               	movf	??___flmul+3,w
  3188  00D5  00C5               	movwf	___flmul@prod+3
  3189  00D6  0838               	movf	??___flmul+2,w
  3190  00D7  00C4               	movwf	___flmul@prod+2
  3191  00D8  0837               	movf	??___flmul+1,w
  3192  00D9  00C3               	movwf	___flmul@prod+1
  3193  00DA  0836               	movf	??___flmul,w
  3194  00DB  00C2               	movwf	___flmul@prod
  3195  00DC  082F               	movf	___flmul@b+1,w
  3196  00DD  00B6               	movwf	??___flmul
  3197  00DE  0836               	movf	??___flmul,w
  3198  00DF  00A0               	movwf	__Umul8_16@multiplicand
  3199  00E0  0833               	movf	___flmul@a+1,w
  3200  00E1  120A  118A  27A8  120A  118A  	fcall	__Umul8_16
  3201  00E6  1283               	bcf	3,5	;RP0=0, select bank0
  3202  00E7  1303               	bcf	3,6	;RP1=0, select bank0
  3203  00E8  0821               	movf	?__Umul8_16+1,w
  3204  00E9  00C7               	movwf	___flmul@temp+1
  3205  00EA  0820               	movf	?__Umul8_16,w
  3206  00EB  00C6               	movwf	___flmul@temp
  3207  00EC                     l2490:
  3208  00EC  0846               	movf	___flmul@temp,w
  3209  00ED  00B6               	movwf	??___flmul
  3210  00EE  01B7               	clrf	??___flmul+1
  3211  00EF  01B8               	clrf	??___flmul+2
  3212  00F0  01B9               	clrf	??___flmul+3
  3213  00F1  0836               	movf	??___flmul,w
  3214  00F2  07BD               	addwf	___flmul@grs,f
  3215  00F3  0837               	movf	??___flmul+1,w
  3216  00F4  1103               	clrz
  3217  00F5  1803               	skipnc
  3218  00F6  3E01               	addlw	1
  3219  00F7  1903               	skipnz
  3220  00F8  28FA               	goto	u2901
  3221  00F9  07BE               	addwf	___flmul@grs+1,f
  3222  00FA                     u2901:
  3223  00FA  0838               	movf	??___flmul+2,w
  3224  00FB  1103               	clrz
  3225  00FC  1803               	skipnc
  3226  00FD  3E01               	addlw	1
  3227  00FE  1903               	skipnz
  3228  00FF  2901               	goto	u2902
  3229  0100  07BF               	addwf	___flmul@grs+2,f
  3230  0101                     u2902:
  3231  0101  0839               	movf	??___flmul+3,w
  3232  0102  1103               	clrz
  3233  0103  1803               	skipnc
  3234  0104  3E01               	addlw	1
  3235  0105  1903               	skipnz
  3236  0106  2908               	goto	u2903
  3237  0107  07C0               	addwf	___flmul@grs+3,f
  3238  0108                     u2903:
  3239  0108                     l2492:
  3240  0108  0847               	movf	___flmul@temp+1,w
  3241  0109  00B6               	movwf	??___flmul
  3242  010A  01B7               	clrf	??___flmul+1
  3243  010B  01B8               	clrf	??___flmul+2
  3244  010C  01B9               	clrf	??___flmul+3
  3245  010D  0836               	movf	??___flmul,w
  3246  010E  07C2               	addwf	___flmul@prod,f
  3247  010F  0837               	movf	??___flmul+1,w
  3248  0110  1103               	clrz
  3249  0111  1803               	skipnc
  3250  0112  3E01               	addlw	1
  3251  0113  1903               	skipnz
  3252  0114  2916               	goto	u2911
  3253  0115  07C3               	addwf	___flmul@prod+1,f
  3254  0116                     u2911:
  3255  0116  0838               	movf	??___flmul+2,w
  3256  0117  1103               	clrz
  3257  0118  1803               	skipnc
  3258  0119  3E01               	addlw	1
  3259  011A  1903               	skipnz
  3260  011B  291D               	goto	u2912
  3261  011C  07C4               	addwf	___flmul@prod+2,f
  3262  011D                     u2912:
  3263  011D  0839               	movf	??___flmul+3,w
  3264  011E  1103               	clrz
  3265  011F  1803               	skipnc
  3266  0120  3E01               	addlw	1
  3267  0121  1903               	skipnz
  3268  0122  2924               	goto	u2913
  3269  0123  07C5               	addwf	___flmul@prod+3,f
  3270  0124                     u2913:
  3271  0124  0830               	movf	___flmul@b+2,w
  3272  0125  00B6               	movwf	??___flmul
  3273  0126  0836               	movf	??___flmul,w
  3274  0127  00A0               	movwf	__Umul8_16@multiplicand
  3275  0128  0832               	movf	___flmul@a,w
  3276  0129  120A  118A  27A8  120A  118A  	fcall	__Umul8_16
  3277  012E  1283               	bcf	3,5	;RP0=0, select bank0
  3278  012F  1303               	bcf	3,6	;RP1=0, select bank0
  3279  0130  0821               	movf	?__Umul8_16+1,w
  3280  0131  00C7               	movwf	___flmul@temp+1
  3281  0132  0820               	movf	?__Umul8_16,w
  3282  0133  00C6               	movwf	___flmul@temp
  3283  0134                     l2494:
  3284  0134  0846               	movf	___flmul@temp,w
  3285  0135  00B6               	movwf	??___flmul
  3286  0136  01B7               	clrf	??___flmul+1
  3287  0137  01B8               	clrf	??___flmul+2
  3288  0138  01B9               	clrf	??___flmul+3
  3289  0139  0836               	movf	??___flmul,w
  3290  013A  07BD               	addwf	___flmul@grs,f
  3291  013B  0837               	movf	??___flmul+1,w
  3292  013C  1103               	clrz
  3293  013D  1803               	skipnc
  3294  013E  3E01               	addlw	1
  3295  013F  1903               	skipnz
  3296  0140  2942               	goto	u2921
  3297  0141  07BE               	addwf	___flmul@grs+1,f
  3298  0142                     u2921:
  3299  0142  0838               	movf	??___flmul+2,w
  3300  0143  1103               	clrz
  3301  0144  1803               	skipnc
  3302  0145  3E01               	addlw	1
  3303  0146  1903               	skipnz
  3304  0147  2949               	goto	u2922
  3305  0148  07BF               	addwf	___flmul@grs+2,f
  3306  0149                     u2922:
  3307  0149  0839               	movf	??___flmul+3,w
  3308  014A  1103               	clrz
  3309  014B  1803               	skipnc
  3310  014C  3E01               	addlw	1
  3311  014D  1903               	skipnz
  3312  014E  2950               	goto	u2923
  3313  014F  07C0               	addwf	___flmul@grs+3,f
  3314  0150                     u2923:
  3315  0150                     l2496:
  3316  0150  0847               	movf	___flmul@temp+1,w
  3317  0151  00B6               	movwf	??___flmul
  3318  0152  01B7               	clrf	??___flmul+1
  3319  0153  01B8               	clrf	??___flmul+2
  3320  0154  01B9               	clrf	??___flmul+3
  3321  0155  0836               	movf	??___flmul,w
  3322  0156  07C2               	addwf	___flmul@prod,f
  3323  0157  0837               	movf	??___flmul+1,w
  3324  0158  1103               	clrz
  3325  0159  1803               	skipnc
  3326  015A  3E01               	addlw	1
  3327  015B  1903               	skipnz
  3328  015C  295E               	goto	u2931
  3329  015D  07C3               	addwf	___flmul@prod+1,f
  3330  015E                     u2931:
  3331  015E  0838               	movf	??___flmul+2,w
  3332  015F  1103               	clrz
  3333  0160  1803               	skipnc
  3334  0161  3E01               	addlw	1
  3335  0162  1903               	skipnz
  3336  0163  2965               	goto	u2932
  3337  0164  07C4               	addwf	___flmul@prod+2,f
  3338  0165                     u2932:
  3339  0165  0839               	movf	??___flmul+3,w
  3340  0166  1103               	clrz
  3341  0167  1803               	skipnc
  3342  0168  3E01               	addlw	1
  3343  0169  1903               	skipnz
  3344  016A  296C               	goto	u2933
  3345  016B  07C5               	addwf	___flmul@prod+3,f
  3346  016C                     u2933:
  3347  016C                     l2498:
  3348  016C  3008               	movlw	8
  3349  016D  00B6               	movwf	??___flmul
  3350  016E                     u2945:
  3351  016E  1003               	clrc
  3352  016F  0DBD               	rlf	___flmul@grs,f
  3353  0170  0DBE               	rlf	___flmul@grs+1,f
  3354  0171  0DBF               	rlf	___flmul@grs+2,f
  3355  0172  0DC0               	rlf	___flmul@grs+3,f
  3356  0173  0BB6               	decfsz	??___flmul,f
  3357  0174  296E               	goto	u2945
  3358  0175                     l2500:
  3359  0175  082F               	movf	___flmul@b+1,w
  3360  0176  00B6               	movwf	??___flmul
  3361  0177  0836               	movf	??___flmul,w
  3362  0178  00A0               	movwf	__Umul8_16@multiplicand
  3363  0179  0832               	movf	___flmul@a,w
  3364  017A  120A  118A  27A8  120A  118A  	fcall	__Umul8_16
  3365  017F  1283               	bcf	3,5	;RP0=0, select bank0
  3366  0180  1303               	bcf	3,6	;RP1=0, select bank0
  3367  0181  0821               	movf	?__Umul8_16+1,w
  3368  0182  00C7               	movwf	___flmul@temp+1
  3369  0183  0820               	movf	?__Umul8_16,w
  3370  0184  00C6               	movwf	___flmul@temp
  3371  0185                     l2502:
  3372  0185  0846               	movf	___flmul@temp,w
  3373  0186  00B6               	movwf	??___flmul
  3374  0187  0847               	movf	___flmul@temp+1,w
  3375  0188  00B7               	movwf	??___flmul+1
  3376  0189  01B8               	clrf	??___flmul+2
  3377  018A  01B9               	clrf	??___flmul+3
  3378  018B  0836               	movf	??___flmul,w
  3379  018C  07BD               	addwf	___flmul@grs,f
  3380  018D  0837               	movf	??___flmul+1,w
  3381  018E  1103               	clrz
  3382  018F  1803               	skipnc
  3383  0190  3E01               	addlw	1
  3384  0191  1903               	skipnz
  3385  0192  2994               	goto	u2951
  3386  0193  07BE               	addwf	___flmul@grs+1,f
  3387  0194                     u2951:
  3388  0194  0838               	movf	??___flmul+2,w
  3389  0195  1103               	clrz
  3390  0196  1803               	skipnc
  3391  0197  3E01               	addlw	1
  3392  0198  1903               	skipnz
  3393  0199  299B               	goto	u2952
  3394  019A  07BF               	addwf	___flmul@grs+2,f
  3395  019B                     u2952:
  3396  019B  0839               	movf	??___flmul+3,w
  3397  019C  1103               	clrz
  3398  019D  1803               	skipnc
  3399  019E  3E01               	addlw	1
  3400  019F  1903               	skipnz
  3401  01A0  29A2               	goto	u2953
  3402  01A1  07C0               	addwf	___flmul@grs+3,f
  3403  01A2                     u2953:
  3404  01A2                     l2504:
  3405  01A2  082E               	movf	___flmul@b,w
  3406  01A3  00B6               	movwf	??___flmul
  3407  01A4  0836               	movf	??___flmul,w
  3408  01A5  00A0               	movwf	__Umul8_16@multiplicand
  3409  01A6  0833               	movf	___flmul@a+1,w
  3410  01A7  120A  118A  27A8  120A  118A  	fcall	__Umul8_16
  3411  01AC  1283               	bcf	3,5	;RP0=0, select bank0
  3412  01AD  1303               	bcf	3,6	;RP1=0, select bank0
  3413  01AE  0821               	movf	?__Umul8_16+1,w
  3414  01AF  00C7               	movwf	___flmul@temp+1
  3415  01B0  0820               	movf	?__Umul8_16,w
  3416  01B1  00C6               	movwf	___flmul@temp
  3417  01B2                     l2506:
  3418  01B2  0846               	movf	___flmul@temp,w
  3419  01B3  00B6               	movwf	??___flmul
  3420  01B4  0847               	movf	___flmul@temp+1,w
  3421  01B5  00B7               	movwf	??___flmul+1
  3422  01B6  01B8               	clrf	??___flmul+2
  3423  01B7  01B9               	clrf	??___flmul+3
  3424  01B8  0836               	movf	??___flmul,w
  3425  01B9  07BD               	addwf	___flmul@grs,f
  3426  01BA  0837               	movf	??___flmul+1,w
  3427  01BB  1103               	clrz
  3428  01BC  1803               	skipnc
  3429  01BD  3E01               	addlw	1
  3430  01BE  1903               	skipnz
  3431  01BF  29C1               	goto	u2961
  3432  01C0  07BE               	addwf	___flmul@grs+1,f
  3433  01C1                     u2961:
  3434  01C1  0838               	movf	??___flmul+2,w
  3435  01C2  1103               	clrz
  3436  01C3  1803               	skipnc
  3437  01C4  3E01               	addlw	1
  3438  01C5  1903               	skipnz
  3439  01C6  29C8               	goto	u2962
  3440  01C7  07BF               	addwf	___flmul@grs+2,f
  3441  01C8                     u2962:
  3442  01C8  0839               	movf	??___flmul+3,w
  3443  01C9  1103               	clrz
  3444  01CA  1803               	skipnc
  3445  01CB  3E01               	addlw	1
  3446  01CC  1903               	skipnz
  3447  01CD  29CF               	goto	u2963
  3448  01CE  07C0               	addwf	___flmul@grs+3,f
  3449  01CF                     u2963:
  3450  01CF                     l2508:
  3451  01CF  3008               	movlw	8
  3452  01D0  00B6               	movwf	??___flmul
  3453  01D1                     u2975:
  3454  01D1  1003               	clrc
  3455  01D2  0DBD               	rlf	___flmul@grs,f
  3456  01D3  0DBE               	rlf	___flmul@grs+1,f
  3457  01D4  0DBF               	rlf	___flmul@grs+2,f
  3458  01D5  0DC0               	rlf	___flmul@grs+3,f
  3459  01D6  0BB6               	decfsz	??___flmul,f
  3460  01D7  29D1               	goto	u2975
  3461  01D8  082E               	movf	___flmul@b,w
  3462  01D9  00B6               	movwf	??___flmul
  3463  01DA  0836               	movf	??___flmul,w
  3464  01DB  00A0               	movwf	__Umul8_16@multiplicand
  3465  01DC  0832               	movf	___flmul@a,w
  3466  01DD  120A  118A  27A8  120A  118A  	fcall	__Umul8_16
  3467  01E2  1283               	bcf	3,5	;RP0=0, select bank0
  3468  01E3  1303               	bcf	3,6	;RP1=0, select bank0
  3469  01E4  0821               	movf	?__Umul8_16+1,w
  3470  01E5  00C7               	movwf	___flmul@temp+1
  3471  01E6  0820               	movf	?__Umul8_16,w
  3472  01E7  00C6               	movwf	___flmul@temp
  3473  01E8                     l2510:
  3474  01E8  0846               	movf	___flmul@temp,w
  3475  01E9  00B6               	movwf	??___flmul
  3476  01EA  0847               	movf	___flmul@temp+1,w
  3477  01EB  00B7               	movwf	??___flmul+1
  3478  01EC  01B8               	clrf	??___flmul+2
  3479  01ED  01B9               	clrf	??___flmul+3
  3480  01EE  0836               	movf	??___flmul,w
  3481  01EF  07BD               	addwf	___flmul@grs,f
  3482  01F0  0837               	movf	??___flmul+1,w
  3483  01F1  1103               	clrz
  3484  01F2  1803               	skipnc
  3485  01F3  3E01               	addlw	1
  3486  01F4  1903               	skipnz
  3487  01F5  29F7               	goto	u2981
  3488  01F6  07BE               	addwf	___flmul@grs+1,f
  3489  01F7                     u2981:
  3490  01F7  0838               	movf	??___flmul+2,w
  3491  01F8  1103               	clrz
  3492  01F9  1803               	skipnc
  3493  01FA  3E01               	addlw	1
  3494  01FB  1903               	skipnz
  3495  01FC  29FE               	goto	u2982
  3496  01FD  07BF               	addwf	___flmul@grs+2,f
  3497  01FE                     u2982:
  3498  01FE  0839               	movf	??___flmul+3,w
  3499  01FF  1103               	clrz
  3500  0200  1803               	skipnc
  3501  0201  3E01               	addlw	1
  3502  0202  1903               	skipnz
  3503  0203  2A05               	goto	u2983
  3504  0204  07C0               	addwf	___flmul@grs+3,f
  3505  0205                     u2983:
  3506  0205                     l2512:
  3507  0205  082F               	movf	___flmul@b+1,w
  3508  0206  00B6               	movwf	??___flmul
  3509  0207  0836               	movf	??___flmul,w
  3510  0208  00A0               	movwf	__Umul8_16@multiplicand
  3511  0209  0834               	movf	___flmul@a+2,w
  3512  020A  120A  118A  27A8  120A  118A  	fcall	__Umul8_16
  3513  020F  1283               	bcf	3,5	;RP0=0, select bank0
  3514  0210  1303               	bcf	3,6	;RP1=0, select bank0
  3515  0211  0821               	movf	?__Umul8_16+1,w
  3516  0212  00C7               	movwf	___flmul@temp+1
  3517  0213  0820               	movf	?__Umul8_16,w
  3518  0214  00C6               	movwf	___flmul@temp
  3519  0215  0846               	movf	___flmul@temp,w
  3520  0216  00B6               	movwf	??___flmul
  3521  0217  0847               	movf	___flmul@temp+1,w
  3522  0218  00B7               	movwf	??___flmul+1
  3523  0219  01B8               	clrf	??___flmul+2
  3524  021A  01B9               	clrf	??___flmul+3
  3525  021B  0836               	movf	??___flmul,w
  3526  021C  07C2               	addwf	___flmul@prod,f
  3527  021D  0837               	movf	??___flmul+1,w
  3528  021E  1103               	clrz
  3529  021F  1803               	skipnc
  3530  0220  3E01               	addlw	1
  3531  0221  1903               	skipnz
  3532  0222  2A24               	goto	u2991
  3533  0223  07C3               	addwf	___flmul@prod+1,f
  3534  0224                     u2991:
  3535  0224  0838               	movf	??___flmul+2,w
  3536  0225  1103               	clrz
  3537  0226  1803               	skipnc
  3538  0227  3E01               	addlw	1
  3539  0228  1903               	skipnz
  3540  0229  2A2B               	goto	u2992
  3541  022A  07C4               	addwf	___flmul@prod+2,f
  3542  022B                     u2992:
  3543  022B  0839               	movf	??___flmul+3,w
  3544  022C  1103               	clrz
  3545  022D  1803               	skipnc
  3546  022E  3E01               	addlw	1
  3547  022F  1903               	skipnz
  3548  0230  2A32               	goto	u2993
  3549  0231  07C5               	addwf	___flmul@prod+3,f
  3550  0232                     u2993:
  3551  0232                     l2514:
  3552  0232  0830               	movf	___flmul@b+2,w
  3553  0233  00B6               	movwf	??___flmul
  3554  0234  0836               	movf	??___flmul,w
  3555  0235  00A0               	movwf	__Umul8_16@multiplicand
  3556  0236  0833               	movf	___flmul@a+1,w
  3557  0237  120A  118A  27A8  120A  118A  	fcall	__Umul8_16
  3558  023C  1283               	bcf	3,5	;RP0=0, select bank0
  3559  023D  1303               	bcf	3,6	;RP1=0, select bank0
  3560  023E  0821               	movf	?__Umul8_16+1,w
  3561  023F  00C7               	movwf	___flmul@temp+1
  3562  0240  0820               	movf	?__Umul8_16,w
  3563  0241  00C6               	movwf	___flmul@temp
  3564  0242                     l2516:
  3565  0242  0846               	movf	___flmul@temp,w
  3566  0243  00B6               	movwf	??___flmul
  3567  0244  0847               	movf	___flmul@temp+1,w
  3568  0245  00B7               	movwf	??___flmul+1
  3569  0246  01B8               	clrf	??___flmul+2
  3570  0247  01B9               	clrf	??___flmul+3
  3571  0248  0836               	movf	??___flmul,w
  3572  0249  07C2               	addwf	___flmul@prod,f
  3573  024A  0837               	movf	??___flmul+1,w
  3574  024B  1103               	clrz
  3575  024C  1803               	skipnc
  3576  024D  3E01               	addlw	1
  3577  024E  1903               	skipnz
  3578  024F  2A51               	goto	u3001
  3579  0250  07C3               	addwf	___flmul@prod+1,f
  3580  0251                     u3001:
  3581  0251  0838               	movf	??___flmul+2,w
  3582  0252  1103               	clrz
  3583  0253  1803               	skipnc
  3584  0254  3E01               	addlw	1
  3585  0255  1903               	skipnz
  3586  0256  2A58               	goto	u3002
  3587  0257  07C4               	addwf	___flmul@prod+2,f
  3588  0258                     u3002:
  3589  0258  0839               	movf	??___flmul+3,w
  3590  0259  1103               	clrz
  3591  025A  1803               	skipnc
  3592  025B  3E01               	addlw	1
  3593  025C  1903               	skipnz
  3594  025D  2A5F               	goto	u3003
  3595  025E  07C5               	addwf	___flmul@prod+3,f
  3596  025F                     u3003:
  3597  025F  0830               	movf	___flmul@b+2,w
  3598  0260  00B6               	movwf	??___flmul
  3599  0261  0836               	movf	??___flmul,w
  3600  0262  00A0               	movwf	__Umul8_16@multiplicand
  3601  0263  0834               	movf	___flmul@a+2,w
  3602  0264  120A  118A  27A8  120A  118A  	fcall	__Umul8_16
  3603  0269  1283               	bcf	3,5	;RP0=0, select bank0
  3604  026A  1303               	bcf	3,6	;RP1=0, select bank0
  3605  026B  0821               	movf	?__Umul8_16+1,w
  3606  026C  00C7               	movwf	___flmul@temp+1
  3607  026D  0820               	movf	?__Umul8_16,w
  3608  026E  00C6               	movwf	___flmul@temp
  3609  026F                     l2518:
  3610  026F  0846               	movf	___flmul@temp,w
  3611  0270  00B6               	movwf	??___flmul
  3612  0271  0847               	movf	___flmul@temp+1,w
  3613  0272  00B7               	movwf	??___flmul+1
  3614  0273  01B8               	clrf	??___flmul+2
  3615  0274  01B9               	clrf	??___flmul+3
  3616  0275  3008               	movlw	8
  3617  0276                     u3015:
  3618  0276  1003               	clrc
  3619  0277  0DB6               	rlf	??___flmul,f
  3620  0278  0DB7               	rlf	??___flmul+1,f
  3621  0279  0DB8               	rlf	??___flmul+2,f
  3622  027A  0DB9               	rlf	??___flmul+3,f
  3623  027B                     u3010:
  3624  027B  3EFF               	addlw	-1
  3625  027C  1D03               	skipz
  3626  027D  2A76               	goto	u3015
  3627  027E  0836               	movf	??___flmul,w
  3628  027F  07C2               	addwf	___flmul@prod,f
  3629  0280  0837               	movf	??___flmul+1,w
  3630  0281  1103               	clrz
  3631  0282  1803               	skipnc
  3632  0283  3E01               	addlw	1
  3633  0284  1903               	skipnz
  3634  0285  2A87               	goto	u3021
  3635  0286  07C3               	addwf	___flmul@prod+1,f
  3636  0287                     u3021:
  3637  0287  0838               	movf	??___flmul+2,w
  3638  0288  1103               	clrz
  3639  0289  1803               	skipnc
  3640  028A  3E01               	addlw	1
  3641  028B  1903               	skipnz
  3642  028C  2A8E               	goto	u3022
  3643  028D  07C4               	addwf	___flmul@prod+2,f
  3644  028E                     u3022:
  3645  028E  0839               	movf	??___flmul+3,w
  3646  028F  1103               	clrz
  3647  0290  1803               	skipnc
  3648  0291  3E01               	addlw	1
  3649  0292  1903               	skipnz
  3650  0293  2A95               	goto	u3023
  3651  0294  07C5               	addwf	___flmul@prod+3,f
  3652  0295                     u3023:
  3653  0295                     l2520:
  3654  0295  083D               	movf	___flmul@grs,w
  3655  0296  00B6               	movwf	??___flmul
  3656  0297  083E               	movf	___flmul@grs+1,w
  3657  0298  00B7               	movwf	??___flmul+1
  3658  0299  083F               	movf	___flmul@grs+2,w
  3659  029A  00B8               	movwf	??___flmul+2
  3660  029B  0840               	movf	___flmul@grs+3,w
  3661  029C  00B9               	movwf	??___flmul+3
  3662  029D  3018               	movlw	24
  3663  029E                     u3035:
  3664  029E  1003               	clrc
  3665  029F  0CB9               	rrf	??___flmul+3,f
  3666  02A0  0CB8               	rrf	??___flmul+2,f
  3667  02A1  0CB7               	rrf	??___flmul+1,f
  3668  02A2  0CB6               	rrf	??___flmul,f
  3669  02A3                     u3030:
  3670  02A3  3EFF               	addlw	-1
  3671  02A4  1D03               	skipz
  3672  02A5  2A9E               	goto	u3035
  3673  02A6  0836               	movf	??___flmul,w
  3674  02A7  07C2               	addwf	___flmul@prod,f
  3675  02A8  0837               	movf	??___flmul+1,w
  3676  02A9  1103               	clrz
  3677  02AA  1803               	skipnc
  3678  02AB  3E01               	addlw	1
  3679  02AC  1903               	skipnz
  3680  02AD  2AAF               	goto	u3041
  3681  02AE  07C3               	addwf	___flmul@prod+1,f
  3682  02AF                     u3041:
  3683  02AF  0838               	movf	??___flmul+2,w
  3684  02B0  1103               	clrz
  3685  02B1  1803               	skipnc
  3686  02B2  3E01               	addlw	1
  3687  02B3  1903               	skipnz
  3688  02B4  2AB6               	goto	u3042
  3689  02B5  07C4               	addwf	___flmul@prod+2,f
  3690  02B6                     u3042:
  3691  02B6  0839               	movf	??___flmul+3,w
  3692  02B7  1103               	clrz
  3693  02B8  1803               	skipnc
  3694  02B9  3E01               	addlw	1
  3695  02BA  1903               	skipnz
  3696  02BB  2ABD               	goto	u3043
  3697  02BC  07C5               	addwf	___flmul@prod+3,f
  3698  02BD                     u3043:
  3699  02BD                     l2522:
  3700  02BD  3008               	movlw	8
  3701  02BE  00B6               	movwf	??___flmul
  3702  02BF                     u3055:
  3703  02BF  1003               	clrc
  3704  02C0  0DBD               	rlf	___flmul@grs,f
  3705  02C1  0DBE               	rlf	___flmul@grs+1,f
  3706  02C2  0DBF               	rlf	___flmul@grs+2,f
  3707  02C3  0DC0               	rlf	___flmul@grs+3,f
  3708  02C4  0BB6               	decfsz	??___flmul,f
  3709  02C5  2ABF               	goto	u3055
  3710  02C6                     l2524:
  3711  02C6  0841               	movf	___flmul@bexp,w
  3712  02C7  073C               	addwf	___flmul@aexp,w
  3713  02C8  00B6               	movwf	??___flmul
  3714  02C9  01B7               	clrf	??___flmul+1
  3715  02CA  0DB7               	rlf	??___flmul+1,f
  3716  02CB  0836               	movf	??___flmul,w
  3717  02CC  3E82               	addlw	130
  3718  02CD  00C6               	movwf	___flmul@temp
  3719  02CE  0837               	movf	??___flmul+1,w
  3720  02CF  1803               	skipnc
  3721  02D0  3E01               	addlw	1
  3722  02D1  3EFF               	addlw	255
  3723  02D2  00C7               	movwf	___flmul@temp+1
  3724  02D3  2AF1               	goto	l2536
  3725  02D4                     l2526:
  3726  02D4  3001               	movlw	1
  3727  02D5  00B6               	movwf	??___flmul
  3728  02D6                     u3065:
  3729  02D6  1003               	clrc
  3730  02D7  0DC2               	rlf	___flmul@prod,f
  3731  02D8  0DC3               	rlf	___flmul@prod+1,f
  3732  02D9  0DC4               	rlf	___flmul@prod+2,f
  3733  02DA  0DC5               	rlf	___flmul@prod+3,f
  3734  02DB  0BB6               	decfsz	??___flmul,f
  3735  02DC  2AD6               	goto	u3065
  3736  02DD                     l2528:
  3737  02DD  1FC0               	btfss	___flmul@grs+3,7
  3738  02DE  2AE0               	goto	u3071
  3739  02DF  2AE1               	goto	u3070
  3740  02E0                     u3071:
  3741  02E0  2AE2               	goto	l2532
  3742  02E1                     u3070:
  3743  02E1                     l2530:
  3744  02E1  1442               	bsf	___flmul@prod,0
  3745  02E2                     l2532:
  3746  02E2  3001               	movlw	1
  3747  02E3  00B6               	movwf	??___flmul
  3748  02E4                     u3085:
  3749  02E4  1003               	clrc
  3750  02E5  0DBD               	rlf	___flmul@grs,f
  3751  02E6  0DBE               	rlf	___flmul@grs+1,f
  3752  02E7  0DBF               	rlf	___flmul@grs+2,f
  3753  02E8  0DC0               	rlf	___flmul@grs+3,f
  3754  02E9  0BB6               	decfsz	??___flmul,f
  3755  02EA  2AE4               	goto	u3085
  3756  02EB                     l2534:
  3757  02EB  30FF               	movlw	255
  3758  02EC  07C6               	addwf	___flmul@temp,f
  3759  02ED  1803               	skipnc
  3760  02EE  0AC7               	incf	___flmul@temp+1,f
  3761  02EF  30FF               	movlw	255
  3762  02F0  07C7               	addwf	___flmul@temp+1,f
  3763  02F1                     l2536:
  3764  02F1  1FC4               	btfss	___flmul@prod+2,7
  3765  02F2  2AF4               	goto	u3091
  3766  02F3  2AF5               	goto	u3090
  3767  02F4                     u3091:
  3768  02F4  2AD4               	goto	l2526
  3769  02F5                     u3090:
  3770  02F5                     l2538:
  3771  02F5  01BC               	clrf	___flmul@aexp
  3772  02F6                     l2540:
  3773  02F6  1FC0               	btfss	___flmul@grs+3,7
  3774  02F7  2AF9               	goto	u3101
  3775  02F8  2AFA               	goto	u3100
  3776  02F9                     u3101:
  3777  02F9  2B16               	goto	l2548
  3778  02FA                     u3100:
  3779  02FA                     l2542:
  3780  02FA  30FF               	movlw	255
  3781  02FB  053D               	andwf	___flmul@grs,w
  3782  02FC  00B6               	movwf	??___flmul
  3783  02FD  30FF               	movlw	255
  3784  02FE  053E               	andwf	___flmul@grs+1,w
  3785  02FF  00B7               	movwf	??___flmul+1
  3786  0300  30FF               	movlw	255
  3787  0301  053F               	andwf	___flmul@grs+2,w
  3788  0302  00B8               	movwf	??___flmul+2
  3789  0303  307F               	movlw	127
  3790  0304  0540               	andwf	___flmul@grs+3,w
  3791  0305  00B9               	movwf	??___flmul+3
  3792  0306  0839               	movf	??___flmul+3,w
  3793  0307  0438               	iorwf	??___flmul+2,w
  3794  0308  0437               	iorwf	??___flmul+1,w
  3795  0309  0436               	iorwf	??___flmul,w
  3796  030A  1903               	skipnz
  3797  030B  2B0D               	goto	u3111
  3798  030C  2B0E               	goto	u3110
  3799  030D                     u3111:
  3800  030D  2B11               	goto	l691
  3801  030E                     u3110:
  3802  030E                     l2544:
  3803  030E  01BC               	clrf	___flmul@aexp
  3804  030F  0ABC               	incf	___flmul@aexp,f
  3805  0310  2B16               	goto	l2548
  3806  0311                     l691:
  3807  0311  1C42               	btfss	___flmul@prod,0
  3808  0312  2B14               	goto	u3121
  3809  0313  2B15               	goto	u3120
  3810  0314                     u3121:
  3811  0314  2B16               	goto	l2548
  3812  0315                     u3120:
  3813  0315  2B0E               	goto	l2544
  3814  0316                     l2548:
  3815  0316  083C               	movf	___flmul@aexp,w
  3816  0317  1903               	btfsc	3,2
  3817  0318  2B1A               	goto	u3131
  3818  0319  2B1B               	goto	u3130
  3819  031A                     u3131:
  3820  031A  2B4C               	goto	l2558
  3821  031B                     u3130:
  3822  031B                     l2550:
  3823  031B  3001               	movlw	1
  3824  031C  07C2               	addwf	___flmul@prod,f
  3825  031D  3000               	movlw	0
  3826  031E  1803               	skipnc
  3827  031F  3001               	movlw	1
  3828  0320  07C3               	addwf	___flmul@prod+1,f
  3829  0321  3000               	movlw	0
  3830  0322  1803               	skipnc
  3831  0323  3001               	movlw	1
  3832  0324  07C4               	addwf	___flmul@prod+2,f
  3833  0325  3000               	movlw	0
  3834  0326  1803               	skipnc
  3835  0327  3001               	movlw	1
  3836  0328  07C5               	addwf	___flmul@prod+3,f
  3837  0329                     l2552:
  3838  0329  1C45               	btfss	___flmul@prod+3,0
  3839  032A  2B2C               	goto	u3141
  3840  032B  2B2D               	goto	u3140
  3841  032C                     u3141:
  3842  032C  2B4C               	goto	l2558
  3843  032D                     u3140:
  3844  032D                     l2554:
  3845  032D  0842               	movf	___flmul@prod,w
  3846  032E  00B6               	movwf	??___flmul
  3847  032F  0843               	movf	___flmul@prod+1,w
  3848  0330  00B7               	movwf	??___flmul+1
  3849  0331  0844               	movf	___flmul@prod+2,w
  3850  0332  00B8               	movwf	??___flmul+2
  3851  0333  0845               	movf	___flmul@prod+3,w
  3852  0334  00B9               	movwf	??___flmul+3
  3853  0335  3001               	movlw	1
  3854  0336  00BA               	movwf	??___flmul+4
  3855  0337                     u3155:
  3856  0337  0D39               	rlf	??___flmul+3,w
  3857  0338  0CB9               	rrf	??___flmul+3,f
  3858  0339  0CB8               	rrf	??___flmul+2,f
  3859  033A  0CB7               	rrf	??___flmul+1,f
  3860  033B  0CB6               	rrf	??___flmul,f
  3861  033C                     u3150:
  3862  033C  0BBA               	decfsz	??___flmul+4,f
  3863  033D  2B37               	goto	u3155
  3864  033E  0839               	movf	??___flmul+3,w
  3865  033F  00C5               	movwf	___flmul@prod+3
  3866  0340  0838               	movf	??___flmul+2,w
  3867  0341  00C4               	movwf	___flmul@prod+2
  3868  0342  0837               	movf	??___flmul+1,w
  3869  0343  00C3               	movwf	___flmul@prod+1
  3870  0344  0836               	movf	??___flmul,w
  3871  0345  00C2               	movwf	___flmul@prod
  3872  0346                     l2556:
  3873  0346  3001               	movlw	1
  3874  0347  07C6               	addwf	___flmul@temp,f
  3875  0348  1803               	skipnc
  3876  0349  0AC7               	incf	___flmul@temp+1,f
  3877  034A  3000               	movlw	0
  3878  034B  07C7               	addwf	___flmul@temp+1,f
  3879  034C                     l2558:
  3880  034C  0847               	movf	___flmul@temp+1,w
  3881  034D  3A80               	xorlw	128
  3882  034E  00FF               	movwf	btemp+1
  3883  034F  3080               	movlw	128
  3884  0350  027F               	subwf	btemp+1,w
  3885  0351  1D03               	skipz
  3886  0352  2B55               	goto	u3165
  3887  0353  30FF               	movlw	255
  3888  0354  0246               	subwf	___flmul@temp,w
  3889  0355                     u3165:
  3890  0355  1C03               	skipc
  3891  0356  2B58               	goto	u3161
  3892  0357  2B59               	goto	u3160
  3893  0358                     u3161:
  3894  0358  2B64               	goto	l2562
  3895  0359                     u3160:
  3896  0359                     l2560:
  3897  0359  307F               	movlw	127
  3898  035A  1283               	bcf	3,5	;RP0=0, select bank0
  3899  035B  1303               	bcf	3,6	;RP1=0, select bank0
  3900  035C  00C5               	movwf	___flmul@prod+3
  3901  035D  3080               	movlw	128
  3902  035E  00C4               	movwf	___flmul@prod+2
  3903  035F  3000               	movlw	0
  3904  0360  00C3               	movwf	___flmul@prod+1
  3905  0361  3000               	movlw	0
  3906  0362  00C2               	movwf	___flmul@prod
  3907  0363  2B99               	goto	l697
  3908  0364                     l2562:
  3909  0364  1283               	bcf	3,5	;RP0=0, select bank0
  3910  0365  1303               	bcf	3,6	;RP1=0, select bank0
  3911  0366  0847               	movf	___flmul@temp+1,w
  3912  0367  3A80               	xorlw	128
  3913  0368  00FF               	movwf	btemp+1
  3914  0369  3080               	movlw	128
  3915  036A  027F               	subwf	btemp+1,w
  3916  036B  1D03               	skipz
  3917  036C  2B6F               	goto	u3175
  3918  036D  3001               	movlw	1
  3919  036E  0246               	subwf	___flmul@temp,w
  3920  036F                     u3175:
  3921  036F  1803               	skipnc
  3922  0370  2B72               	goto	u3171
  3923  0371  2B73               	goto	u3170
  3924  0372                     u3171:
  3925  0372  2B7F               	goto	l2568
  3926  0373                     u3170:
  3927  0373                     l2564:
  3928  0373  3000               	movlw	0
  3929  0374  1283               	bcf	3,5	;RP0=0, select bank0
  3930  0375  1303               	bcf	3,6	;RP1=0, select bank0
  3931  0376  00C5               	movwf	___flmul@prod+3
  3932  0377  3000               	movlw	0
  3933  0378  00C4               	movwf	___flmul@prod+2
  3934  0379  3000               	movlw	0
  3935  037A  00C3               	movwf	___flmul@prod+1
  3936  037B  3000               	movlw	0
  3937  037C  00C2               	movwf	___flmul@prod
  3938  037D                     l2566:
  3939  037D  01BB               	clrf	___flmul@sign
  3940  037E  2B99               	goto	l697
  3941  037F                     l2568:
  3942  037F  1283               	bcf	3,5	;RP0=0, select bank0
  3943  0380  1303               	bcf	3,6	;RP1=0, select bank0
  3944  0381  0846               	movf	___flmul@temp,w
  3945  0382  00B6               	movwf	??___flmul
  3946  0383  0836               	movf	??___flmul,w
  3947  0384  00C1               	movwf	___flmul@bexp
  3948  0385  30FF               	movlw	255
  3949  0386  05C2               	andwf	___flmul@prod,f
  3950  0387  30FF               	movlw	255
  3951  0388  05C3               	andwf	___flmul@prod+1,f
  3952  0389  307F               	movlw	127
  3953  038A  05C4               	andwf	___flmul@prod+2,f
  3954  038B  3000               	movlw	0
  3955  038C  05C5               	andwf	___flmul@prod+3,f
  3956  038D                     l2570:
  3957  038D  1C41               	btfss	___flmul@bexp,0
  3958  038E  2B90               	goto	u3181
  3959  038F  2B91               	goto	u3180
  3960  0390                     u3181:
  3961  0390  2B92               	goto	l2574
  3962  0391                     u3180:
  3963  0391                     l2572:
  3964  0391  17C4               	bsf	___flmul@prod+2,7
  3965  0392                     l2574:
  3966  0392  0841               	movf	___flmul@bexp,w
  3967  0393  00B6               	movwf	??___flmul
  3968  0394  1003               	clrc
  3969  0395  0C36               	rrf	??___flmul,w
  3970  0396  00B7               	movwf	??___flmul+1
  3971  0397  0837               	movf	??___flmul+1,w
  3972  0398  00C5               	movwf	___flmul@prod+3
  3973  0399                     l697:
  3974  0399  083B               	movf	___flmul@sign,w
  3975  039A  00B6               	movwf	??___flmul
  3976  039B  0836               	movf	??___flmul,w
  3977  039C  04C5               	iorwf	___flmul@prod+3,f
  3978  039D                     l2576:
  3979  039D  0845               	movf	___flmul@prod+3,w
  3980  039E  00B1               	movwf	?___flmul+3
  3981  039F  0844               	movf	___flmul@prod+2,w
  3982  03A0  00B0               	movwf	?___flmul+2
  3983  03A1  0843               	movf	___flmul@prod+1,w
  3984  03A2  00AF               	movwf	?___flmul+1
  3985  03A3  0842               	movf	___flmul@prod,w
  3986  03A4  00AE               	movwf	?___flmul
  3987  03A5                     l685:
  3988  03A5  0008               	return
  3989  03A6                     __end_of___flmul:
  3990                           
  3991                           	psect	text8
  3992  07A8                     __ptext8:	
  3993 ;; *************** function __Umul8_16 *****************
  3994 ;; Defined at:
  3995 ;;		line 4 in file "C:\Program Files\Microchip\xc8\v2.31\pic\sources\c90\common\Umul8_16.c"
  3996 ;; Parameters:    Size  Location     Type
  3997 ;;  multiplier      1    wreg     unsigned char 
  3998 ;;  multiplicand    1    0[BANK0 ] unsigned char 
  3999 ;; Auto vars:     Size  Location     Type
  4000 ;;  multiplier      1    8[BANK0 ] unsigned char 
  4001 ;;  word_mpld       2    6[BANK0 ] unsigned int 
  4002 ;;  product         2    4[BANK0 ] unsigned int 
  4003 ;; Return value:  Size  Location     Type
  4004 ;;                  2    0[BANK0 ] unsigned int 
  4005 ;; Registers used:
  4006 ;;		wreg, status,2, status,0
  4007 ;; Tracked objects:
  4008 ;;		On entry : 0/0
  4009 ;;		On exit  : 0/0
  4010 ;;		Unchanged: 0/0
  4011 ;; Data sizes:     COMMON   BANK0   BANK1   BANK3   BANK2
  4012 ;;      Params:         0       2       0       0       0
  4013 ;;      Locals:         0       5       0       0       0
  4014 ;;      Temps:          0       2       0       0       0
  4015 ;;      Totals:         0       9       0       0       0
  4016 ;;Total ram usage:        9 bytes
  4017 ;; Hardware stack levels used:    1
  4018 ;; Hardware stack levels required when called:    1
  4019 ;; This function calls:
  4020 ;;		Nothing
  4021 ;; This function is called by:
  4022 ;;		___flmul
  4023 ;; This function uses a non-reentrant model
  4024 ;;
  4025                           
  4026                           
  4027                           ;psect for function __Umul8_16
  4028  07A8                     __Umul8_16:
  4029                           
  4030                           ;incstack = 0
  4031                           ; Regs used in __Umul8_16: [wreg+status,2+status,0]
  4032                           ;__Umul8_16@multiplier stored from wreg
  4033  07A8  1283               	bcf	3,5	;RP0=0, select bank0
  4034  07A9  1303               	bcf	3,6	;RP1=0, select bank0
  4035  07AA  00A8               	movwf	__Umul8_16@multiplier
  4036  07AB                     l2426:
  4037  07AB  01A4               	clrf	__Umul8_16@product
  4038  07AC  01A5               	clrf	__Umul8_16@product+1
  4039  07AD                     l2428:
  4040  07AD  0820               	movf	__Umul8_16@multiplicand,w
  4041  07AE  00A2               	movwf	??__Umul8_16
  4042  07AF  01A3               	clrf	??__Umul8_16+1
  4043  07B0  0822               	movf	??__Umul8_16,w
  4044  07B1  00A6               	movwf	__Umul8_16@word_mpld
  4045  07B2  0823               	movf	??__Umul8_16+1,w
  4046  07B3  00A7               	movwf	__Umul8_16@word_mpld+1
  4047  07B4                     l2430:
  4048  07B4  1C28               	btfss	__Umul8_16@multiplier,0
  4049  07B5  2FB7               	goto	u2791
  4050  07B6  2FB8               	goto	u2790
  4051  07B7                     u2791:
  4052  07B7  2FBE               	goto	l704
  4053  07B8                     u2790:
  4054  07B8                     l2432:
  4055  07B8  0826               	movf	__Umul8_16@word_mpld,w
  4056  07B9  07A4               	addwf	__Umul8_16@product,f
  4057  07BA  1803               	skipnc
  4058  07BB  0AA5               	incf	__Umul8_16@product+1,f
  4059  07BC  0827               	movf	__Umul8_16@word_mpld+1,w
  4060  07BD  07A5               	addwf	__Umul8_16@product+1,f
  4061  07BE                     l704:
  4062  07BE  3001               	movlw	1
  4063  07BF                     u2805:
  4064  07BF  1003               	clrc
  4065  07C0  0DA6               	rlf	__Umul8_16@word_mpld,f
  4066  07C1  0DA7               	rlf	__Umul8_16@word_mpld+1,f
  4067  07C2  3EFF               	addlw	-1
  4068  07C3  1D03               	skipz
  4069  07C4  2FBF               	goto	u2805
  4070  07C5  1003               	clrc
  4071  07C6  0CA8               	rrf	__Umul8_16@multiplier,f
  4072  07C7                     l2434:
  4073  07C7  0828               	movf	__Umul8_16@multiplier,w
  4074  07C8  1D03               	btfss	3,2
  4075  07C9  2FCB               	goto	u2811
  4076  07CA  2FCC               	goto	u2810
  4077  07CB                     u2811:
  4078  07CB  2FB4               	goto	l2430
  4079  07CC                     u2810:
  4080  07CC                     l2436:
  4081  07CC  0825               	movf	__Umul8_16@product+1,w
  4082  07CD  00A1               	movwf	?__Umul8_16+1
  4083  07CE  0824               	movf	__Umul8_16@product,w
  4084  07CF  00A0               	movwf	?__Umul8_16
  4085  07D0                     l706:
  4086  07D0  0008               	return
  4087  07D1                     __end_of__Umul8_16:
  4088                           
  4089                           	psect	text9
  4090  0D78                     __ptext9:	
  4091 ;; *************** function ___fladd *****************
  4092 ;; Defined at:
  4093 ;;		line 10 in file "C:\Program Files\Microchip\xc8\v2.31\pic\sources\c90\common\sprcadd.c"
  4094 ;; Parameters:    Size  Location     Type
  4095 ;;  b               4   40[BANK0 ] unsigned int 
  4096 ;;  a               4   44[BANK0 ] unsigned int 
  4097 ;; Auto vars:     Size  Location     Type
  4098 ;;  grs             1   59[BANK0 ] unsigned char 
  4099 ;;  bexp            1   58[BANK0 ] unsigned char 
  4100 ;;  aexp            1   57[BANK0 ] unsigned char 
  4101 ;;  signs           1   56[BANK0 ] unsigned char 
  4102 ;; Return value:  Size  Location     Type
  4103 ;;                  4   40[BANK0 ] unsigned char 
  4104 ;; Registers used:
  4105 ;;		wreg, status,2, status,0, btemp+1
  4106 ;; Tracked objects:
  4107 ;;		On entry : 0/0
  4108 ;;		On exit  : 0/0
  4109 ;;		Unchanged: 0/0
  4110 ;; Data sizes:     COMMON   BANK0   BANK1   BANK3   BANK2
  4111 ;;      Params:         0       8       0       0       0
  4112 ;;      Locals:         0       4       0       0       0
  4113 ;;      Temps:          0       8       0       0       0
  4114 ;;      Totals:         0      20       0       0       0
  4115 ;;Total ram usage:       20 bytes
  4116 ;; Hardware stack levels used:    1
  4117 ;; Hardware stack levels required when called:    1
  4118 ;; This function calls:
  4119 ;;		Nothing
  4120 ;; This function is called by:
  4121 ;;		_main
  4122 ;;		_ANALOGICOS
  4123 ;; This function uses a non-reentrant model
  4124 ;;
  4125                           
  4126                           
  4127                           ;psect for function ___fladd
  4128  0D78                     ___fladd:
  4129  0D78                     l1664:	
  4130                           ;incstack = 0
  4131                           ; Regs used in ___fladd: [wreg+status,2+status,0+btemp+1]
  4132                           
  4133  0D78  1283               	bcf	3,5	;RP0=0, select bank0
  4134  0D79  1303               	bcf	3,6	;RP1=0, select bank0
  4135  0D7A  084B               	movf	___fladd@b+3,w
  4136  0D7B  3980               	andlw	128
  4137  0D7C  00D0               	movwf	??___fladd
  4138  0D7D  0850               	movf	??___fladd,w
  4139  0D7E  00D8               	movwf	___fladd@signs
  4140  0D7F                     l1666:
  4141  0D7F  084B               	movf	___fladd@b+3,w
  4142  0D80  00D0               	movwf	??___fladd
  4143  0D81  0750               	addwf	??___fladd,w
  4144  0D82  00D1               	movwf	??___fladd+1
  4145  0D83  0851               	movf	??___fladd+1,w
  4146  0D84  00DA               	movwf	___fladd@bexp
  4147  0D85                     l1668:
  4148  0D85  1FCA               	btfss	___fladd@b+2,7
  4149  0D86  2D88               	goto	u1531
  4150  0D87  2D89               	goto	u1530
  4151  0D88                     u1531:
  4152  0D88  2D8A               	goto	l1672
  4153  0D89                     u1530:
  4154  0D89                     l1670:
  4155  0D89  145A               	bsf	___fladd@bexp,0
  4156  0D8A                     l1672:
  4157  0D8A  085A               	movf	___fladd@bexp,w
  4158  0D8B  1903               	btfsc	3,2
  4159  0D8C  2D8E               	goto	u1541
  4160  0D8D  2D8F               	goto	u1540
  4161  0D8E                     u1541:
  4162  0D8E  2D9F               	goto	l1682
  4163  0D8F                     u1540:
  4164  0D8F                     l1674:
  4165  0D8F  0A5A               	incf	___fladd@bexp,w
  4166  0D90  1D03               	btfss	3,2
  4167  0D91  2D93               	goto	u1551
  4168  0D92  2D94               	goto	u1550
  4169  0D93                     u1551:
  4170  0D93  2D9C               	goto	l1678
  4171  0D94                     u1550:
  4172  0D94                     l1676:
  4173  0D94  3000               	movlw	0
  4174  0D95  00CB               	movwf	___fladd@b+3
  4175  0D96  3000               	movlw	0
  4176  0D97  00CA               	movwf	___fladd@b+2
  4177  0D98  3000               	movlw	0
  4178  0D99  00C9               	movwf	___fladd@b+1
  4179  0D9A  3000               	movlw	0
  4180  0D9B  00C8               	movwf	___fladd@b
  4181  0D9C                     l1678:
  4182  0D9C  17CA               	bsf	___fladd@b+2,7
  4183  0D9D                     l1680:
  4184  0D9D  01CB               	clrf	___fladd@b+3
  4185  0D9E  2DA7               	goto	l1684
  4186  0D9F                     l1682:
  4187  0D9F  3000               	movlw	0
  4188  0DA0  00CB               	movwf	___fladd@b+3
  4189  0DA1  3000               	movlw	0
  4190  0DA2  00CA               	movwf	___fladd@b+2
  4191  0DA3  3000               	movlw	0
  4192  0DA4  00C9               	movwf	___fladd@b+1
  4193  0DA5  3000               	movlw	0
  4194  0DA6  00C8               	movwf	___fladd@b
  4195  0DA7                     l1684:
  4196  0DA7  084F               	movf	___fladd@a+3,w
  4197  0DA8  3980               	andlw	128
  4198  0DA9  00D0               	movwf	??___fladd
  4199  0DAA  0850               	movf	??___fladd,w
  4200  0DAB  00D9               	movwf	___fladd@aexp
  4201  0DAC                     l1686:
  4202  0DAC  0859               	movf	___fladd@aexp,w
  4203  0DAD  0658               	xorwf	___fladd@signs,w
  4204  0DAE  1903               	skipnz
  4205  0DAF  2DB1               	goto	u1561
  4206  0DB0  2DB2               	goto	u1560
  4207  0DB1                     u1561:
  4208  0DB1  2DB3               	goto	l1690
  4209  0DB2                     u1560:
  4210  0DB2                     l1688:
  4211  0DB2  1758               	bsf	___fladd@signs,6
  4212  0DB3                     l1690:
  4213  0DB3  084F               	movf	___fladd@a+3,w
  4214  0DB4  00D0               	movwf	??___fladd
  4215  0DB5  0750               	addwf	??___fladd,w
  4216  0DB6  00D1               	movwf	??___fladd+1
  4217  0DB7  0851               	movf	??___fladd+1,w
  4218  0DB8  00D9               	movwf	___fladd@aexp
  4219  0DB9                     l1692:
  4220  0DB9  1FCE               	btfss	___fladd@a+2,7
  4221  0DBA  2DBC               	goto	u1571
  4222  0DBB  2DBD               	goto	u1570
  4223  0DBC                     u1571:
  4224  0DBC  2DBE               	goto	l1696
  4225  0DBD                     u1570:
  4226  0DBD                     l1694:
  4227  0DBD  1459               	bsf	___fladd@aexp,0
  4228  0DBE                     l1696:
  4229  0DBE  0859               	movf	___fladd@aexp,w
  4230  0DBF  1903               	btfsc	3,2
  4231  0DC0  2DC2               	goto	u1581
  4232  0DC1  2DC3               	goto	u1580
  4233  0DC2                     u1581:
  4234  0DC2  2DD3               	goto	l1706
  4235  0DC3                     u1580:
  4236  0DC3                     l1698:
  4237  0DC3  0A59               	incf	___fladd@aexp,w
  4238  0DC4  1D03               	btfss	3,2
  4239  0DC5  2DC7               	goto	u1591
  4240  0DC6  2DC8               	goto	u1590
  4241  0DC7                     u1591:
  4242  0DC7  2DD0               	goto	l1702
  4243  0DC8                     u1590:
  4244  0DC8                     l1700:
  4245  0DC8  3000               	movlw	0
  4246  0DC9  00CF               	movwf	___fladd@a+3
  4247  0DCA  3000               	movlw	0
  4248  0DCB  00CE               	movwf	___fladd@a+2
  4249  0DCC  3000               	movlw	0
  4250  0DCD  00CD               	movwf	___fladd@a+1
  4251  0DCE  3000               	movlw	0
  4252  0DCF  00CC               	movwf	___fladd@a
  4253  0DD0                     l1702:
  4254  0DD0  17CE               	bsf	___fladd@a+2,7
  4255  0DD1                     l1704:
  4256  0DD1  01CF               	clrf	___fladd@a+3
  4257  0DD2  2DDB               	goto	l589
  4258  0DD3                     l1706:
  4259  0DD3  3000               	movlw	0
  4260  0DD4  00CF               	movwf	___fladd@a+3
  4261  0DD5  3000               	movlw	0
  4262  0DD6  00CE               	movwf	___fladd@a+2
  4263  0DD7  3000               	movlw	0
  4264  0DD8  00CD               	movwf	___fladd@a+1
  4265  0DD9  3000               	movlw	0
  4266  0DDA  00CC               	movwf	___fladd@a
  4267  0DDB                     l589:
  4268  0DDB  085A               	movf	___fladd@bexp,w
  4269  0DDC  0259               	subwf	___fladd@aexp,w
  4270  0DDD  1803               	skipnc
  4271  0DDE  2DE0               	goto	u1601
  4272  0DDF  2DE1               	goto	u1600
  4273  0DE0                     u1601:
  4274  0DE0  2E25               	goto	l1742
  4275  0DE1                     u1600:
  4276  0DE1                     l1708:
  4277  0DE1  1F58               	btfss	___fladd@signs,6
  4278  0DE2  2DE4               	goto	u1611
  4279  0DE3  2DE5               	goto	u1610
  4280  0DE4                     u1611:
  4281  0DE4  2DE9               	goto	l1712
  4282  0DE5                     u1610:
  4283  0DE5                     l1710:
  4284  0DE5  3080               	movlw	128
  4285  0DE6  00D0               	movwf	??___fladd
  4286  0DE7  0850               	movf	??___fladd,w
  4287  0DE8  06D8               	xorwf	___fladd@signs,f
  4288  0DE9                     l1712:
  4289  0DE9  085A               	movf	___fladd@bexp,w
  4290  0DEA  00D0               	movwf	??___fladd
  4291  0DEB  0850               	movf	??___fladd,w
  4292  0DEC  00DB               	movwf	___fladd@grs
  4293  0DED                     l1714:
  4294  0DED  0859               	movf	___fladd@aexp,w
  4295  0DEE  00D0               	movwf	??___fladd
  4296  0DEF  0850               	movf	??___fladd,w
  4297  0DF0  00DA               	movwf	___fladd@bexp
  4298  0DF1                     l1716:
  4299  0DF1  085B               	movf	___fladd@grs,w
  4300  0DF2  00D0               	movwf	??___fladd
  4301  0DF3  0850               	movf	??___fladd,w
  4302  0DF4  00D9               	movwf	___fladd@aexp
  4303  0DF5                     l1718:
  4304  0DF5  0848               	movf	___fladd@b,w
  4305  0DF6  00D0               	movwf	??___fladd
  4306  0DF7  0850               	movf	??___fladd,w
  4307  0DF8  00DB               	movwf	___fladd@grs
  4308  0DF9                     l1720:
  4309  0DF9  084C               	movf	___fladd@a,w
  4310  0DFA  00D0               	movwf	??___fladd
  4311  0DFB  0850               	movf	??___fladd,w
  4312  0DFC  00C8               	movwf	___fladd@b
  4313  0DFD                     l1722:
  4314  0DFD  085B               	movf	___fladd@grs,w
  4315  0DFE  00D0               	movwf	??___fladd
  4316  0DFF  0850               	movf	??___fladd,w
  4317  0E00  00CC               	movwf	___fladd@a
  4318  0E01                     l1724:
  4319  0E01  0849               	movf	___fladd@b+1,w
  4320  0E02  00D0               	movwf	??___fladd
  4321  0E03  0850               	movf	??___fladd,w
  4322  0E04  00DB               	movwf	___fladd@grs
  4323  0E05                     l1726:
  4324  0E05  084D               	movf	___fladd@a+1,w
  4325  0E06  00D0               	movwf	??___fladd
  4326  0E07  0850               	movf	??___fladd,w
  4327  0E08  00C9               	movwf	___fladd@b+1
  4328  0E09                     l1728:
  4329  0E09  085B               	movf	___fladd@grs,w
  4330  0E0A  00D0               	movwf	??___fladd
  4331  0E0B  0850               	movf	??___fladd,w
  4332  0E0C  00CD               	movwf	___fladd@a+1
  4333  0E0D                     l1730:
  4334  0E0D  084A               	movf	___fladd@b+2,w
  4335  0E0E  00D0               	movwf	??___fladd
  4336  0E0F  0850               	movf	??___fladd,w
  4337  0E10  00DB               	movwf	___fladd@grs
  4338  0E11                     l1732:
  4339  0E11  084E               	movf	___fladd@a+2,w
  4340  0E12  00D0               	movwf	??___fladd
  4341  0E13  0850               	movf	??___fladd,w
  4342  0E14  00CA               	movwf	___fladd@b+2
  4343  0E15                     l1734:
  4344  0E15  085B               	movf	___fladd@grs,w
  4345  0E16  00D0               	movwf	??___fladd
  4346  0E17  0850               	movf	??___fladd,w
  4347  0E18  00CE               	movwf	___fladd@a+2
  4348  0E19                     l1736:
  4349  0E19  084B               	movf	___fladd@b+3,w
  4350  0E1A  00D0               	movwf	??___fladd
  4351  0E1B  0850               	movf	??___fladd,w
  4352  0E1C  00DB               	movwf	___fladd@grs
  4353  0E1D                     l1738:
  4354  0E1D  084F               	movf	___fladd@a+3,w
  4355  0E1E  00D0               	movwf	??___fladd
  4356  0E1F  0850               	movf	??___fladd,w
  4357  0E20  00CB               	movwf	___fladd@b+3
  4358  0E21                     l1740:
  4359  0E21  085B               	movf	___fladd@grs,w
  4360  0E22  00D0               	movwf	??___fladd
  4361  0E23  0850               	movf	??___fladd,w
  4362  0E24  00CF               	movwf	___fladd@a+3
  4363  0E25                     l1742:
  4364  0E25  01DB               	clrf	___fladd@grs
  4365  0E26                     l1744:
  4366  0E26  0859               	movf	___fladd@aexp,w
  4367  0E27  00D0               	movwf	??___fladd
  4368  0E28  01D1               	clrf	??___fladd+1
  4369  0E29  0851               	movf	??___fladd+1,w
  4370  0E2A  00D3               	movwf	??___fladd+3
  4371  0E2B  085A               	movf	___fladd@bexp,w
  4372  0E2C  0250               	subwf	??___fladd,w
  4373  0E2D  00D2               	movwf	??___fladd+2
  4374  0E2E  1C03               	skipc
  4375  0E2F  03D3               	decf	??___fladd+3,f
  4376  0E30  0853               	movf	??___fladd+3,w
  4377  0E31  3A80               	xorlw	128
  4378  0E32  00FF               	movwf	btemp+1
  4379  0E33  3080               	movlw	128
  4380  0E34  027F               	subwf	btemp+1,w
  4381  0E35  1D03               	skipz
  4382  0E36  2E39               	goto	u1625
  4383  0E37  301A               	movlw	26
  4384  0E38  0252               	subwf	??___fladd+2,w
  4385  0E39                     u1625:
  4386  0E39  1C03               	skipc
  4387  0E3A  2E3C               	goto	u1621
  4388  0E3B  2E3D               	goto	u1620
  4389  0E3C                     u1621:
  4390  0E3C  2E7A               	goto	l1760
  4391  0E3D                     u1620:
  4392  0E3D                     l1746:
  4393  0E3D  1283               	bcf	3,5	;RP0=0, select bank0
  4394  0E3E  1303               	bcf	3,6	;RP1=0, select bank0
  4395  0E3F  084B               	movf	___fladd@b+3,w
  4396  0E40  044A               	iorwf	___fladd@b+2,w
  4397  0E41  0449               	iorwf	___fladd@b+1,w
  4398  0E42  0448               	iorwf	___fladd@b,w
  4399  0E43  1D03               	skipz
  4400  0E44  2E46               	goto	u1631
  4401  0E45  2E48               	goto	u1630
  4402  0E46                     u1631:
  4403  0E46  3001               	movlw	1
  4404  0E47  2E49               	goto	u1640
  4405  0E48                     u1630:
  4406  0E48  3000               	movlw	0
  4407  0E49                     u1640:
  4408  0E49  00D0               	movwf	??___fladd
  4409  0E4A  0850               	movf	??___fladd,w
  4410  0E4B  00DB               	movwf	___fladd@grs
  4411  0E4C  3000               	movlw	0
  4412  0E4D  00CB               	movwf	___fladd@b+3
  4413  0E4E  3000               	movlw	0
  4414  0E4F  00CA               	movwf	___fladd@b+2
  4415  0E50  3000               	movlw	0
  4416  0E51  00C9               	movwf	___fladd@b+1
  4417  0E52  3000               	movlw	0
  4418  0E53  00C8               	movwf	___fladd@b
  4419  0E54  0859               	movf	___fladd@aexp,w
  4420  0E55  00D0               	movwf	??___fladd
  4421  0E56  0850               	movf	??___fladd,w
  4422  0E57  00DA               	movwf	___fladd@bexp
  4423  0E58  2E82               	goto	l593
  4424  0E59                     l595:
  4425  0E59  1C5B               	btfss	___fladd@grs,0
  4426  0E5A  2E5C               	goto	u1651
  4427  0E5B  2E5D               	goto	u1650
  4428  0E5C                     u1651:
  4429  0E5C  2E66               	goto	l1750
  4430  0E5D                     u1650:
  4431  0E5D                     l1748:
  4432  0E5D  085B               	movf	___fladd@grs,w
  4433  0E5E  00D0               	movwf	??___fladd
  4434  0E5F  1003               	clrc
  4435  0E60  0C50               	rrf	??___fladd,w
  4436  0E61  3801               	iorlw	1
  4437  0E62  00D1               	movwf	??___fladd+1
  4438  0E63  0851               	movf	??___fladd+1,w
  4439  0E64  00DB               	movwf	___fladd@grs
  4440  0E65  2E68               	goto	l1752
  4441  0E66                     l1750:
  4442  0E66  1003               	clrc
  4443  0E67  0CDB               	rrf	___fladd@grs,f
  4444  0E68                     l1752:
  4445  0E68  1C48               	btfss	___fladd@b,0
  4446  0E69  2E6B               	goto	u1661
  4447  0E6A  2E6C               	goto	u1660
  4448  0E6B                     u1661:
  4449  0E6B  2E6D               	goto	l1756
  4450  0E6C                     u1660:
  4451  0E6C                     l1754:
  4452  0E6C  17DB               	bsf	___fladd@grs,7
  4453  0E6D                     l1756:
  4454  0E6D  3001               	movlw	1
  4455  0E6E  00D0               	movwf	??___fladd
  4456  0E6F                     u1675:
  4457  0E6F  0D4B               	rlf	___fladd@b+3,w
  4458  0E70  0CCB               	rrf	___fladd@b+3,f
  4459  0E71  0CCA               	rrf	___fladd@b+2,f
  4460  0E72  0CC9               	rrf	___fladd@b+1,f
  4461  0E73  0CC8               	rrf	___fladd@b,f
  4462  0E74  0BD0               	decfsz	??___fladd& (0+127),f
  4463  0E75  2E6F               	goto	u1675
  4464  0E76                     l1758:
  4465  0E76  3001               	movlw	1
  4466  0E77  00D0               	movwf	??___fladd
  4467  0E78  0850               	movf	??___fladd,w
  4468  0E79  07DA               	addwf	___fladd@bexp,f
  4469  0E7A                     l1760:
  4470  0E7A  1283               	bcf	3,5	;RP0=0, select bank0
  4471  0E7B  1303               	bcf	3,6	;RP1=0, select bank0
  4472  0E7C  0859               	movf	___fladd@aexp,w
  4473  0E7D  025A               	subwf	___fladd@bexp,w
  4474  0E7E  1C03               	skipc
  4475  0E7F  2E81               	goto	u1681
  4476  0E80  2E82               	goto	u1680
  4477  0E81                     u1681:
  4478  0E81  2E59               	goto	l595
  4479  0E82                     u1680:
  4480  0E82                     l593:
  4481  0E82  1B58               	btfsc	___fladd@signs,6
  4482  0E83  2E85               	goto	u1691
  4483  0E84  2E86               	goto	u1690
  4484  0E85                     u1691:
  4485  0E85  2ED1               	goto	l1786
  4486  0E86                     u1690:
  4487  0E86                     l1762:
  4488  0E86  085A               	movf	___fladd@bexp,w
  4489  0E87  1D03               	btfss	3,2
  4490  0E88  2E8A               	goto	u1701
  4491  0E89  2E8B               	goto	u1700
  4492  0E8A                     u1701:
  4493  0E8A  2E94               	goto	l1768
  4494  0E8B                     u1700:
  4495  0E8B                     l1764:
  4496  0E8B  3000               	movlw	0
  4497  0E8C  00CB               	movwf	?___fladd+3
  4498  0E8D  3000               	movlw	0
  4499  0E8E  00CA               	movwf	?___fladd+2
  4500  0E8F  3000               	movlw	0
  4501  0E90  00C9               	movwf	?___fladd+1
  4502  0E91  3000               	movlw	0
  4503  0E92  00C8               	movwf	?___fladd
  4504  0E93  2FFF               	goto	l602
  4505  0E94                     l1768:
  4506  0E94  084C               	movf	___fladd@a,w
  4507  0E95  07C8               	addwf	___fladd@b,f
  4508  0E96  084D               	movf	___fladd@a+1,w
  4509  0E97  1103               	clrz
  4510  0E98  1803               	skipnc
  4511  0E99  3E01               	addlw	1
  4512  0E9A  1903               	skipnz
  4513  0E9B  2E9D               	goto	u1711
  4514  0E9C  07C9               	addwf	___fladd@b+1,f
  4515  0E9D                     u1711:
  4516  0E9D  084E               	movf	___fladd@a+2,w
  4517  0E9E  1103               	clrz
  4518  0E9F  1803               	skipnc
  4519  0EA0  3E01               	addlw	1
  4520  0EA1  1903               	skipnz
  4521  0EA2  2EA4               	goto	u1712
  4522  0EA3  07CA               	addwf	___fladd@b+2,f
  4523  0EA4                     u1712:
  4524  0EA4  084F               	movf	___fladd@a+3,w
  4525  0EA5  1103               	clrz
  4526  0EA6  1803               	skipnc
  4527  0EA7  3E01               	addlw	1
  4528  0EA8  1903               	skipnz
  4529  0EA9  2EAB               	goto	u1713
  4530  0EAA  07CB               	addwf	___fladd@b+3,f
  4531  0EAB                     u1713:
  4532  0EAB                     l1770:
  4533  0EAB  1C4B               	btfss	___fladd@b+3,0
  4534  0EAC  2EAE               	goto	u1721
  4535  0EAD  2EAF               	goto	u1720
  4536  0EAE                     u1721:
  4537  0EAE  2F85               	goto	l1820
  4538  0EAF                     u1720:
  4539  0EAF                     l1772:
  4540  0EAF  1C5B               	btfss	___fladd@grs,0
  4541  0EB0  2EB2               	goto	u1731
  4542  0EB1  2EB3               	goto	u1730
  4543  0EB2                     u1731:
  4544  0EB2  2EBC               	goto	l1776
  4545  0EB3                     u1730:
  4546  0EB3                     l1774:
  4547  0EB3  085B               	movf	___fladd@grs,w
  4548  0EB4  00D0               	movwf	??___fladd
  4549  0EB5  1003               	clrc
  4550  0EB6  0C50               	rrf	??___fladd,w
  4551  0EB7  3801               	iorlw	1
  4552  0EB8  00D1               	movwf	??___fladd+1
  4553  0EB9  0851               	movf	??___fladd+1,w
  4554  0EBA  00DB               	movwf	___fladd@grs
  4555  0EBB  2EBE               	goto	l1778
  4556  0EBC                     l1776:
  4557  0EBC  1003               	clrc
  4558  0EBD  0CDB               	rrf	___fladd@grs,f
  4559  0EBE                     l1778:
  4560  0EBE  1C48               	btfss	___fladd@b,0
  4561  0EBF  2EC1               	goto	u1741
  4562  0EC0  2EC2               	goto	u1740
  4563  0EC1                     u1741:
  4564  0EC1  2EC3               	goto	l1782
  4565  0EC2                     u1740:
  4566  0EC2                     l1780:
  4567  0EC2  17DB               	bsf	___fladd@grs,7
  4568  0EC3                     l1782:
  4569  0EC3  3001               	movlw	1
  4570  0EC4  00D0               	movwf	??___fladd
  4571  0EC5                     u1755:
  4572  0EC5  0D4B               	rlf	___fladd@b+3,w
  4573  0EC6  0CCB               	rrf	___fladd@b+3,f
  4574  0EC7  0CCA               	rrf	___fladd@b+2,f
  4575  0EC8  0CC9               	rrf	___fladd@b+1,f
  4576  0EC9  0CC8               	rrf	___fladd@b,f
  4577  0ECA  0BD0               	decfsz	??___fladd& (0+127),f
  4578  0ECB  2EC5               	goto	u1755
  4579  0ECC                     l1784:
  4580  0ECC  3001               	movlw	1
  4581  0ECD  00D0               	movwf	??___fladd
  4582  0ECE  0850               	movf	??___fladd,w
  4583  0ECF  07DA               	addwf	___fladd@bexp,f
  4584  0ED0  2F85               	goto	l1820
  4585  0ED1                     l1786:
  4586  0ED1  084B               	movf	___fladd@b+3,w
  4587  0ED2  3A80               	xorlw	128
  4588  0ED3  00FF               	movwf	btemp+1
  4589  0ED4  084F               	movf	___fladd@a+3,w
  4590  0ED5  3A80               	xorlw	128
  4591  0ED6  027F               	subwf	btemp+1,w
  4592  0ED7  1D03               	skipz
  4593  0ED8  2EE3               	goto	u1763
  4594  0ED9  084E               	movf	___fladd@a+2,w
  4595  0EDA  024A               	subwf	___fladd@b+2,w
  4596  0EDB  1D03               	skipz
  4597  0EDC  2EE3               	goto	u1763
  4598  0EDD  084D               	movf	___fladd@a+1,w
  4599  0EDE  0249               	subwf	___fladd@b+1,w
  4600  0EDF  1D03               	skipz
  4601  0EE0  2EE3               	goto	u1763
  4602  0EE1  084C               	movf	___fladd@a,w
  4603  0EE2  0248               	subwf	___fladd@b,w
  4604  0EE3                     u1763:
  4605  0EE3  1803               	skipnc
  4606  0EE4  2EE6               	goto	u1761
  4607  0EE5  2EE7               	goto	u1760
  4608  0EE6                     u1761:
  4609  0EE6  2F3F               	goto	l1796
  4610  0EE7                     u1760:
  4611  0EE7                     l1788:
  4612  0EE7  30FF               	movlw	255
  4613  0EE8  00D0               	movwf	??___fladd
  4614  0EE9  30FF               	movlw	255
  4615  0EEA  00D1               	movwf	??___fladd+1
  4616  0EEB  30FF               	movlw	255
  4617  0EEC  00D2               	movwf	??___fladd+2
  4618  0EED  30FF               	movlw	255
  4619  0EEE  00D3               	movwf	??___fladd+3
  4620  0EEF  084C               	movf	___fladd@a,w
  4621  0EF0  00D4               	movwf	??___fladd+4
  4622  0EF1  084D               	movf	___fladd@a+1,w
  4623  0EF2  00D5               	movwf	??___fladd+5
  4624  0EF3  084E               	movf	___fladd@a+2,w
  4625  0EF4  00D6               	movwf	??___fladd+6
  4626  0EF5  084F               	movf	___fladd@a+3,w
  4627  0EF6  00D7               	movwf	??___fladd+7
  4628  0EF7  0848               	movf	___fladd@b,w
  4629  0EF8  02D4               	subwf	??___fladd+4,f
  4630  0EF9  0849               	movf	___fladd@b+1,w
  4631  0EFA  1C03               	skipc
  4632  0EFB  0F49               	incfsz	___fladd@b+1,w
  4633  0EFC  2EFE               	goto	u1771
  4634  0EFD  2EFF               	goto	u1772
  4635  0EFE                     u1771:
  4636  0EFE  02D5               	subwf	??___fladd+5,f
  4637  0EFF                     u1772:
  4638  0EFF  084A               	movf	___fladd@b+2,w
  4639  0F00  1C03               	skipc
  4640  0F01  0F4A               	incfsz	___fladd@b+2,w
  4641  0F02  2F04               	goto	u1773
  4642  0F03  2F05               	goto	u1774
  4643  0F04                     u1773:
  4644  0F04  02D6               	subwf	??___fladd+6,f
  4645  0F05                     u1774:
  4646  0F05  084B               	movf	___fladd@b+3,w
  4647  0F06  1C03               	skipc
  4648  0F07  0F4B               	incfsz	___fladd@b+3,w
  4649  0F08  2F0A               	goto	u1775
  4650  0F09  2F0B               	goto	u1776
  4651  0F0A                     u1775:
  4652  0F0A  02D7               	subwf	??___fladd+7,f
  4653  0F0B                     u1776:
  4654  0F0B  0854               	movf	??___fladd+4,w
  4655  0F0C  07D0               	addwf	??___fladd,f
  4656  0F0D  0855               	movf	??___fladd+5,w
  4657  0F0E  1803               	skipnc
  4658  0F0F  0F55               	incfsz	??___fladd+5,w
  4659  0F10  2F12               	goto	u1780
  4660  0F11  2F13               	goto	u1781
  4661  0F12                     u1780:
  4662  0F12  07D1               	addwf	??___fladd+1,f
  4663  0F13                     u1781:
  4664  0F13  0856               	movf	??___fladd+6,w
  4665  0F14  1803               	skipnc
  4666  0F15  0F56               	incfsz	??___fladd+6,w
  4667  0F16  2F18               	goto	u1782
  4668  0F17  2F19               	goto	u1783
  4669  0F18                     u1782:
  4670  0F18  07D2               	addwf	??___fladd+2,f
  4671  0F19                     u1783:
  4672  0F19  0857               	movf	??___fladd+7,w
  4673  0F1A  1803               	skipnc
  4674  0F1B  0A57               	incf	??___fladd+7,w
  4675  0F1C  07D3               	addwf	??___fladd+3,f
  4676  0F1D  0853               	movf	??___fladd+3,w
  4677  0F1E  00CB               	movwf	___fladd@b+3
  4678  0F1F  0852               	movf	??___fladd+2,w
  4679  0F20  00CA               	movwf	___fladd@b+2
  4680  0F21  0851               	movf	??___fladd+1,w
  4681  0F22  00C9               	movwf	___fladd@b+1
  4682  0F23  0850               	movf	??___fladd,w
  4683  0F24  00C8               	movwf	___fladd@b
  4684  0F25                     l1790:
  4685  0F25  3080               	movlw	128
  4686  0F26  00D0               	movwf	??___fladd
  4687  0F27  0850               	movf	??___fladd,w
  4688  0F28  06D8               	xorwf	___fladd@signs,f
  4689  0F29  09DB               	comf	___fladd@grs,f
  4690  0F2A  0ADB               	incf	___fladd@grs,f
  4691  0F2B                     l1792:
  4692  0F2B  085B               	movf	___fladd@grs,w
  4693  0F2C  1D03               	btfss	3,2
  4694  0F2D  2F2F               	goto	u1791
  4695  0F2E  2F30               	goto	u1790
  4696  0F2F                     u1791:
  4697  0F2F  2F4D               	goto	l610
  4698  0F30                     u1790:
  4699  0F30                     l1794:
  4700  0F30  3001               	movlw	1
  4701  0F31  07C8               	addwf	___fladd@b,f
  4702  0F32  3000               	movlw	0
  4703  0F33  1803               	skipnc
  4704  0F34  3001               	movlw	1
  4705  0F35  07C9               	addwf	___fladd@b+1,f
  4706  0F36  3000               	movlw	0
  4707  0F37  1803               	skipnc
  4708  0F38  3001               	movlw	1
  4709  0F39  07CA               	addwf	___fladd@b+2,f
  4710  0F3A  3000               	movlw	0
  4711  0F3B  1803               	skipnc
  4712  0F3C  3001               	movlw	1
  4713  0F3D  07CB               	addwf	___fladd@b+3,f
  4714  0F3E  2F4D               	goto	l610
  4715  0F3F                     l1796:
  4716  0F3F  084C               	movf	___fladd@a,w
  4717  0F40  02C8               	subwf	___fladd@b,f
  4718  0F41  084D               	movf	___fladd@a+1,w
  4719  0F42  1C03               	skipc
  4720  0F43  0F4D               	incfsz	___fladd@a+1,w
  4721  0F44  02C9               	subwf	___fladd@b+1,f
  4722  0F45  084E               	movf	___fladd@a+2,w
  4723  0F46  1C03               	skipc
  4724  0F47  0F4E               	incfsz	___fladd@a+2,w
  4725  0F48  02CA               	subwf	___fladd@b+2,f
  4726  0F49  084F               	movf	___fladd@a+3,w
  4727  0F4A  1C03               	skipc
  4728  0F4B  0F4F               	incfsz	___fladd@a+3,w
  4729  0F4C  02CB               	subwf	___fladd@b+3,f
  4730  0F4D                     l610:
  4731  0F4D  084B               	movf	___fladd@b+3,w
  4732  0F4E  044A               	iorwf	___fladd@b+2,w
  4733  0F4F  0449               	iorwf	___fladd@b+1,w
  4734  0F50  0448               	iorwf	___fladd@b,w
  4735  0F51  1D03               	skipz
  4736  0F52  2F54               	goto	u1801
  4737  0F53  2F55               	goto	u1800
  4738  0F54                     u1801:
  4739  0F54  2F81               	goto	l1818
  4740  0F55                     u1800:
  4741  0F55                     l1798:
  4742  0F55  085B               	movf	___fladd@grs,w
  4743  0F56  1D03               	btfss	3,2
  4744  0F57  2F59               	goto	u1811
  4745  0F58  2F5A               	goto	u1810
  4746  0F59                     u1811:
  4747  0F59  2F81               	goto	l1818
  4748  0F5A                     u1810:
  4749  0F5A                     l1800:
  4750  0F5A  3000               	movlw	0
  4751  0F5B  00CB               	movwf	?___fladd+3
  4752  0F5C  3000               	movlw	0
  4753  0F5D  00CA               	movwf	?___fladd+2
  4754  0F5E  3000               	movlw	0
  4755  0F5F  00C9               	movwf	?___fladd+1
  4756  0F60  3000               	movlw	0
  4757  0F61  00C8               	movwf	?___fladd
  4758  0F62  2FFF               	goto	l602
  4759  0F63                     l1804:
  4760  0F63  3001               	movlw	1
  4761  0F64  00D0               	movwf	??___fladd
  4762  0F65                     u1825:
  4763  0F65  1003               	clrc
  4764  0F66  0DC8               	rlf	___fladd@b,f
  4765  0F67  0DC9               	rlf	___fladd@b+1,f
  4766  0F68  0DCA               	rlf	___fladd@b+2,f
  4767  0F69  0DCB               	rlf	___fladd@b+3,f
  4768  0F6A  0BD0               	decfsz	??___fladd,f
  4769  0F6B  2F65               	goto	u1825
  4770  0F6C                     l1806:
  4771  0F6C  1FDB               	btfss	___fladd@grs,7
  4772  0F6D  2F6F               	goto	u1831
  4773  0F6E  2F70               	goto	u1830
  4774  0F6F                     u1831:
  4775  0F6F  2F71               	goto	l614
  4776  0F70                     u1830:
  4777  0F70                     l1808:
  4778  0F70  1448               	bsf	___fladd@b,0
  4779  0F71                     l614:
  4780  0F71  1C5B               	btfss	___fladd@grs,0
  4781  0F72  2F74               	goto	u1841
  4782  0F73  2F75               	goto	u1840
  4783  0F74                     u1841:
  4784  0F74  2F78               	goto	l1812
  4785  0F75                     u1840:
  4786  0F75                     l1810:
  4787  0F75  1403               	setc
  4788  0F76  0DDB               	rlf	___fladd@grs,f
  4789  0F77  2F7A               	goto	l1814
  4790  0F78                     l1812:
  4791  0F78  1003               	clrc
  4792  0F79  0DDB               	rlf	___fladd@grs,f
  4793  0F7A                     l1814:
  4794  0F7A  085A               	movf	___fladd@bexp,w
  4795  0F7B  1903               	btfsc	3,2
  4796  0F7C  2F7E               	goto	u1851
  4797  0F7D  2F7F               	goto	u1850
  4798  0F7E                     u1851:
  4799  0F7E  2F81               	goto	l1818
  4800  0F7F                     u1850:
  4801  0F7F                     l1816:
  4802  0F7F  3001               	movlw	1
  4803  0F80  02DA               	subwf	___fladd@bexp,f
  4804  0F81                     l1818:
  4805  0F81  1FCA               	btfss	___fladd@b+2,7
  4806  0F82  2F84               	goto	u1861
  4807  0F83  2F85               	goto	u1860
  4808  0F84                     u1861:
  4809  0F84  2F63               	goto	l1804
  4810  0F85                     u1860:
  4811  0F85                     l1820:
  4812  0F85  01D9               	clrf	___fladd@aexp
  4813  0F86                     l1822:
  4814  0F86  1FDB               	btfss	___fladd@grs,7
  4815  0F87  2F89               	goto	u1871
  4816  0F88  2F8A               	goto	u1870
  4817  0F89                     u1871:
  4818  0F89  2F98               	goto	l1830
  4819  0F8A                     u1870:
  4820  0F8A                     l1824:
  4821  0F8A  085B               	movf	___fladd@grs,w
  4822  0F8B  397F               	andlw	127
  4823  0F8C  1903               	btfsc	3,2
  4824  0F8D  2F8F               	goto	u1881
  4825  0F8E  2F90               	goto	u1880
  4826  0F8F                     u1881:
  4827  0F8F  2F93               	goto	l620
  4828  0F90                     u1880:
  4829  0F90                     l1826:
  4830  0F90  01D9               	clrf	___fladd@aexp
  4831  0F91  0AD9               	incf	___fladd@aexp,f
  4832  0F92  2F98               	goto	l1830
  4833  0F93                     l620:
  4834  0F93  1C48               	btfss	___fladd@b,0
  4835  0F94  2F96               	goto	u1891
  4836  0F95  2F97               	goto	u1890
  4837  0F96                     u1891:
  4838  0F96  2F98               	goto	l1830
  4839  0F97                     u1890:
  4840  0F97  2F90               	goto	l1826
  4841  0F98                     l1830:
  4842  0F98  0859               	movf	___fladd@aexp,w
  4843  0F99  1903               	btfsc	3,2
  4844  0F9A  2F9C               	goto	u1901
  4845  0F9B  2F9D               	goto	u1900
  4846  0F9C                     u1901:
  4847  0F9C  2FD1               	goto	l623
  4848  0F9D                     u1900:
  4849  0F9D                     l1832:
  4850  0F9D  3001               	movlw	1
  4851  0F9E  07C8               	addwf	___fladd@b,f
  4852  0F9F  3000               	movlw	0
  4853  0FA0  1803               	skipnc
  4854  0FA1  3001               	movlw	1
  4855  0FA2  07C9               	addwf	___fladd@b+1,f
  4856  0FA3  3000               	movlw	0
  4857  0FA4  1803               	skipnc
  4858  0FA5  3001               	movlw	1
  4859  0FA6  07CA               	addwf	___fladd@b+2,f
  4860  0FA7  3000               	movlw	0
  4861  0FA8  1803               	skipnc
  4862  0FA9  3001               	movlw	1
  4863  0FAA  07CB               	addwf	___fladd@b+3,f
  4864  0FAB                     l1834:
  4865  0FAB  1C4B               	btfss	___fladd@b+3,0
  4866  0FAC  2FAE               	goto	u1911
  4867  0FAD  2FAF               	goto	u1910
  4868  0FAE                     u1911:
  4869  0FAE  2FD1               	goto	l623
  4870  0FAF                     u1910:
  4871  0FAF                     l1836:
  4872  0FAF  0848               	movf	___fladd@b,w
  4873  0FB0  00D0               	movwf	??___fladd
  4874  0FB1  0849               	movf	___fladd@b+1,w
  4875  0FB2  00D1               	movwf	??___fladd+1
  4876  0FB3  084A               	movf	___fladd@b+2,w
  4877  0FB4  00D2               	movwf	??___fladd+2
  4878  0FB5  084B               	movf	___fladd@b+3,w
  4879  0FB6  00D3               	movwf	??___fladd+3
  4880  0FB7  3001               	movlw	1
  4881  0FB8  00D4               	movwf	??___fladd+4
  4882  0FB9                     u1925:
  4883  0FB9  0D53               	rlf	??___fladd+3,w
  4884  0FBA  0CD3               	rrf	??___fladd+3,f
  4885  0FBB  0CD2               	rrf	??___fladd+2,f
  4886  0FBC  0CD1               	rrf	??___fladd+1,f
  4887  0FBD  0CD0               	rrf	??___fladd,f
  4888  0FBE                     u1920:
  4889  0FBE  0BD4               	decfsz	??___fladd+4,f
  4890  0FBF  2FB9               	goto	u1925
  4891  0FC0  0853               	movf	??___fladd+3,w
  4892  0FC1  00CB               	movwf	___fladd@b+3
  4893  0FC2  0852               	movf	??___fladd+2,w
  4894  0FC3  00CA               	movwf	___fladd@b+2
  4895  0FC4  0851               	movf	??___fladd+1,w
  4896  0FC5  00C9               	movwf	___fladd@b+1
  4897  0FC6  0850               	movf	??___fladd,w
  4898  0FC7  00C8               	movwf	___fladd@b
  4899  0FC8  0A5A               	incf	___fladd@bexp,w
  4900  0FC9  1903               	btfsc	3,2
  4901  0FCA  2FCC               	goto	u1931
  4902  0FCB  2FCD               	goto	u1930
  4903  0FCC                     u1931:
  4904  0FCC  2FD1               	goto	l623
  4905  0FCD                     u1930:
  4906  0FCD                     l1838:
  4907  0FCD  3001               	movlw	1
  4908  0FCE  00D0               	movwf	??___fladd
  4909  0FCF  0850               	movf	??___fladd,w
  4910  0FD0  07DA               	addwf	___fladd@bexp,f
  4911  0FD1                     l623:
  4912  0FD1  0A5A               	incf	___fladd@bexp,w
  4913  0FD2  1903               	btfsc	3,2
  4914  0FD3  2FD5               	goto	u1941
  4915  0FD4  2FD6               	goto	u1940
  4916  0FD5                     u1941:
  4917  0FD5  2FDB               	goto	l1842
  4918  0FD6                     u1940:
  4919  0FD6                     l1840:
  4920  0FD6  085A               	movf	___fladd@bexp,w
  4921  0FD7  1D03               	btfss	3,2
  4922  0FD8  2FDA               	goto	u1951
  4923  0FD9  2FDB               	goto	u1950
  4924  0FDA                     u1951:
  4925  0FDA  2FE9               	goto	l1848
  4926  0FDB                     u1950:
  4927  0FDB                     l1842:
  4928  0FDB  3000               	movlw	0
  4929  0FDC  00CB               	movwf	___fladd@b+3
  4930  0FDD  3000               	movlw	0
  4931  0FDE  00CA               	movwf	___fladd@b+2
  4932  0FDF  3000               	movlw	0
  4933  0FE0  00C9               	movwf	___fladd@b+1
  4934  0FE1  3000               	movlw	0
  4935  0FE2  00C8               	movwf	___fladd@b
  4936  0FE3                     l1844:
  4937  0FE3  085A               	movf	___fladd@bexp,w
  4938  0FE4  1D03               	btfss	3,2
  4939  0FE5  2FE7               	goto	u1961
  4940  0FE6  2FE8               	goto	u1960
  4941  0FE7                     u1961:
  4942  0FE7  2FE9               	goto	l1848
  4943  0FE8                     u1960:
  4944  0FE8                     l1846:
  4945  0FE8  01D8               	clrf	___fladd@signs
  4946  0FE9                     l1848:
  4947  0FE9  1C5A               	btfss	___fladd@bexp,0
  4948  0FEA  2FEC               	goto	u1971
  4949  0FEB  2FED               	goto	u1970
  4950  0FEC                     u1971:
  4951  0FEC  2FEF               	goto	l1852
  4952  0FED                     u1970:
  4953  0FED                     l1850:
  4954  0FED  17CA               	bsf	___fladd@b+2,7
  4955  0FEE  2FF3               	goto	l631
  4956  0FEF                     l1852:
  4957  0FEF  307F               	movlw	127
  4958  0FF0  00D0               	movwf	??___fladd
  4959  0FF1  0850               	movf	??___fladd,w
  4960  0FF2  05CA               	andwf	___fladd@b+2,f
  4961  0FF3                     l631:
  4962  0FF3  085A               	movf	___fladd@bexp,w
  4963  0FF4  00D0               	movwf	??___fladd
  4964  0FF5  1003               	clrc
  4965  0FF6  0C50               	rrf	??___fladd,w
  4966  0FF7  00D1               	movwf	??___fladd+1
  4967  0FF8  0851               	movf	??___fladd+1,w
  4968  0FF9  00CB               	movwf	___fladd@b+3
  4969  0FFA                     l1854:
  4970  0FFA  1FD8               	btfss	___fladd@signs,7
  4971  0FFB  2FFD               	goto	u1981
  4972  0FFC  2FFE               	goto	u1980
  4973  0FFD                     u1981:
  4974  0FFD  2FFF               	goto	l632
  4975  0FFE                     u1980:
  4976  0FFE                     l1856:
  4977  0FFE  17CB               	bsf	___fladd@b+3,7
  4978  0FFF                     l632:
  4979  0FFF                     l602:
  4980  0FFF  0008               	return
  4981  1000                     __end_of___fladd:
  4982                           
  4983                           	psect	text10
  4984  0729                     __ptext10:	
  4985 ;; *************** function _isr *****************
  4986 ;; Defined at:
  4987 ;;		line 60 in file "main.c"
  4988 ;; Parameters:    Size  Location     Type
  4989 ;;		None
  4990 ;; Auto vars:     Size  Location     Type
  4991 ;;		None
  4992 ;; Return value:  Size  Location     Type
  4993 ;;                  1    wreg      void 
  4994 ;; Registers used:
  4995 ;;		wreg, status,2, btemp+1
  4996 ;; Tracked objects:
  4997 ;;		On entry : 0/0
  4998 ;;		On exit  : 0/0
  4999 ;;		Unchanged: 0/0
  5000 ;; Data sizes:     COMMON   BANK0   BANK1   BANK3   BANK2
  5001 ;;      Params:         0       0       0       0       0
  5002 ;;      Locals:         0       0       0       0       0
  5003 ;;      Temps:          5       0       0       0       0
  5004 ;;      Totals:         5       0       0       0       0
  5005 ;;Total ram usage:        5 bytes
  5006 ;; Hardware stack levels used:    1
  5007 ;; This function calls:
  5008 ;;		Nothing
  5009 ;; This function is called by:
  5010 ;;		Interrupt level 1
  5011 ;; This function uses a non-reentrant model
  5012 ;;
  5013                           
  5014                           
  5015                           ;psect for function _isr
  5016  0729                     _isr:
  5017  0729                     i1l2222:
  5018                           
  5019                           ;main.c: 61:     (INTCONbits.GIE = 0);
  5020  0729  138B               	bcf	11,7	;volatile
  5021                           
  5022                           ;main.c: 62:     if (T0IF == 1){
  5023  072A  1D0B               	btfss	11,2	;volatile
  5024  072B  2F2D               	goto	u257_21
  5025  072C  2F2E               	goto	u257_20
  5026  072D                     u257_21:
  5027  072D  2F6C               	goto	i1l137
  5028  072E                     u257_20:
  5029  072E                     i1l2224:
  5030                           
  5031                           ;main.c: 63:         TMR0 = 206;
  5032  072E  30CE               	movlw	206
  5033  072F  0081               	movwf	1	;volatile
  5034                           
  5035                           ;main.c: 64:         PWM3++;
  5036  0730  3001               	movlw	1
  5037  0731  07EB               	addwf	_PWM3,f
  5038  0732  1803               	skipnc
  5039  0733  0AEC               	incf	_PWM3+1,f
  5040  0734  3000               	movlw	0
  5041  0735  07EC               	addwf	_PWM3+1,f
  5042  0736                     i1l2226:
  5043                           
  5044                           ;main.c: 66:         if (PWM3>= 25){
  5045  0736  086C               	movf	_PWM3+1,w
  5046  0737  3A80               	xorlw	128
  5047  0738  00FF               	movwf	btemp+1
  5048  0739  3080               	movlw	128
  5049  073A  027F               	subwf	btemp+1,w
  5050  073B  1D03               	skipz
  5051  073C  2F3F               	goto	u258_25
  5052  073D  3019               	movlw	25
  5053  073E  026B               	subwf	_PWM3,w
  5054  073F                     u258_25:
  5055  073F  1C03               	skipc
  5056  0740  2F42               	goto	u258_21
  5057  0741  2F43               	goto	u258_20
  5058  0742                     u258_21:
  5059  0742  2F47               	goto	i1l2230
  5060  0743                     u258_20:
  5061  0743                     i1l2228:
  5062                           
  5063                           ;main.c: 67:           PWM3 = 0;}
  5064  0743  1283               	bcf	3,5	;RP0=0, select bank0
  5065  0744  1303               	bcf	3,6	;RP1=0, select bank0
  5066  0745  01EB               	clrf	_PWM3
  5067  0746  01EC               	clrf	_PWM3+1
  5068  0747                     i1l2230:
  5069                           
  5070                           ;main.c: 68:           if (PWM3 >= POT0){
  5071  0747  0878               	movf	_POT0+1,w
  5072  0748  1283               	bcf	3,5	;RP0=0, select bank0
  5073  0749  1303               	bcf	3,6	;RP1=0, select bank0
  5074  074A  026C               	subwf	_PWM3+1,w
  5075  074B  1D03               	skipz
  5076  074C  2F4F               	goto	u259_25
  5077  074D  0877               	movf	_POT0,w
  5078  074E  026B               	subwf	_PWM3,w
  5079  074F                     u259_25:
  5080  074F  1C03               	skipc
  5081  0750  2F52               	goto	u259_21
  5082  0751  2F53               	goto	u259_20
  5083  0752                     u259_21:
  5084  0752  2F55               	goto	i1l139
  5085  0753                     u259_20:
  5086  0753                     i1l2232:
  5087                           
  5088                           ;main.c: 69:            PORTCbits.RC3 = 0;
  5089  0753  1187               	bcf	7,3	;volatile
  5090                           
  5091                           ;main.c: 70:            }
  5092  0754  2F56               	goto	i1l2234
  5093  0755                     i1l139:	
  5094                           ;main.c: 71:           else {
  5095                           
  5096                           
  5097                           ;main.c: 72:            PORTCbits.RC3 = 1;
  5098  0755  1587               	bsf	7,3	;volatile
  5099  0756                     i1l2234:
  5100                           
  5101                           ;main.c: 74:         if (PWM3 >= POT3){
  5102  0756  1683               	bsf	3,5	;RP0=1, select bank1
  5103  0757  1303               	bcf	3,6	;RP1=0, select bank1
  5104  0758  0827               	movf	(_POT3+1)^(0+128),w
  5105  0759  1283               	bcf	3,5	;RP0=0, select bank0
  5106  075A  1303               	bcf	3,6	;RP1=0, select bank0
  5107  075B  026C               	subwf	_PWM3+1,w
  5108  075C  1D03               	skipz
  5109  075D  2F64               	goto	u260_25
  5110  075E  1683               	bsf	3,5	;RP0=1, select bank1
  5111  075F  1303               	bcf	3,6	;RP1=0, select bank1
  5112  0760  0826               	movf	_POT3^(0+128),w
  5113  0761  1283               	bcf	3,5	;RP0=0, select bank0
  5114  0762  1303               	bcf	3,6	;RP1=0, select bank0
  5115  0763  026B               	subwf	_PWM3,w
  5116  0764                     u260_25:
  5117  0764  1C03               	skipc
  5118  0765  2F67               	goto	u260_21
  5119  0766  2F68               	goto	u260_20
  5120  0767                     u260_21:
  5121  0767  2F6A               	goto	i1l141
  5122  0768                     u260_20:
  5123  0768                     i1l2236:
  5124                           
  5125                           ;main.c: 75:            PORTCbits.RC0 = 0;
  5126  0768  1007               	bcf	7,0	;volatile
  5127                           
  5128                           ;main.c: 76:            }
  5129  0769  2F6B               	goto	i1l142
  5130  076A                     i1l141:	
  5131                           ;main.c: 77:           else {
  5132                           
  5133                           
  5134                           ;main.c: 78:            PORTCbits.RC0 = 1;
  5135  076A  1407               	bsf	7,0	;volatile
  5136  076B                     i1l142:	
  5137                           ;main.c: 79:            }
  5138                           
  5139                           
  5140                           ;main.c: 80:           INTCONbits.T0IF = 0;
  5141  076B  110B               	bcf	11,2	;volatile
  5142  076C                     i1l137:	
  5143                           ;main.c: 81:     }
  5144                           
  5145                           
  5146                           ;main.c: 83:     if (ADIF == 1){
  5147  076C  1F0C               	btfss	12,6	;volatile
  5148  076D  2F6F               	goto	u261_21
  5149  076E  2F70               	goto	u261_20
  5150  076F                     u261_21:
  5151  076F  2F7C               	goto	i1l2242
  5152  0770                     u261_20:
  5153  0770                     i1l2238:
  5154                           
  5155                           ;main.c: 84:         VALORAN = ADRESH;
  5156  0770  081E               	movf	30,w	;volatile
  5157  0771  00F0               	movwf	??_isr
  5158  0772  01F1               	clrf	??_isr+1
  5159  0773  0870               	movf	??_isr,w
  5160  0774  1683               	bsf	3,5	;RP0=1, select bank1
  5161  0775  1303               	bcf	3,6	;RP1=0, select bank1
  5162  0776  00A4               	movwf	_VALORAN^(0+128)
  5163  0777  0871               	movf	??_isr+1,w
  5164  0778  00A5               	movwf	(_VALORAN+1)^(0+128)
  5165  0779                     i1l2240:
  5166                           
  5167                           ;main.c: 85:         PIR1bits.ADIF = 0;
  5168  0779  1283               	bcf	3,5	;RP0=0, select bank0
  5169  077A  1303               	bcf	3,6	;RP1=0, select bank0
  5170  077B  130C               	bcf	12,6	;volatile
  5171  077C                     i1l2242:
  5172                           
  5173                           ;main.c: 87:     if (PIR1bits.RCIF){
  5174  077C  1E8C               	btfss	12,5	;volatile
  5175  077D  2F7F               	goto	u262_21
  5176  077E  2F80               	goto	u262_20
  5177  077F                     u262_21:
  5178  077F  2F9D               	goto	i1l2252
  5179  0780                     u262_20:
  5180  0780                     i1l2244:
  5181                           
  5182                           ;main.c: 88:         if (RCREG >= 97 && RCREG <= 99 ){
  5183  0780  3061               	movlw	97
  5184  0781  021A               	subwf	26,w	;volatile
  5185  0782  1C03               	skipc
  5186  0783  2F85               	goto	u263_21
  5187  0784  2F86               	goto	u263_20
  5188  0785                     u263_21:
  5189  0785  2F96               	goto	i1l2250
  5190  0786                     u263_20:
  5191  0786                     i1l2246:
  5192  0786  3064               	movlw	100
  5193  0787  021A               	subwf	26,w	;volatile
  5194  0788  1803               	skipnc
  5195  0789  2F8B               	goto	u264_21
  5196  078A  2F8C               	goto	u264_20
  5197  078B                     u264_21:
  5198  078B  2F96               	goto	i1l2250
  5199  078C                     u264_20:
  5200  078C                     i1l2248:
  5201                           
  5202                           ;main.c: 89:                 SEL = RCREG; }
  5203  078C  081A               	movf	26,w	;volatile
  5204  078D  00F0               	movwf	??_isr
  5205  078E  01F1               	clrf	??_isr+1
  5206  078F  0870               	movf	??_isr,w
  5207  0790  1683               	bsf	3,5	;RP0=1, select bank1
  5208  0791  1303               	bcf	3,6	;RP1=0, select bank1
  5209  0792  00A0               	movwf	_SEL^(0+128)
  5210  0793  0871               	movf	??_isr+1,w
  5211  0794  00A1               	movwf	(_SEL+1)^(0+128)
  5212  0795  2F9D               	goto	i1l2252
  5213  0796                     i1l2250:
  5214                           
  5215                           ;main.c: 91:             DATO = RCREG;
  5216  0796  081A               	movf	26,w	;volatile
  5217  0797  00F0               	movwf	??_isr
  5218  0798  01F1               	clrf	??_isr+1
  5219  0799  0870               	movf	??_isr,w
  5220  079A  00ED               	movwf	_DATO
  5221  079B  0871               	movf	??_isr+1,w
  5222  079C  00EE               	movwf	_DATO+1
  5223  079D                     i1l2252:
  5224                           
  5225                           ;main.c: 95:     (INTCONbits.GIE = 1);
  5226  079D  178B               	bsf	11,7	;volatile
  5227  079E                     i1l147:
  5228  079E  0874               	movf	??_isr+4,w
  5229  079F  1283               	bcf	3,5	;RP0=0, select bank0
  5230  07A0  00FF               	movwf	btemp+1
  5231  07A1  0873               	movf	??_isr+3,w
  5232  07A2  008A               	movwf	10
  5233  07A3  0E72               	swapf	??_isr+2,w
  5234  07A4  0083               	movwf	3
  5235  07A5  0EFE               	swapf	btemp,f
  5236  07A6  0E7E               	swapf	btemp,w
  5237  07A7  0009               	retfie
  5238  07A8                     __end_of_isr:
  5239  007E                     btemp	set	126	;btemp
  5240  007E                     wtemp0	set	126
  5241                           
  5242                           	psect	intentry
  5243  0004                     __pintentry:	
  5244                           ;incstack = 0
  5245                           ; Regs used in _isr: [wreg+status,2+btemp+1]
  5246                           
  5247  0004                     interrupt_function:
  5248  007E                     saved_w	set	btemp
  5249  0004  00FE               	movwf	btemp
  5250  0005  0E03               	swapf	3,w
  5251  0006  00F2               	movwf	??_isr+2
  5252  0007  080A               	movf	10,w
  5253  0008  00F3               	movwf	??_isr+3
  5254  0009  1283               	bcf	3,5	;RP0=0, select bank0
  5255  000A  1303               	bcf	3,6	;RP1=0, select bank0
  5256  000B  087F               	movf	btemp+1,w
  5257  000C  00F4               	movwf	??_isr+4
  5258  000D  120A  118A  2F29   	ljmp	_isr
  5259                           
  5260                           	psect	config
  5261                           
  5262                           ;Config register CONFIG1 @ 0x2007
  5263                           ;	Oscillator Selection bits
  5264                           ;	FOSC = INTRC_CLKOUT, INTOSC oscillator: CLKOUT function on RA6/OSC2/CLKOUT pin, I/O fu
      +                          nction on RA7/OSC1/CLKIN
  5265                           ;	Watchdog Timer Enable bit
  5266                           ;	WDTE = OFF, WDT disabled and can be enabled by SWDTEN bit of the WDTCON register
  5267                           ;	Power-up Timer Enable bit
  5268                           ;	PWRTE = OFF, PWRT disabled
  5269                           ;	RE3/MCLR pin function select bit
  5270                           ;	MCLRE = OFF, RE3/MCLR pin function is digital input, MCLR internally tied to VDD
  5271                           ;	Code Protection bit
  5272                           ;	CP = OFF, Program memory code protection is disabled
  5273                           ;	Data Code Protection bit
  5274                           ;	CPD = OFF, Data memory code protection is disabled
  5275                           ;	Brown Out Reset Selection bits
  5276                           ;	BOREN = OFF, BOR disabled
  5277                           ;	Internal External Switchover bit
  5278                           ;	IESO = OFF, Internal/External Switchover mode is disabled
  5279                           ;	Fail-Safe Clock Monitor Enabled bit
  5280                           ;	FCMEN = OFF, Fail-Safe Clock Monitor is disabled
  5281                           ;	Low Voltage Programming Enable bit
  5282                           ;	LVP = OFF, RB3 pin has digital I/O, HV on MCLR must be used for programming
  5283                           ;	In-Circuit Debugger Mode bit
  5284                           ;	DEBUG = 0x1, unprogrammed default
  5285  2007                     	org	8199
  5286  2007  20D5               	dw	8405
  5287                           
  5288                           ;Config register CONFIG2 @ 0x2008
  5289                           ;	Brown-out Reset Selection bit
  5290                           ;	BOR4V = BOR40V, Brown-out Reset set to 4.0V
  5291                           ;	Flash Program Memory Self Write Enable bits
  5292                           ;	WRT = OFF, Write protection off
  5293  2008                     	org	8200
  5294  2008  3FFF               	dw	16383

Data Sizes:
    Strings     0
    Constant    0
    Data        4
    BSS         18
    Persistent  0
    Stack       0

Auto Spaces:
    Space          Size  Autos    Used
    COMMON           14      5       9
    BANK0            80     73      79
    BANK1            80      5      17
    BANK3            96      0       0
    BANK2            96      0       0

Pointer List with Targets:

    None.

Critical Paths under _main in COMMON

    None.

Critical Paths under _isr in COMMON

    None.

Critical Paths under _main in BANK0

    _main->_ANALOGICOS
    _ANALOGICOS->___fltol
    ___fltol->___fladd
    ___flmul->___xxtofl
    ___fladd->___flmul

Critical Paths under _isr in BANK0

    None.

Critical Paths under _main in BANK1

    _main->_ANALOGICOS

Critical Paths under _isr in BANK1

    None.

Critical Paths under _main in BANK3

    None.

Critical Paths under _isr in BANK3

    None.

Critical Paths under _main in BANK2

    None.

Critical Paths under _isr in BANK2

    None.

Call Graph Tables:

 ---------------------------------------------------------------------------------
 (Depth) Function   	        Calls       Base Space   Used Autos Params    Refs
 ---------------------------------------------------------------------------------
 (0) _main                                                 2     2      0   20878
                                              3 BANK1      2     2      0
                         _ANALOGICOS
                           _EEPROM_R
                           _EEPROM_W
                            ___fladd
                            ___flmul
                            ___fltol
                           ___xxtofl
                              _setup
 ---------------------------------------------------------------------------------
 (1) _setup                                                1     1      0       0
                                              0 BANK0      1     1      0
 ---------------------------------------------------------------------------------
 (1) _EEPROM_W                                             4     0      4    1682
                                              0 BANK0      4     0      4
 ---------------------------------------------------------------------------------
 (1) _EEPROM_R                                             6     4      2     875
                                              0 BANK0      6     4      2
 ---------------------------------------------------------------------------------
 (1) _ANALOGICOS                                           5     3      2    9345
                                             71 BANK0      2     0      2
                                              0 BANK1      3     3      0
                            ___fladd
                            ___flmul
                            ___fltol
                           ___xxtofl
 ---------------------------------------------------------------------------------
 (1) ___xxtofl                                            14    10      4    1016
                                              0 BANK0     14    10      4
 ---------------------------------------------------------------------------------
 (1) ___fltol                                             11     7      4     685
                                             60 BANK0     11     7      4
                            ___fladd (ARG)
                            ___flmul (ARG)
                           ___xxtofl (ARG)
 ---------------------------------------------------------------------------------
 (1) ___flmul                                             26    18      8    4253
                                             14 BANK0     26    18      8
                          __Umul8_16
                           ___xxtofl (ARG)
 ---------------------------------------------------------------------------------
 (2) __Umul8_16                                            9     7      2     980
                                              0 BANK0      9     7      2
 ---------------------------------------------------------------------------------
 (1) ___fladd                                             20    12      8    3022
                                             40 BANK0     20    12      8
                            ___flmul (ARG)
                           ___xxtofl (ARG)
 ---------------------------------------------------------------------------------
 Estimated maximum stack depth 2
 ---------------------------------------------------------------------------------
 (Depth) Function   	        Calls       Base Space   Used Autos Params    Refs
 ---------------------------------------------------------------------------------
 (4) _isr                                                  5     5      0       0
                                              0 COMMON     5     5      0
 ---------------------------------------------------------------------------------
 Estimated maximum stack depth 4
 ---------------------------------------------------------------------------------

 Call Graph Graphs:

 _main (ROOT)
   _ANALOGICOS
     ___fladd
       ___flmul (ARG)
         __Umul8_16
         ___xxtofl (ARG)
       ___xxtofl (ARG)
     ___flmul
       __Umul8_16
       ___xxtofl (ARG)
     ___fltol
       ___fladd (ARG)
         ___flmul (ARG)
           __Umul8_16
           ___xxtofl (ARG)
         ___xxtofl (ARG)
       ___flmul (ARG)
         __Umul8_16
         ___xxtofl (ARG)
       ___xxtofl (ARG)
     ___xxtofl
   _EEPROM_R
   _EEPROM_W
   ___fladd
     ___flmul (ARG)
       __Umul8_16
       ___xxtofl (ARG)
     ___xxtofl (ARG)
   ___flmul
     __Umul8_16
     ___xxtofl (ARG)
   ___fltol
     ___fladd (ARG)
       ___flmul (ARG)
         __Umul8_16
         ___xxtofl (ARG)
       ___xxtofl (ARG)
     ___flmul (ARG)
       __Umul8_16
       ___xxtofl (ARG)
     ___xxtofl (ARG)
   ___xxtofl
   _setup

 _isr (ROOT)

 Address spaces:
Name               Size   Autos  Total    Cost      Usage
BANK3               60      0       0       9        0.0%
BITBANK3            60      0       0       8        0.0%
SFR3                 0      0       0       4        0.0%
BITSFR3              0      0       0       4        0.0%
BANK2               60      0       0      11        0.0%
BITBANK2            60      0       0      10        0.0%
SFR2                 0      0       0       5        0.0%
BITSFR2              0      0       0       5        0.0%
BANK1               50      5      11       7       21.2%
BITBANK1            50      0       0       6        0.0%
SFR1                 0      0       0       2        0.0%
BITSFR1              0      0       0       2        0.0%
BANK0               50     49      4F       5       98.8%
BITBANK0            50      0       0       4        0.0%
SFR0                 0      0       0       1        0.0%
BITSFR0              0      0       0       1        0.0%
COMMON               E      5       9       1       64.3%
BITCOMMON            E      0       0       0        0.0%
CODE                 0      0       0       0        0.0%
DATA                 0      0      69      12        0.0%
ABS                  0      0      69       3        0.0%
NULL                 0      0       0       0        0.0%
STACK                0      0       0       2        0.0%
EEDATA             100      0       0       0        0.0%


Microchip Technology PIC Macro Assembler V2.31 build 20201012212115 
Symbol Table                                                                                   Sat May 29 18:40:26 2021

    __Umul8_16@word_mpld 0026                      l201 0D77                      l210 0AC5  
                    l204 07E7                      l206 07ED                      l207 07F2  
                    l153 0487                      l172 0660                      l610 0F4D  
                    l602 0FFF                      l187 0B3D                      l620 0F93  
                    l196 0D0D                      l614 0F71                      l631 0FF3  
                    l623 0FD1                      l632 0FFF                      l704 07BE  
                    l706 07D0                      l482 0BB9                      l731 0728  
                    l492 0BB9                      l742 06F2                      l743 06FE  
                    l735 06D6                      l593 0E82                      l489 0BA4  
                    l729 0691                      l595 0E59                      l691 0311  
                    l589 0DDB                      l685 03A5                      l697 0399  
                    _RB0 0030                      _RB1 0031                      _RB4 0034  
                    _RB5 0035                      _RB6 0036                      _RB7 0037  
                    _PR2 0092                      _SEL 00A0      __size_of_ANALOGICOS 01BE  
                    _isr 0729             ___flmul@aexp 003C             ___flmul@bexp 0041  
           ___flmul@sign 003B             ___flmul@temp 0046             ___flmul@prod 0042  
           ___fltol@exp1 0066                     l1700 0DC8                     l2500 0175  
                   l1710 0DE5                     l1702 0DD0                     l2430 07B4  
                   l2510 01E8                     l2502 0185                     l1630 0B4B  
                   l1800 0F5A                     l1720 0DF9                     l1712 0DE9  
                   l1704 0DD1                     l2432 07B8                     l2520 0295  
                   l2512 0205                     l2504 01A2                     l2440 0045  
                   l1640 0B72                     l2600 06BF                     l1810 0F75  
                   l1730 0E0D                     l1722 0DFD                     l1714 0DED  
                   l1706 0DD3                     l2434 07C7                     l2426 07AB  
                   l2530 02E1                     l2522 02BD                     l2514 0232  
                   l2506 01B2                     l2450 005C                     l2442 004C  
                   l1650 0B80                     l1642 0B74                     l1634 0B54  
                   l2610 06F6                     l2602 06CD                     l1812 0F78  
                   l1804 0F63                     l1820 0F85                     l1740 0E21  
                   l1732 0E11                     l1724 0E01                     l1716 0DF1  
                   l1708 0DE1                     l2436 07CC                     l2428 07AD  
                   l2540 02F6                     l2532 02E2                     l2524 02C6  
                   l2516 0242                     l2508 01CF                     l2460 0078  
                   l2452 0061                     l2444 0052                     l1660 0BA9  
                   l1644 0B78                     l1652 0B92                     l1636 0B69  
                   l1628 0B3E                     l2620 0720                     l2612 0700  
                   l2604 06DD                     l2700 0B1E                     l1830 0F98  
                   l1822 0F86                     l1814 0F7A                     l1806 0F6C  
                   l1750 0E66                     l1734 0E15                     l1726 0E05  
                   l1718 0DF5                     l1742 0E25                     l1670 0D89  
                   l2550 031B                     l2542 02FA                     l2534 02EB  
                   l2526 02D4                     l2518 026F                     l2470 008D  
                   l2462 007E                     l2454 0069                     l2446 0056  
                   l1662 0BAE                     l1638 0B6A                     l2614 0716  
                   l2606 06E8                     l2710 0B29                     l2702 0B1F  
                   l2630 0ACF                     l1840 0FD6                     l1832 0F9D  
                   l1824 0F8A                     l1816 0F7F                     l1808 0F70  
                   l1752 0E68                     l1760 0E7A                     l1744 0E26  
                   l1736 0E19                     l1728 0E09                     l1680 0D9D  
                   l1672 0D8A                     l1664 0D78                     l2560 0359  
                   l2552 0329                     l2544 030E                     l2528 02DD  
                   l2536 02F1                     l2480 00A9                     l2472 0095  
                   l2464 0082                     l2456 006B                     l2448 0057  
                   l2616 071B                     l2608 06EC                     l2800 0AB2  
                   l2720 0B36                     l2712 0B2C                     l2704 0B22  
                   l2640 0ADF                     l2632 0AD1                     l2624 0AC6  
                   l1850 0FED                     l1842 0FDB                     l1834 0FAB  
                   l1826 0F90                     l1818 0F81                     l1770 0EAB  
                   l1762 0E86                     l1754 0E6C                     l1746 0E3D  
                   l1738 0E1D                     l1690 0DB3                     l1674 0D8F  
                   l1682 0D9F                     l1666 0D7F                     l2570 038D  
                   l2562 0364                     l2554 032D                     l2538 02F5  
                   l2490 00EC                     l2474 0097                     l2466 0083  
                   l2458 0073                     l1658 0B99                     l2618 071F  
                   l2730 0C0F                     l2802 0AB5                     l2722 0B3A  
                   l2714 0B2F                     l2706 0B25                     l2650 0AE8  
                   l2642 0AE0                     l2634 0AD2                     l2626 0ACA  
                   l2810 03AE                     l1852 0FEF                     l1844 0FE3  
                   l1836 0FAF                     l1780 0EC2                     l1772 0EAF  
                   l1764 0E8B                     l1756 0E6D                     l1748 0E5D  
                   l1692 0DB9                     l1684 0DA7                     l1676 0D94  
                   l1668 0D85                     l2572 0391                     l2564 0373  
                   l2556 0346                     l2548 0316                     l2492 0108  
                   l2484 00B2                     l2476 009F                     l2468 0088  
                   l2580 0670                     l2740 0C74                     l2732 0C13  
                   l2724 0B3C                     l2716 0B32                     l2708 0B28  
                   l2660 0AFA                     l2652 0AEC                     l2644 0AE1  
                   l2636 0AD3                     l2628 0ACB                     l2820 03FA  
                   l2812 03BF                     l1854 0FFA                     l1846 0FE8  
                   l1838 0FCD                     l1790 0F25                     l1782 0EC3  
                   l1774 0EB3                     l1758 0E76                     l1694 0DBD  
                   l1686 0DAC                     l1678 0D9C                     l2574 0392  
                   l2566 037D                     l2558 034C                     l2494 0134  
                   l2486 00C2                     l2478 00A4                     l2582 0675  
                   l2750 0CD9                     l2742 0C78                     l2734 0C1A  
                   l2726 0BBA                     l2718 0B33                     l2670 0AFF  
                   l2662 0AFB                     l2654 0AEE                     l2646 0AE2  
                   l2638 0ADC                     l2822 0401                     l2814 03C5  
                   l2806 03A6                     l1856 0FFE                     l1848 0FE9  
                   l1792 0F2B                     l1784 0ECC                     l1776 0EBC  
                   l1768 0E94                     l1696 0DBE                     l1688 0DB2  
                   l2576 039D                     l2568 037F                     l2496 0150  
                   l2488 00CF                     l2592 06A2                     l2584 0679  
                   l2760 0D06                     l2752 0CDD                     l2744 0C7F  
                   l2736 0C1E                     l2728 0BBB                     l2680 0B10  
                   l2672 0B00                     l2664 0AFC                     l2656 0AF2  
                   l2648 0AE4                     l2840 0492                     l2824 042E  
                   l2832 0467                     l2808 03AC                     l1794 0F30  
                   l1778 0EBE                     l1786 0ED1                     l1698 0DC3  
                   l2498 016C                     l2594 06A7                     l2586 0689  
                   l2770 0D45                     l2762 0D13                     l2754 0CE4  
                   l2746 0C83                     l2738 0C72                     l2690 0B17  
                   l2682 0B13                     l2674 0B01                     l2666 0AFD  
                   l2658 0AF6                     l2850 04C8                     l2842 0494  
                   l2826 0435                     l2818 03CE                     l2834 0477  
                   l1788 0EE7                     l1796 0F3F                     l2596 06B4  
                   l2588 0699                     l2764 0D20                     l2772 0D4B  
                   l2756 0CE8                     l2748 0CD7                     l2780 0D5A  
                   l2692 0B18                     l2684 0B14                     l2676 0B03  
                   l2668 0AFE                     l2860 0526                     l2852 04CC  
                   l2844 0498                     l2828 0462                     l2836 0487  
                   l1798 0F55                     l2598 06BB                     l2774 0D4F  
                   l2766 0D27                     l2758 0CF7                     l2790 07DD  
                   l2694 0B19                     l2686 0B15                     l2678 0B0A  
                   l2870 0545                     l2854 04F5                     l2846 049C  
                   l2838 048D                     l2862 0534                     l2776 0D56  
                   l2768 0D36                     l2792 07E0                     l2696 0B1C  
                   l2688 0B16                     l2872 059C                     l2864 0539  
                   l2856 04F9                     l2848 04C4                     l2794 07E1  
                   l2698 0B1D                     l2874 05A0                     l2882 064E  
                   l2866 053E                     l2858 04FD                     l2796 07E6  
                   l2788 07D1                     l2884 0665                     l2876 05F5  
                   l2868 0541                     l2798 0AAC                     l2990 0655  
                   l2878 05F9                     l2992 0D69                     l2988 046C  
                   _ADIF 0066                     ?_isr 0070                     _DATO 006D  
                   _T0IF 005A                     u3001 0251                     u3010 027B  
                   u3002 0258                     u3003 025F                     u3100 02FA  
                   _IOCB 0096                     u3101 02F9                     u3021 0287  
                   u3110 030E                     u3030 02A3                     u3022 028E  
                   u1510 0BA9                     u1430 0B4B                     u3111 030D  
                   u3023 0295                     u3015 0276                     u1511 0BA8  
                   u1431 0B4A                     u1600 0DE1                     u3120 0315  
                   u1520 0BAE                     u1440 0B62                     u3200 0679  
                   u1601 0DE0                     u3121 0314                     u3041 02AF  
                   u1521 0BAD                     u1505 0B9B                     u3201 0678  
                   u1610 0DE5                     u1530 0D89                     u3130 031B  
                   u3042 02B6                     u1450 0B78                     u3210 0699  
                   u1611 0DE4                     u1531 0D88                     u3131 031A  
                   u3043 02BD                     u3035 029E                     u1451 0B77  
                   u3211 0698                     u1700 0E8B                     u1620 0E3D  
                   u1540 0D8F                     u3140 032D                     u1460 0B7F  
                   u3300 070B                     u1701 0E8A                     u1621 0E3C  
                   u1541 0D8E                     u3141 032C                     u1461 0B7E  
                   u1445 0B5D                     u1630 0E48                     u1550 0D94  
                   u3150 033C                     u3070 02E1                     u3310 071B  
                   u3230 06BA                     u1711 0E9D                     u1631 0E46  
                   u1551 0D93                     u3071 02E0                     u3055 02BF  
                   u3311 071A                     u3231 06B9                     u1800 0F55  
                   u1720 0EAF                     u1712 0EA4                     u1640 0E49  
                   u1560 0DB2                     u3160 0359                     u1480 0B91  
                   u3320 071F                     u3400 03C5                     u1801 0F54  
                   u1721 0EAE                     u1713 0EAB                     u1625 0E39  
                   u1561 0DB1                     u3161 0358                     u3065 02D6  
                   u1481 0B90                     u3321 071E                     u3305 0706  
                   u3225 06AC                     u3401 03C4                     u1810 0F5A  
                   u1730 0EB3                     u1650 0E5D                     u1570 0DBD  
                   u3170 0373                     u3090 02F5                     u1490 0B98  
                   u3250 06DC                     u3330 0CF7                     u3410 03CD  
                   u1811 0F59                     u1731 0EB2                     u1651 0E5C  
                   u1571 0DBC                     u3171 0372                     u3155 0337  
                   u3091 02F4                     u1491 0B97                     u1475 0B81  
                   u3251 06DB                     u3331 0CF6                     u3411 03CC  
                   u1900 0F9D                     u1740 0EC2                     u1660 0E6C  
                   u1580 0DC3                     u3180 0391                     u3340 0D06  
                   u3500 0539                     u3420 048D                     u1901 0F9C  
                   u1741 0EC1                     u1661 0E6B                     u1581 0DC2  
                   u3181 0390                     u3165 0355                     u3085 02E4  
                   u3245 06CE                     u3341 0D05                     u3501 0538  
                   u3421 048C                     u1910 0FAF                     u1830 0F70  
                   u1590 0DC8                     u3270 06EC                     u3190 0675  
                   u3350 0D13                     u3510 053D                     u3430 0491  
                   u1911 0FAE                     u1831 0F6F                     u1591 0DC7  
                   u3175 036F                     u3271 06EB                     u3191 0674  
                   u3351 0D12                     u3335 0CF3                     u3511 053C  
                   u3431 0490                     u1920 0FBE                     u1840 0F75  
                   u1760 0EE7                     u1680 0E82                     u3280 06F2  
                   u3360 0D20                     u3520 0665                     u3440 0498  
                   u1841 0F74                     u1825 0F65                     u1761 0EE6  
                   u1681 0E81                     u3281 06F1                     u3265 06E1  
                   u3361 0D1F                     u3345 0D02                     u3521 0664  
                   u3441 0497                     u1930 0FCD                     u1850 0F7F  
                   u1690 0E86                     u2810 07CC                     u3290 06F6  
                   u3370 0D36                     u3530 0669                     u3450 049C  
                   u1931 0FCC                     u1851 0F7E                     u1771 0EFE  
                   u1763 0EE3                     u1755 0EC5                     u1691 0E85  
                   u1675 0E6F                     u2811 07CB                     u3291 06F5  
                   u3371 0D35                     u3531 0668                     u3451 049B  
                   u1940 0FD6                     u1860 0F85                     u1780 0F12  
                   u1772 0EFF                     u2820 0056                     u3380 0D45  
                   u3460 04C8                     u1941 0FD5                     u1925 0FB9  
                   u1861 0F84                     u1781 0F13                     u1773 0F04  
                   u2805 07BF                     u2901 00FA                     u2821 0055  
                   u3381 0D44                     u3365 0D1C                     u3461 04C7  
                   u1950 0FDB                     u1870 0F8A                     u1790 0F30  
                   u1782 0F18                     u1774 0F05                     u2902 0101  
                   u2830 005C                     u3390 07ED                     u3470 04CC  
                   u1951 0FDA                     u1871 0F89                     u1791 0F2F  
                   u1783 0F19                     u1775 0F0A                     u2911 0116  
                   u2903 0108                     u2831 005B                     u3375 0D32  
                   u3391 07EC                     u3471 04CB                     u1960 0FE8  
                   u1880 0F90                     u1776 0F0B                     u2912 011D  
                   u2840 0061                     u3480 04F9                     u1961 0FE7  
                   u1881 0F8F                     u2921 0142                     u2913 0124  
                   u2841 0060                     u3385 0D41                     u3481 04F8  
                   u1970 0FED                     u1890 0F97                     u2922 0149  
                   u2850 0082                     u3490 04FD                     u1971 0FEC  
                   u1891 0F96                     u2931 015E                     u2923 0150  
                   u2851 0081                     u3547 0B07                     u3491 04FC  
                   u1980 0FFE                     u2932 0165                     u2860 0088  
                   u1981 0FFD                     u2933 016C                     u2861 0087  
                   u3557 0C17                     u2790 07B8                     u2870 008D  
                   u2791 07B7                     u2951 0194                     u2871 008C  
                   u3567 0C7C                     u2952 019B                     u2880 00A4  
                   u2961 01C1                     u2953 01A2                     u2945 016E  
                   u2881 00A3                     u3577 0CE1                     u2962 01C8  
                   u2890 00A9                     u2963 01CF                     u2891 00A8  
                   u3587 0D53                     u2981 01F7                     u2982 01FE  
                   u2991 0224                     u2983 0205                     u2975 01D1  
                   u2992 022B                     u2993 0232                     _POT0 0077  
                   _POT1 0075                     _POT2 0069                     _POT3 00A6  
                   _TMR0 0001                     _PWM3 006B                     _WPUB 0095  
                   _main 03A6                     btemp 007E                     start 0010  
       __end_of_EEPROM_R 0AC6         __end_of_EEPROM_W 07F3                    ??_isr 0070  
          ___fltol@sign1 0065          __end_of___fladd 1000                    ?_main 0070  
                  _EEADR 010D                    _EEDAT 010C          __end_of___flmul 03A6  
        __end_of___fltol 0BBA                    _ANSEL 0188                    _T2CON 0012  
                  i1l141 076A                    i1l142 076B                    i1l137 076C  
                  i1l147 079E                    i1l139 0755                    _RCREG 001A  
                  _SEL_G 00A2                    _SPBRG 0099                    _PORTA 0005  
                  _PORTB 0006                    _PORTC 0007                    _PORTD 0008  
                  _PORTE 0009                    _TRISA 0085                    _TRISB 0086  
                  _TRISC 0087                    _TRISD 0088                    _TRISE 0089  
                  _setup 0AC6                    pclath 000A                    status 0003  
                  wtemp0 007E          __initialization 0013             __end_of_main 066D  
                 ??_main 00AB                   _ADRESH 001E                   _EEDATA 010C  
                 _CCPR1L 0015                   _CCPR2L 001B                   _EECON2 018D  
                 ?_setup 0070                   _ANSELH 0189                   i1l2230 0747  
                 i1l2222 0729                   i1l2240 0779                   i1l2232 0753  
                 i1l2224 072E                   i1l2250 0796                   i1l2242 077C  
                 i1l2234 0756                   i1l2226 0736                   i1l2244 0780  
                 i1l2252 079D                   i1l2236 0768                   i1l2228 0743  
                 i1l2246 0786                   i1l2238 0770                   i1l2248 078C  
                 u260_20 0768                   u260_21 0767                   u260_25 0764  
                 u261_20 0770                   u261_21 076F                   u262_20 0780  
                 u262_21 077F                   u263_20 0786                   u263_21 0785  
                 u264_20 078C                   u264_21 078B                   u257_20 072E  
                 u257_21 072D                   u258_20 0743                   u258_21 0742  
                 u258_25 073F                   u259_20 0753                   u259_21 0752  
                 u259_25 074F                   _SPBRGH 009A             ??_ANALOGICOS 00A8  
       __end_of___xxtofl 0729                ??___fladd 0050                ??___flmul 0036  
              ??___fltol 0060       __end_of_ANALOGICOS 0D78       __size_of__Umul8_16 0029  
                 saved_w 007E                ?_EEPROM_R 0020                ?_EEPROM_W 0020  
           ___xxtofl@arg 002A             ___xxtofl@exp 0029             ___xxtofl@val 0020  
__end_of__initialization 0041               ___fltol@f1 005C           __pcstackCOMMON 0070  
           __pidataBANK1 07F3            __end_of_setup 0B3E               ??_EEPROM_R 0022  
             ??_EEPROM_W 0075                  ??_setup 0020               __pbssBANK0 0069  
             __pbssBANK1 00A0        __end_of__Umul8_16 07D1               __pmaintext 03A6  
             __pintentry 0004                  _CCP1CON 0017                ?___xxtofl 0020  
                _VALORAN 00A4                  ___fladd 0D78                  ___flmul 0045  
                ___fltol 0B3E                  __ptext1 0AC6                  __ptext2 07D1  
                __ptext3 0AAC                  __ptext4 0BBA                  __ptext5 066D  
                __ptext6 0B3E                  __ptext7 0045                  __ptext8 07A8  
                __ptext9 0D78             __size_of_isr 007F               ??___xxtofl 0024  
   end_of_initialization 0041                _RCSTAbits 0018                _PORTCbits 0007  
            ___fladd@grs 005B            ___xxtofl@sign 0028        __size_of_EEPROM_R 001A  
      __size_of_EEPROM_W 0022              ___flmul@grs 003D              _CCP2CONbits 001D  
              _TXSTAbits 0098              _BAUDCTLbits 0187      start_initialization 0013  
      ANALOGICOS@VALORAN 0067              __end_of_isr 07A8                __Umul8_16 07A8  
            __pdataBANK1 00AD                ___fladd@a 004C                ___fladd@b 0048  
              ___flmul@a 0032                ___flmul@b 002E              __pbssCOMMON 0075  
              ___latbits 0002            __pcstackBANK0 0020            __pcstackBANK1 00A8  
      __size_of___xxtofl 00BC                 ?___fladd 0048                 ?___flmul 002E  
               ?___fltol 005C               ?__Umul8_16 0020                 _EEPROM_R 0AAC  
               _EEPROM_W 07D1           __size_of_setup 0078                 _RB0_FLAG 00AF  
               _RB1_FLAG 00AD        interrupt_function 0004                 _PIE1bits 008C  
               _PIR1bits 000C                 _PIR2bits 000D             EEPROM_R@dato 0024  
           EEPROM_W@dato 0020               _ADCON0bits 001F               _ADCON1bits 009F  
             _ANALOGICOS 0BBA               _EECON1bits 018C              ??__Umul8_16 0022  
       __size_of___fladd 0288         __size_of___flmul 0361         __size_of___fltol 007C  
               ___xxtofl 066D                 __ptext10 0729            __size_of_main 02C7  
            EEPROM_R@add 0020              EEPROM_W@add 0022               _INTCONbits 000B  
               intlevel1 0000              ?_ANALOGICOS 0067               _OSCCONbits 008F  
 __Umul8_16@multiplicand 0020               _OPTION_REG 0081            ___fladd@signs 0058  
           ___fladd@aexp 0059             ___fladd@bexp 005A     __Umul8_16@multiplier 0028  
      __Umul8_16@product 0024  
