

Microchip MPLAB XC8 Assembler V2.31 build 20201012212115 
                                                                                               Wed May 26 18:40:30 2021

Microchip MPLAB XC8 C Compiler v2.31 (Free license) build 20201012212115 Og1 
     1                           	processor	16F887
     2                           	pagewidth 120
     3                           	opt	flic
     4                           	psect	idataBANK1,global,class=CODE,delta=2,noexec
     5                           	psect	cinit,global,class=CODE,merge=1,delta=2
     6                           	psect	bssCOMMON,global,class=COMMON,space=1,delta=1,noexec
     7                           	psect	bssBANK0,global,class=BANK0,space=1,delta=1,noexec
     8                           	psect	bssBANK1,global,class=BANK1,space=1,delta=1,noexec
     9                           	psect	dataBANK1,global,class=BANK1,space=1,delta=1,noexec
    10                           	psect	cstackBANK1,global,class=BANK1,space=1,delta=1,noexec
    11                           	psect	cstackCOMMON,global,class=COMMON,space=1,delta=1,noexec
    12                           	psect	cstackBANK0,global,class=BANK0,space=1,delta=1,noexec
    13                           	psect	maintext,global,class=CODE,split=1,delta=2
    14                           	psect	text1,local,class=CODE,merge=1,delta=2
    15                           	psect	text2,local,class=CODE,merge=1,delta=2
    16                           	psect	text3,local,class=CODE,merge=1,delta=2
    17                           	psect	text4,local,class=CODE,merge=1,delta=2
    18                           	psect	text5,local,class=CODE,merge=1,delta=2,group=1
    19                           	psect	text6,local,class=CODE,merge=1,delta=2,group=1
    20                           	psect	text7,local,class=CODE,merge=1,delta=2,group=1
    21                           	psect	text8,local,class=CODE,merge=1,delta=2,group=1
    22                           	psect	text9,local,class=CODE,merge=1,delta=2,group=1
    23                           	psect	text10,local,class=CODE,merge=1,delta=2
    24                           	psect	intentry,global,class=CODE,delta=2
    25                           	psect	config,global,abs,ovrld,class=CONFIG,space=4,delta=2,noexec
    26                           	dabs	1,0x7E,2
    27  0000                     
    28                           ; Version 2.20
    29                           ; Generated 12/02/2020 GMT
    30                           ; 
    31                           ; Copyright © 2020, Microchip Technology Inc. and its subsidiaries ("Microchip")
    32                           ; All rights reserved.
    33                           ; 
    34                           ; This software is developed by Microchip Technology Inc. and its subsidiaries ("Microch
      +                          ip").
    35                           ; 
    36                           ; Redistribution and use in source and binary forms, with or without modification, are
    37                           ; permitted provided that the following conditions are met:
    38                           ; 
    39                           ;     1. Redistributions of source code must retain the above copyright notice, this lis
      +                          t of
    40                           ;        conditions and the following disclaimer.
    41                           ; 
    42                           ;     2. Redistributions in binary form must reproduce the above copyright notice, this 
      +                          list
    43                           ;        of conditions and the following disclaimer in the documentation and/or other
    44                           ;        materials provided with the distribution.
    45                           ; 
    46                           ;     3. Microchip's name may not be used to endorse or promote products derived from th
      +                          is
    47                           ;        software without specific prior written permission.
    48                           ; 
    49                           ; THIS SOFTWARE IS PROVIDED BY MICROCHIP "AS IS" AND ANY EXPRESS OR IMPLIED WARRANTIES,
    50                           ; INCLUDING, BUT NOT LIMITED TO, THE IMPLIED WARRANTIES OF MERCHANTABILITY AND FITNESS F
      +                          OR
    51                           ; PURPOSE ARE DISCLAIMED.  IN NO EVENT SHALL MICROCHIP BE LIABLE FOR ANY DIRECT, INDIREC
      +                          T,
    52                           ; INCIDENTAL, SPECIAL, EXEMPLARY, OR CONSEQUENTIAL DAMAGES (INCLUDING BUT NOT LIMITED TO
    53                           ; PROCUREMENT OF SUBSTITUTE GOODS OR SERVICES; LOSS OF USE, DATA OR PROFITS; OR BUSINESS
    54                           ; INTERRUPTION) HOWSOEVER CAUSED AND ON ANY THEORY OF LIABILITY, WHETHER IN CONTRACT, ST
      +                          RICT
    55                           ; LIABILITY, OR TORT (INCLUDING NEGLIGENCE OR OTHERWISE) ARISING IN ANY WAY OUT OF THE U
      +                          SE OF
    56                           ; THIS SOFTWARE, EVEN IF ADVISED OF THE POSSIBILITY OF SUCH DAMAGE.
    57                           ; 
    58                           ; 
    59                           ; Code-generator required, PIC16F887 Definitions
    60                           ; 
    61                           ; SFR Addresses
    62  0000                     	;# 
    63  0001                     	;# 
    64  0002                     	;# 
    65  0003                     	;# 
    66  0004                     	;# 
    67  0005                     	;# 
    68  0006                     	;# 
    69  0007                     	;# 
    70  0008                     	;# 
    71  0009                     	;# 
    72  000A                     	;# 
    73  000B                     	;# 
    74  000C                     	;# 
    75  000D                     	;# 
    76  000E                     	;# 
    77  000E                     	;# 
    78  000F                     	;# 
    79  0010                     	;# 
    80  0011                     	;# 
    81  0012                     	;# 
    82  0013                     	;# 
    83  0014                     	;# 
    84  0015                     	;# 
    85  0015                     	;# 
    86  0016                     	;# 
    87  0017                     	;# 
    88  0018                     	;# 
    89  0019                     	;# 
    90  001A                     	;# 
    91  001B                     	;# 
    92  001B                     	;# 
    93  001C                     	;# 
    94  001D                     	;# 
    95  001E                     	;# 
    96  001F                     	;# 
    97  0081                     	;# 
    98  0085                     	;# 
    99  0086                     	;# 
   100  0087                     	;# 
   101  0088                     	;# 
   102  0089                     	;# 
   103  008C                     	;# 
   104  008D                     	;# 
   105  008E                     	;# 
   106  008F                     	;# 
   107  0090                     	;# 
   108  0091                     	;# 
   109  0092                     	;# 
   110  0093                     	;# 
   111  0093                     	;# 
   112  0093                     	;# 
   113  0094                     	;# 
   114  0095                     	;# 
   115  0096                     	;# 
   116  0097                     	;# 
   117  0098                     	;# 
   118  0099                     	;# 
   119  009A                     	;# 
   120  009B                     	;# 
   121  009C                     	;# 
   122  009D                     	;# 
   123  009E                     	;# 
   124  009F                     	;# 
   125  0105                     	;# 
   126  0107                     	;# 
   127  0108                     	;# 
   128  0109                     	;# 
   129  010C                     	;# 
   130  010C                     	;# 
   131  010D                     	;# 
   132  010E                     	;# 
   133  010F                     	;# 
   134  0185                     	;# 
   135  0187                     	;# 
   136  0188                     	;# 
   137  0189                     	;# 
   138  018C                     	;# 
   139  018D                     	;# 
   140  0000                     	;# 
   141  0001                     	;# 
   142  0002                     	;# 
   143  0003                     	;# 
   144  0004                     	;# 
   145  0005                     	;# 
   146  0006                     	;# 
   147  0007                     	;# 
   148  0008                     	;# 
   149  0009                     	;# 
   150  000A                     	;# 
   151  000B                     	;# 
   152  000C                     	;# 
   153  000D                     	;# 
   154  000E                     	;# 
   155  000E                     	;# 
   156  000F                     	;# 
   157  0010                     	;# 
   158  0011                     	;# 
   159  0012                     	;# 
   160  0013                     	;# 
   161  0014                     	;# 
   162  0015                     	;# 
   163  0015                     	;# 
   164  0016                     	;# 
   165  0017                     	;# 
   166  0018                     	;# 
   167  0019                     	;# 
   168  001A                     	;# 
   169  001B                     	;# 
   170  001B                     	;# 
   171  001C                     	;# 
   172  001D                     	;# 
   173  001E                     	;# 
   174  001F                     	;# 
   175  0081                     	;# 
   176  0085                     	;# 
   177  0086                     	;# 
   178  0087                     	;# 
   179  0088                     	;# 
   180  0089                     	;# 
   181  008C                     	;# 
   182  008D                     	;# 
   183  008E                     	;# 
   184  008F                     	;# 
   185  0090                     	;# 
   186  0091                     	;# 
   187  0092                     	;# 
   188  0093                     	;# 
   189  0093                     	;# 
   190  0093                     	;# 
   191  0094                     	;# 
   192  0095                     	;# 
   193  0096                     	;# 
   194  0097                     	;# 
   195  0098                     	;# 
   196  0099                     	;# 
   197  009A                     	;# 
   198  009B                     	;# 
   199  009C                     	;# 
   200  009D                     	;# 
   201  009E                     	;# 
   202  009F                     	;# 
   203  0105                     	;# 
   204  0107                     	;# 
   205  0108                     	;# 
   206  0109                     	;# 
   207  010C                     	;# 
   208  010C                     	;# 
   209  010D                     	;# 
   210  010E                     	;# 
   211  010F                     	;# 
   212  0185                     	;# 
   213  0187                     	;# 
   214  0188                     	;# 
   215  0189                     	;# 
   216  018C                     	;# 
   217  018D                     	;# 
   218                           
   219                           	psect	idataBANK1
   220  07EF                     __pidataBANK1:
   221                           
   222                           ;initializer for _RB1_FLAG
   223  07EF  3401               	retlw	1
   224  07F0  3400               	retlw	0
   225                           
   226                           ;initializer for _RB0_FLAG
   227  07F1  3401               	retlw	1
   228  07F2  3400               	retlw	0
   229  000D                     _PIR2bits	set	13
   230  0018                     _RCSTAbits	set	24
   231  001F                     _ADCON0bits	set	31
   232  001D                     _CCP2CONbits	set	29
   233  0017                     _CCP1CON	set	23
   234  0012                     _T2CON	set	18
   235  0007                     _PORTC	set	7
   236  0006                     _PORTB	set	6
   237  0005                     _PORTA	set	5
   238  0008                     _PORTD	set	8
   239  001B                     _CCPR2L	set	27
   240  0015                     _CCPR1L	set	21
   241  0009                     _PORTE	set	9
   242  001A                     _RCREG	set	26
   243  000C                     _PIR1bits	set	12
   244  001E                     _ADRESH	set	30
   245  0007                     _PORTCbits	set	7
   246  0001                     _TMR0	set	1
   247  000B                     _INTCONbits	set	11
   248  0031                     _RB1	set	49
   249  0035                     _RB5	set	53
   250  0034                     _RB4	set	52
   251  0037                     _RB7	set	55
   252  0036                     _RB6	set	54
   253  0030                     _RB0	set	48
   254  0066                     _ADIF	set	102
   255  005A                     _T0IF	set	90
   256  009A                     _SPBRGH	set	154
   257  0099                     _SPBRG	set	153
   258  0098                     _TXSTAbits	set	152
   259  008C                     _PIE1bits	set	140
   260  009F                     _ADCON1bits	set	159
   261  0092                     _PR2	set	146
   262  0096                     _IOCB	set	150
   263  0095                     _WPUB	set	149
   264  0081                     _OPTION_REG	set	129
   265  008F                     _OSCCONbits	set	143
   266  0086                     _TRISB	set	134
   267  0089                     _TRISE	set	137
   268  0088                     _TRISD	set	136
   269  0087                     _TRISC	set	135
   270  0085                     _TRISA	set	133
   271  010C                     _EEDATA	set	268
   272  010C                     _EEDAT	set	268
   273  010D                     _EEADR	set	269
   274  018D                     _EECON2	set	397
   275  018C                     _EECON1bits	set	396
   276  0187                     _BAUDCTLbits	set	391
   277  0189                     _ANSELH	set	393
   278  0188                     _ANSEL	set	392
   279                           
   280                           	psect	cinit
   281  0013                     start_initialization:	
   282                           ; #config settings
   283                           
   284  0013                     __initialization:
   285                           
   286                           ; Initialize objects allocated to BANK1
   287  0013  1683               	bsf	3,5	;RP0=1, select bank1
   288  0014  1303               	bcf	3,6	;RP1=0, select bank1
   289  0015  120A  118A  27EF  120A  118A  	fcall	__pidataBANK1	;fetch initializer
   290  001A  00AB               	movwf	__pdataBANK1& (0+127)
   291  001B  120A  118A  27F0  120A  118A  	fcall	__pidataBANK1+1	;fetch initializer
   292  0020  00AC               	movwf	(__pdataBANK1+1)& (0+127)
   293  0021  120A  118A  27F1  120A  118A  	fcall	__pidataBANK1+2	;fetch initializer
   294  0026  00AD               	movwf	(__pdataBANK1+2)& (0+127)
   295  0027  120A  118A  27F2  120A  118A  	fcall	__pidataBANK1+3	;fetch initializer
   296  002C  00AE               	movwf	(__pdataBANK1+3)& (0+127)
   297                           
   298                           ; Clear objects allocated to BANK1
   299  002D  01A0               	clrf	__pbssBANK1& (0+127)
   300  002E  01A1               	clrf	(__pbssBANK1+1)& (0+127)
   301  002F  01A2               	clrf	(__pbssBANK1+2)& (0+127)
   302  0030  01A3               	clrf	(__pbssBANK1+3)& (0+127)
   303  0031  01A4               	clrf	(__pbssBANK1+4)& (0+127)
   304  0032  01A5               	clrf	(__pbssBANK1+5)& (0+127)
   305                           
   306                           ; Clear objects allocated to BANK0
   307  0033  1283               	bcf	3,5	;RP0=0, select bank0
   308  0034  1303               	bcf	3,6	;RP1=0, select bank0
   309  0035  01E9               	clrf	__pbssBANK0& (0+127)
   310  0036  01EA               	clrf	(__pbssBANK0+1)& (0+127)
   311  0037  01EB               	clrf	(__pbssBANK0+2)& (0+127)
   312  0038  01EC               	clrf	(__pbssBANK0+3)& (0+127)
   313  0039  01ED               	clrf	(__pbssBANK0+4)& (0+127)
   314  003A  01EE               	clrf	(__pbssBANK0+5)& (0+127)
   315                           
   316                           ; Clear objects allocated to COMMON
   317  003B  01F5               	clrf	__pbssCOMMON& (0+127)
   318  003C  01F6               	clrf	(__pbssCOMMON+1)& (0+127)
   319  003D  01F7               	clrf	(__pbssCOMMON+2)& (0+127)
   320  003E  01F8               	clrf	(__pbssCOMMON+3)& (0+127)
   321  003F                     end_of_initialization:	
   322                           ;End of C runtime variable initialization code
   323                           
   324  003F                     __end_of__initialization:
   325  003F  0183               	clrf	3
   326  0040  120A  158A  2DA2   	ljmp	_main	;jump to C main() function
   327                           
   328                           	psect	bssCOMMON
   329  0075                     __pbssCOMMON:
   330  0075                     _POT0:
   331  0075                     	ds	2
   332  0077                     _DATO:
   333  0077                     	ds	2
   334                           
   335                           	psect	bssBANK0
   336  0069                     __pbssBANK0:
   337  0069                     _POT2:
   338  0069                     	ds	2
   339  006B                     _POT1:
   340  006B                     	ds	2
   341  006D                     _PWM3:
   342  006D                     	ds	2
   343                           
   344                           	psect	bssBANK1
   345  00A0                     __pbssBANK1:
   346  00A0                     _SEL:
   347  00A0                     	ds	2
   348  00A2                     _SEL_G:
   349  00A2                     	ds	2
   350  00A4                     _VALORAN:
   351  00A4                     	ds	2
   352                           
   353                           	psect	dataBANK1
   354  00AB                     __pdataBANK1:
   355  00AB                     _RB1_FLAG:
   356  00AB                     	ds	2
   357  00AD                     _RB0_FLAG:
   358  00AD                     	ds	2
   359                           
   360                           	psect	cstackBANK1
   361  00A6                     __pcstackBANK1:
   362  00A6                     ??_ANALOGICOS:
   363                           
   364                           ; 1 bytes @ 0x0
   365  00A6                     	ds	3
   366  00A9                     ??_main:
   367                           
   368                           ; 1 bytes @ 0x3
   369  00A9                     	ds	2
   370                           
   371                           	psect	cstackCOMMON
   372  0070                     __pcstackCOMMON:
   373  0070                     ?_setup:
   374  0070                     ?_isr:	
   375                           ; 1 bytes @ 0x0
   376                           
   377  0070                     ??_isr:	
   378                           ; 1 bytes @ 0x0
   379                           
   380  0070                     ?_main:	
   381                           ; 1 bytes @ 0x0
   382                           
   383                           
   384                           ; 1 bytes @ 0x0
   385  0070                     	ds	5
   386  0075                     ??_EEPROM_W:
   387                           
   388                           	psect	cstackBANK0
   389  0020                     __pcstackBANK0:	
   390                           ; 1 bytes @ 0x5
   391                           
   392  0020                     ??_setup:
   393  0020                     ?_EEPROM_W:	
   394                           ; 1 bytes @ 0x0
   395                           
   396  0020                     ?_EEPROM_R:	
   397                           ; 1 bytes @ 0x0
   398                           
   399  0020                     ?__Umul8_16:	
   400                           ; 2 bytes @ 0x0
   401                           
   402  0020                     ?___xxtofl:	
   403                           ; 2 bytes @ 0x0
   404                           
   405  0020                     __Umul8_16@multiplicand:	
   406                           ; 4 bytes @ 0x0
   407                           
   408  0020                     EEPROM_W@dato:	
   409                           ; 1 bytes @ 0x0
   410                           
   411  0020                     EEPROM_R@add:	
   412                           ; 2 bytes @ 0x0
   413                           
   414  0020                     ___xxtofl@val:	
   415                           ; 2 bytes @ 0x0
   416                           
   417                           
   418                           ; 4 bytes @ 0x0
   419  0020                     	ds	2
   420  0022                     ??_EEPROM_R:
   421  0022                     ??__Umul8_16:	
   422                           ; 1 bytes @ 0x2
   423                           
   424  0022                     EEPROM_W@add:	
   425                           ; 1 bytes @ 0x2
   426                           
   427                           
   428                           ; 2 bytes @ 0x2
   429  0022                     	ds	2
   430  0024                     ??___xxtofl:
   431  0024                     EEPROM_R@dato:	
   432                           ; 1 bytes @ 0x4
   433                           
   434  0024                     __Umul8_16@product:	
   435                           ; 2 bytes @ 0x4
   436                           
   437                           
   438                           ; 2 bytes @ 0x4
   439  0024                     	ds	2
   440  0026                     __Umul8_16@word_mpld:
   441                           
   442                           ; 2 bytes @ 0x6
   443  0026                     	ds	2
   444  0028                     __Umul8_16@multiplier:
   445  0028                     ___xxtofl@sign:	
   446                           ; 1 bytes @ 0x8
   447                           
   448                           
   449                           ; 1 bytes @ 0x8
   450  0028                     	ds	1
   451  0029                     ___xxtofl@exp:
   452                           
   453                           ; 1 bytes @ 0x9
   454  0029                     	ds	1
   455  002A                     ___xxtofl@arg:
   456                           
   457                           ; 4 bytes @ 0xA
   458  002A                     	ds	4
   459  002E                     ?___flmul:
   460  002E                     ___flmul@b:	
   461                           ; 4 bytes @ 0xE
   462                           
   463                           
   464                           ; 4 bytes @ 0xE
   465  002E                     	ds	4
   466  0032                     ___flmul@a:
   467                           
   468                           ; 4 bytes @ 0x12
   469  0032                     	ds	4
   470  0036                     ??___flmul:
   471                           
   472                           ; 1 bytes @ 0x16
   473  0036                     	ds	5
   474  003B                     ___flmul@sign:
   475                           
   476                           ; 1 bytes @ 0x1B
   477  003B                     	ds	1
   478  003C                     ___flmul@aexp:
   479                           
   480                           ; 1 bytes @ 0x1C
   481  003C                     	ds	1
   482  003D                     ___flmul@grs:
   483                           
   484                           ; 4 bytes @ 0x1D
   485  003D                     	ds	4
   486  0041                     ___flmul@bexp:
   487                           
   488                           ; 1 bytes @ 0x21
   489  0041                     	ds	1
   490  0042                     ___flmul@prod:
   491                           
   492                           ; 4 bytes @ 0x22
   493  0042                     	ds	4
   494  0046                     ___flmul@temp:
   495                           
   496                           ; 2 bytes @ 0x26
   497  0046                     	ds	2
   498  0048                     ?___fladd:
   499  0048                     ___fladd@b:	
   500                           ; 4 bytes @ 0x28
   501                           
   502                           
   503                           ; 4 bytes @ 0x28
   504  0048                     	ds	4
   505  004C                     ___fladd@a:
   506                           
   507                           ; 4 bytes @ 0x2C
   508  004C                     	ds	4
   509  0050                     ??___fladd:
   510                           
   511                           ; 1 bytes @ 0x30
   512  0050                     	ds	8
   513  0058                     ___fladd@signs:
   514                           
   515                           ; 1 bytes @ 0x38
   516  0058                     	ds	1
   517  0059                     ___fladd@aexp:
   518                           
   519                           ; 1 bytes @ 0x39
   520  0059                     	ds	1
   521  005A                     ___fladd@bexp:
   522                           
   523                           ; 1 bytes @ 0x3A
   524  005A                     	ds	1
   525  005B                     ___fladd@grs:
   526                           
   527                           ; 1 bytes @ 0x3B
   528  005B                     	ds	1
   529  005C                     ?___fltol:
   530  005C                     ___fltol@f1:	
   531                           ; 4 bytes @ 0x3C
   532                           
   533                           
   534                           ; 4 bytes @ 0x3C
   535  005C                     	ds	4
   536  0060                     ??___fltol:
   537                           
   538                           ; 1 bytes @ 0x40
   539  0060                     	ds	5
   540  0065                     ___fltol@sign1:
   541                           
   542                           ; 1 bytes @ 0x45
   543  0065                     	ds	1
   544  0066                     ___fltol@exp1:
   545                           
   546                           ; 1 bytes @ 0x46
   547  0066                     	ds	1
   548  0067                     ?_ANALOGICOS:
   549  0067                     ANALOGICOS@VALORAN:	
   550                           ; 1 bytes @ 0x47
   551                           
   552                           
   553                           ; 2 bytes @ 0x47
   554  0067                     	ds	2
   555                           
   556                           	psect	maintext
   557  0DA2                     __pmaintext:	
   558 ;;
   559 ;;Main: autosize = 0, tempsize = 2, incstack = 0, save=0
   560 ;;
   561 ;; *************** function _main *****************
   562 ;; Defined at:
   563 ;;		line 93 in file "main.c"
   564 ;; Parameters:    Size  Location     Type
   565 ;;		None
   566 ;; Auto vars:     Size  Location     Type
   567 ;;		None
   568 ;; Return value:  Size  Location     Type
   569 ;;                  1    wreg      void 
   570 ;; Registers used:
   571 ;;		wreg, fsr0l, fsr0h, status,2, status,0, btemp+1, pclath, cstack
   572 ;; Tracked objects:
   573 ;;		On entry : B00/0
   574 ;;		On exit  : 0/0
   575 ;;		Unchanged: 0/0
   576 ;; Data sizes:     COMMON   BANK0   BANK1   BANK3   BANK2
   577 ;;      Params:         0       0       0       0       0
   578 ;;      Locals:         0       0       0       0       0
   579 ;;      Temps:          0       0       2       0       0
   580 ;;      Totals:         0       0       2       0       0
   581 ;;Total ram usage:        2 bytes
   582 ;; Hardware stack levels required when called:    4
   583 ;; This function calls:
   584 ;;		_ANALOGICOS
   585 ;;		_EEPROM_R
   586 ;;		_EEPROM_W
   587 ;;		___fladd
   588 ;;		___flmul
   589 ;;		___fltol
   590 ;;		___xxtofl
   591 ;;		_setup
   592 ;; This function is called by:
   593 ;;		Startup code after reset
   594 ;; This function uses a non-reentrant model
   595 ;;
   596                           
   597                           
   598                           ;psect for function _main
   599  0DA2                     _main:
   600  0DA2                     l2738:	
   601                           ;incstack = 0
   602                           ; Regs used in _main: [wreg-fsr0h+status,2+status,0+btemp+1+pclath+cstack]
   603                           
   604                           
   605                           ;main.c: 94:     setup();
   606  0DA2  120A  158A  246E  120A  158A  	fcall	_setup
   607  0DA7  2E83               	goto	l2768
   608  0DA8                     l2740:
   609                           
   610                           ;main.c: 97:             PORTE = 0X01;
   611  0DA8  3001               	movlw	1
   612  0DA9  0089               	movwf	9	;volatile
   613  0DAA                     l2742:
   614                           
   615                           ;main.c: 99:         ANALOGICOS(VALORAN);
   616  0DAA  1683               	bsf	3,5	;RP0=1, select bank1
   617  0DAB  1303               	bcf	3,6	;RP1=0, select bank1
   618  0DAC  0825               	movf	(_VALORAN+1)^(0+128),w
   619  0DAD  1283               	bcf	3,5	;RP0=0, select bank0
   620  0DAE  1303               	bcf	3,6	;RP1=0, select bank0
   621  0DAF  00E8               	movwf	ANALOGICOS@VALORAN+1
   622  0DB0  1683               	bsf	3,5	;RP0=1, select bank1
   623  0DB1  1303               	bcf	3,6	;RP1=0, select bank1
   624  0DB2  0824               	movf	_VALORAN^(0+128),w
   625  0DB3  1283               	bcf	3,5	;RP0=0, select bank0
   626  0DB4  1303               	bcf	3,6	;RP1=0, select bank0
   627  0DB5  00E7               	movwf	ANALOGICOS@VALORAN
   628  0DB6  120A  118A  262C  120A  158A  	fcall	_ANALOGICOS
   629  0DBB                     l2744:
   630                           
   631                           ;main.c: 101:         if (RB0 == 1 && RB0_FLAG == 0){
   632  0DBB  1283               	bcf	3,5	;RP0=0, select bank0
   633  0DBC  1303               	bcf	3,6	;RP1=0, select bank0
   634  0DBD  1C06               	btfss	6,0	;volatile
   635  0DBE  2DC0               	goto	u3281
   636  0DBF  2DC1               	goto	u3280
   637  0DC0                     u3281:
   638  0DC0  2E73               	goto	l2766
   639  0DC1                     u3280:
   640  0DC1                     l2746:
   641  0DC1  1683               	bsf	3,5	;RP0=1, select bank1
   642  0DC2  1303               	bcf	3,6	;RP1=0, select bank1
   643  0DC3  082D               	movf	_RB0_FLAG^(0+128),w
   644  0DC4  042E               	iorwf	(_RB0_FLAG+1)^(0+128),w
   645  0DC5  1D03               	btfss	3,2
   646  0DC6  2DC8               	goto	u3291
   647  0DC7  2DC9               	goto	u3290
   648  0DC8                     u3291:
   649  0DC8  2E73               	goto	l2766
   650  0DC9                     u3290:
   651  0DC9  2E63               	goto	l2764
   652  0DCA                     l2750:
   653                           
   654                           ;main.c: 104:                     EEPROM_W(POT0, 0);
   655  0DCA  0876               	movf	_POT0+1,w
   656  0DCB  1283               	bcf	3,5	;RP0=0, select bank0
   657  0DCC  1303               	bcf	3,6	;RP1=0, select bank0
   658  0DCD  00A1               	movwf	EEPROM_W@dato+1
   659  0DCE  0875               	movf	_POT0,w
   660  0DCF  00A0               	movwf	EEPROM_W@dato
   661  0DD0  3000               	movlw	0
   662  0DD1  00A2               	movwf	EEPROM_W@add
   663  0DD2  00A3               	movwf	EEPROM_W@add+1
   664  0DD3  120A  158A  23B9  120A  158A  	fcall	_EEPROM_W
   665                           
   666                           ;main.c: 105:                     EEPROM_W(POT1, 1);
   667  0DD8  1283               	bcf	3,5	;RP0=0, select bank0
   668  0DD9  1303               	bcf	3,6	;RP1=0, select bank0
   669  0DDA  086C               	movf	_POT1+1,w
   670  0DDB  00A1               	movwf	EEPROM_W@dato+1
   671  0DDC  086B               	movf	_POT1,w
   672  0DDD  00A0               	movwf	EEPROM_W@dato
   673  0DDE  3001               	movlw	1
   674  0DDF  00A2               	movwf	EEPROM_W@add
   675  0DE0  3000               	movlw	0
   676  0DE1  00A3               	movwf	EEPROM_W@add+1
   677  0DE2  120A  158A  23B9  120A  158A  	fcall	_EEPROM_W
   678                           
   679                           ;main.c: 106:                     EEPROM_W(POT2, 2);
   680  0DE7  1283               	bcf	3,5	;RP0=0, select bank0
   681  0DE8  1303               	bcf	3,6	;RP1=0, select bank0
   682  0DE9  086A               	movf	_POT2+1,w
   683  0DEA  00A1               	movwf	EEPROM_W@dato+1
   684  0DEB  0869               	movf	_POT2,w
   685  0DEC  00A0               	movwf	EEPROM_W@dato
   686  0DED  3002               	movlw	2
   687  0DEE  00A2               	movwf	EEPROM_W@add
   688  0DEF  3000               	movlw	0
   689  0DF0  00A3               	movwf	EEPROM_W@add+1
   690  0DF1  120A  158A  23B9  120A  158A  	fcall	_EEPROM_W
   691  0DF6                     l2752:
   692                           
   693                           ;main.c: 107:                     SEL_G = 1;
   694  0DF6  3001               	movlw	1
   695  0DF7  1683               	bsf	3,5	;RP0=1, select bank1
   696  0DF8  1303               	bcf	3,6	;RP1=0, select bank1
   697  0DF9  00A2               	movwf	_SEL_G^(0+128)
   698  0DFA  3000               	movlw	0
   699  0DFB  00A3               	movwf	(_SEL_G^(0+128)+1)
   700                           
   701                           ;main.c: 108:                     break;
   702  0DFC  2E73               	goto	l2766
   703  0DFD                     l2754:
   704                           
   705                           ;main.c: 110:                     EEPROM_W(POT0, 3);
   706  0DFD  0876               	movf	_POT0+1,w
   707  0DFE  1283               	bcf	3,5	;RP0=0, select bank0
   708  0DFF  1303               	bcf	3,6	;RP1=0, select bank0
   709  0E00  00A1               	movwf	EEPROM_W@dato+1
   710  0E01  0875               	movf	_POT0,w
   711  0E02  00A0               	movwf	EEPROM_W@dato
   712  0E03  3003               	movlw	3
   713  0E04  00A2               	movwf	EEPROM_W@add
   714  0E05  3000               	movlw	0
   715  0E06  00A3               	movwf	EEPROM_W@add+1
   716  0E07  120A  158A  23B9  120A  158A  	fcall	_EEPROM_W
   717                           
   718                           ;main.c: 111:                     EEPROM_W(POT1, 4);
   719  0E0C  1283               	bcf	3,5	;RP0=0, select bank0
   720  0E0D  1303               	bcf	3,6	;RP1=0, select bank0
   721  0E0E  086C               	movf	_POT1+1,w
   722  0E0F  00A1               	movwf	EEPROM_W@dato+1
   723  0E10  086B               	movf	_POT1,w
   724  0E11  00A0               	movwf	EEPROM_W@dato
   725  0E12  3004               	movlw	4
   726  0E13  00A2               	movwf	EEPROM_W@add
   727  0E14  3000               	movlw	0
   728  0E15  00A3               	movwf	EEPROM_W@add+1
   729  0E16  120A  158A  23B9  120A  158A  	fcall	_EEPROM_W
   730                           
   731                           ;main.c: 112:                     EEPROM_W(POT2, 5);
   732  0E1B  1283               	bcf	3,5	;RP0=0, select bank0
   733  0E1C  1303               	bcf	3,6	;RP1=0, select bank0
   734  0E1D  086A               	movf	_POT2+1,w
   735  0E1E  00A1               	movwf	EEPROM_W@dato+1
   736  0E1F  0869               	movf	_POT2,w
   737  0E20  00A0               	movwf	EEPROM_W@dato
   738  0E21  3005               	movlw	5
   739  0E22  00A2               	movwf	EEPROM_W@add
   740  0E23  3000               	movlw	0
   741  0E24  00A3               	movwf	EEPROM_W@add+1
   742  0E25  120A  158A  23B9  120A  158A  	fcall	_EEPROM_W
   743  0E2A                     l2756:
   744                           
   745                           ;main.c: 113:                     SEL_G = 2;
   746  0E2A  3002               	movlw	2
   747  0E2B  1683               	bsf	3,5	;RP0=1, select bank1
   748  0E2C  1303               	bcf	3,6	;RP1=0, select bank1
   749  0E2D  00A2               	movwf	_SEL_G^(0+128)
   750  0E2E  3000               	movlw	0
   751  0E2F  00A3               	movwf	(_SEL_G^(0+128)+1)
   752                           
   753                           ;main.c: 114:                     break;
   754  0E30  2E73               	goto	l2766
   755  0E31                     l2758:
   756                           
   757                           ;main.c: 116:                     EEPROM_W(POT0, 6);
   758  0E31  0876               	movf	_POT0+1,w
   759  0E32  1283               	bcf	3,5	;RP0=0, select bank0
   760  0E33  1303               	bcf	3,6	;RP1=0, select bank0
   761  0E34  00A1               	movwf	EEPROM_W@dato+1
   762  0E35  0875               	movf	_POT0,w
   763  0E36  00A0               	movwf	EEPROM_W@dato
   764  0E37  3006               	movlw	6
   765  0E38  00A2               	movwf	EEPROM_W@add
   766  0E39  3000               	movlw	0
   767  0E3A  00A3               	movwf	EEPROM_W@add+1
   768  0E3B  120A  158A  23B9  120A  158A  	fcall	_EEPROM_W
   769                           
   770                           ;main.c: 117:                     EEPROM_W(POT1, 7);
   771  0E40  1283               	bcf	3,5	;RP0=0, select bank0
   772  0E41  1303               	bcf	3,6	;RP1=0, select bank0
   773  0E42  086C               	movf	_POT1+1,w
   774  0E43  00A1               	movwf	EEPROM_W@dato+1
   775  0E44  086B               	movf	_POT1,w
   776  0E45  00A0               	movwf	EEPROM_W@dato
   777  0E46  3007               	movlw	7
   778  0E47  00A2               	movwf	EEPROM_W@add
   779  0E48  3000               	movlw	0
   780  0E49  00A3               	movwf	EEPROM_W@add+1
   781  0E4A  120A  158A  23B9  120A  158A  	fcall	_EEPROM_W
   782                           
   783                           ;main.c: 118:                     EEPROM_W(POT2, 8);
   784  0E4F  1283               	bcf	3,5	;RP0=0, select bank0
   785  0E50  1303               	bcf	3,6	;RP1=0, select bank0
   786  0E51  086A               	movf	_POT2+1,w
   787  0E52  00A1               	movwf	EEPROM_W@dato+1
   788  0E53  0869               	movf	_POT2,w
   789  0E54  00A0               	movwf	EEPROM_W@dato
   790  0E55  3008               	movlw	8
   791  0E56  00A2               	movwf	EEPROM_W@add
   792  0E57  3000               	movlw	0
   793  0E58  00A3               	movwf	EEPROM_W@add+1
   794  0E59  120A  158A  23B9  120A  158A  	fcall	_EEPROM_W
   795  0E5E                     l2760:
   796                           
   797                           ;main.c: 119:                     SEL_G = 0;
   798  0E5E  1683               	bsf	3,5	;RP0=1, select bank1
   799  0E5F  1303               	bcf	3,6	;RP1=0, select bank1
   800  0E60  01A2               	clrf	_SEL_G^(0+128)
   801  0E61  01A3               	clrf	(_SEL_G+1)^(0+128)
   802                           
   803                           ;main.c: 120:                     break;
   804  0E62  2E73               	goto	l2766
   805  0E63                     l2764:
   806                           
   807                           ; Switch on 2 bytes has been partitioned into a top level switch of size 1, and 1 sub-sw
      +                          itches
   808                           ; Switch size 1, requested type "simple"
   809                           ; Number of cases is 1, Range of values is 0 to 0
   810                           ; switch strategies available:
   811                           ; Name         Instructions Cycles
   812                           ; simple_byte            4     3 (average)
   813                           ; direct_byte           11     8 (fixed)
   814                           ; jumptable            260     6 (fixed)
   815                           ;	Chosen strategy is simple_byte
   816  0E63  0823               	movf	(_SEL_G+1)^(0+128),w
   817  0E64  3A00               	xorlw	0	; case 0
   818  0E65  1903               	skipnz
   819  0E66  2E68               	goto	l2918
   820  0E67  2E73               	goto	l2766
   821  0E68                     l2918:
   822                           
   823                           ; Switch size 1, requested type "simple"
   824                           ; Number of cases is 3, Range of values is 0 to 2
   825                           ; switch strategies available:
   826                           ; Name         Instructions Cycles
   827                           ; simple_byte           10     6 (average)
   828                           ; direct_byte           17     8 (fixed)
   829                           ; jumptable            260     6 (fixed)
   830                           ;	Chosen strategy is simple_byte
   831  0E68  0822               	movf	_SEL_G^(0+128),w
   832  0E69  3A00               	xorlw	0	; case 0
   833  0E6A  1903               	skipnz
   834  0E6B  2DCA               	goto	l2750
   835  0E6C  3A01               	xorlw	1	; case 1
   836  0E6D  1903               	skipnz
   837  0E6E  2DFD               	goto	l2754
   838  0E6F  3A03               	xorlw	3	; case 2
   839  0E70  1903               	skipnz
   840  0E71  2E31               	goto	l2758
   841  0E72  2E73               	goto	l2766
   842  0E73                     l2766:
   843                           
   844                           ;main.c: 123:         RB0_FLAG = RB0;
   845  0E73  1003               	clrc
   846  0E74  1283               	bcf	3,5	;RP0=0, select bank0
   847  0E75  1806               	btfsc	6,0	;volatile
   848  0E76  1403               	setc
   849  0E77  3000               	movlw	0
   850  0E78  1803               	skipnc
   851  0E79  3001               	movlw	1
   852  0E7A  1683               	bsf	3,5	;RP0=1, select bank1
   853  0E7B  1303               	bcf	3,6	;RP1=0, select bank1
   854  0E7C  00A9               	movwf	??_main^(0+128)
   855  0E7D  01AA               	clrf	(??_main^(0+128)+1)
   856  0E7E  0829               	movf	??_main^(0+128),w
   857  0E7F  00AD               	movwf	_RB0_FLAG^(0+128)
   858  0E80  082A               	movf	(??_main+1)^(0+128),w
   859  0E81  00AE               	movwf	(_RB0_FLAG+1)^(0+128)
   860  0E82  2E83               	goto	l2768
   861  0E83                     l149:	
   862                           ;main.c: 124:         }
   863                           
   864  0E83                     l2768:
   865                           
   866                           ;main.c: 96:         while(RB6 == 1 && RB7 ==1){
   867  0E83  1283               	bcf	3,5	;RP0=0, select bank0
   868  0E84  1303               	bcf	3,6	;RP1=0, select bank0
   869  0E85  1F06               	btfss	6,6	;volatile
   870  0E86  2E88               	goto	u3301
   871  0E87  2E89               	goto	u3300
   872  0E88                     u3301:
   873  0E88  2F30               	goto	l2794
   874  0E89                     u3300:
   875  0E89                     l2770:
   876  0E89  1B86               	btfsc	6,7	;volatile
   877  0E8A  2E8C               	goto	u3311
   878  0E8B  2E8D               	goto	u3310
   879  0E8C                     u3311:
   880  0E8C  2DA8               	goto	l2740
   881  0E8D                     u3310:
   882  0E8D  2F30               	goto	l2794
   883  0E8E                     l2772:
   884                           
   885                           ;main.c: 127:             PORTE = 0X02;
   886  0E8E  3002               	movlw	2
   887  0E8F  0089               	movwf	9	;volatile
   888  0E90                     l2774:
   889                           
   890                           ;main.c: 129:             if (RB4 == 0 && RB5 == 1){
   891  0E90  1A06               	btfsc	6,4	;volatile
   892  0E91  2E93               	goto	u3321
   893  0E92  2E94               	goto	u3320
   894  0E93                     u3321:
   895  0E93  2EC0               	goto	l2780
   896  0E94                     u3320:
   897  0E94                     l2776:
   898  0E94  1E86               	btfss	6,5	;volatile
   899  0E95  2E97               	goto	u3331
   900  0E96  2E98               	goto	u3330
   901  0E97                     u3331:
   902  0E97  2EC0               	goto	l2780
   903  0E98                     u3330:
   904  0E98                     l2778:
   905                           
   906                           ;main.c: 130:                 POT0 = EEPROM_R(0);
   907  0E98  3000               	movlw	0
   908  0E99  00A0               	movwf	EEPROM_R@add
   909  0E9A  00A1               	movwf	EEPROM_R@add+1
   910  0E9B  120A  158A  239F  120A  158A  	fcall	_EEPROM_R
   911  0EA0  1283               	bcf	3,5	;RP0=0, select bank0
   912  0EA1  1303               	bcf	3,6	;RP1=0, select bank0
   913  0EA2  0821               	movf	?_EEPROM_R+1,w
   914  0EA3  00F6               	movwf	_POT0+1
   915  0EA4  0820               	movf	?_EEPROM_R,w
   916  0EA5  00F5               	movwf	_POT0
   917                           
   918                           ;main.c: 131:                 CCPR1L = EEPROM_R(1);
   919  0EA6  3001               	movlw	1
   920  0EA7  00A0               	movwf	EEPROM_R@add
   921  0EA8  3000               	movlw	0
   922  0EA9  00A1               	movwf	EEPROM_R@add+1
   923  0EAA  120A  158A  239F  120A  158A  	fcall	_EEPROM_R
   924  0EAF  1283               	bcf	3,5	;RP0=0, select bank0
   925  0EB0  1303               	bcf	3,6	;RP1=0, select bank0
   926  0EB1  0820               	movf	?_EEPROM_R,w
   927  0EB2  0095               	movwf	21	;volatile
   928                           
   929                           ;main.c: 132:                 CCPR2L = EEPROM_R(2);
   930  0EB3  3002               	movlw	2
   931  0EB4  00A0               	movwf	EEPROM_R@add
   932  0EB5  3000               	movlw	0
   933  0EB6  00A1               	movwf	EEPROM_R@add+1
   934  0EB7  120A  158A  239F  120A  158A  	fcall	_EEPROM_R
   935  0EBC  1283               	bcf	3,5	;RP0=0, select bank0
   936  0EBD  1303               	bcf	3,6	;RP1=0, select bank0
   937  0EBE  0820               	movf	?_EEPROM_R,w
   938  0EBF  009B               	movwf	27	;volatile
   939  0EC0                     l2780:
   940                           
   941                           ;main.c: 134:             if (RB4 == 1 && RB5 == 0){
   942  0EC0  1E06               	btfss	6,4	;volatile
   943  0EC1  2EC3               	goto	u3341
   944  0EC2  2EC4               	goto	u3340
   945  0EC3                     u3341:
   946  0EC3  2EF1               	goto	l2786
   947  0EC4                     u3340:
   948  0EC4                     l2782:
   949  0EC4  1A86               	btfsc	6,5	;volatile
   950  0EC5  2EC7               	goto	u3351
   951  0EC6  2EC8               	goto	u3350
   952  0EC7                     u3351:
   953  0EC7  2EF1               	goto	l2786
   954  0EC8                     u3350:
   955  0EC8                     l2784:
   956                           
   957                           ;main.c: 135:                 POT0 = EEPROM_R(3);
   958  0EC8  3003               	movlw	3
   959  0EC9  00A0               	movwf	EEPROM_R@add
   960  0ECA  3000               	movlw	0
   961  0ECB  00A1               	movwf	EEPROM_R@add+1
   962  0ECC  120A  158A  239F  120A  158A  	fcall	_EEPROM_R
   963  0ED1  1283               	bcf	3,5	;RP0=0, select bank0
   964  0ED2  1303               	bcf	3,6	;RP1=0, select bank0
   965  0ED3  0821               	movf	?_EEPROM_R+1,w
   966  0ED4  00F6               	movwf	_POT0+1
   967  0ED5  0820               	movf	?_EEPROM_R,w
   968  0ED6  00F5               	movwf	_POT0
   969                           
   970                           ;main.c: 136:                 CCPR1L = EEPROM_R(4);
   971  0ED7  3004               	movlw	4
   972  0ED8  00A0               	movwf	EEPROM_R@add
   973  0ED9  3000               	movlw	0
   974  0EDA  00A1               	movwf	EEPROM_R@add+1
   975  0EDB  120A  158A  239F  120A  158A  	fcall	_EEPROM_R
   976  0EE0  1283               	bcf	3,5	;RP0=0, select bank0
   977  0EE1  1303               	bcf	3,6	;RP1=0, select bank0
   978  0EE2  0820               	movf	?_EEPROM_R,w
   979  0EE3  0095               	movwf	21	;volatile
   980                           
   981                           ;main.c: 137:                 CCPR2L = EEPROM_R(5);
   982  0EE4  3005               	movlw	5
   983  0EE5  00A0               	movwf	EEPROM_R@add
   984  0EE6  3000               	movlw	0
   985  0EE7  00A1               	movwf	EEPROM_R@add+1
   986  0EE8  120A  158A  239F  120A  158A  	fcall	_EEPROM_R
   987  0EED  1283               	bcf	3,5	;RP0=0, select bank0
   988  0EEE  1303               	bcf	3,6	;RP1=0, select bank0
   989  0EEF  0820               	movf	?_EEPROM_R,w
   990  0EF0  009B               	movwf	27	;volatile
   991  0EF1                     l2786:
   992                           
   993                           ;main.c: 139:             if (RB4 == 0 && RB5 == 0){
   994  0EF1  1A06               	btfsc	6,4	;volatile
   995  0EF2  2EF4               	goto	u3361
   996  0EF3  2EF5               	goto	u3360
   997  0EF4                     u3361:
   998  0EF4  2F22               	goto	l2792
   999  0EF5                     u3360:
  1000  0EF5                     l2788:
  1001  0EF5  1A86               	btfsc	6,5	;volatile
  1002  0EF6  2EF8               	goto	u3371
  1003  0EF7  2EF9               	goto	u3370
  1004  0EF8                     u3371:
  1005  0EF8  2F22               	goto	l2792
  1006  0EF9                     u3370:
  1007  0EF9                     l2790:
  1008                           
  1009                           ;main.c: 140:                 POT0 = EEPROM_R(6);
  1010  0EF9  3006               	movlw	6
  1011  0EFA  00A0               	movwf	EEPROM_R@add
  1012  0EFB  3000               	movlw	0
  1013  0EFC  00A1               	movwf	EEPROM_R@add+1
  1014  0EFD  120A  158A  239F  120A  158A  	fcall	_EEPROM_R
  1015  0F02  1283               	bcf	3,5	;RP0=0, select bank0
  1016  0F03  1303               	bcf	3,6	;RP1=0, select bank0
  1017  0F04  0821               	movf	?_EEPROM_R+1,w
  1018  0F05  00F6               	movwf	_POT0+1
  1019  0F06  0820               	movf	?_EEPROM_R,w
  1020  0F07  00F5               	movwf	_POT0
  1021                           
  1022                           ;main.c: 141:                 CCPR1L = EEPROM_R(7);
  1023  0F08  3007               	movlw	7
  1024  0F09  00A0               	movwf	EEPROM_R@add
  1025  0F0A  3000               	movlw	0
  1026  0F0B  00A1               	movwf	EEPROM_R@add+1
  1027  0F0C  120A  158A  239F  120A  158A  	fcall	_EEPROM_R
  1028  0F11  1283               	bcf	3,5	;RP0=0, select bank0
  1029  0F12  1303               	bcf	3,6	;RP1=0, select bank0
  1030  0F13  0820               	movf	?_EEPROM_R,w
  1031  0F14  0095               	movwf	21	;volatile
  1032                           
  1033                           ;main.c: 142:                 CCPR2L = EEPROM_R(8);
  1034  0F15  3008               	movlw	8
  1035  0F16  00A0               	movwf	EEPROM_R@add
  1036  0F17  3000               	movlw	0
  1037  0F18  00A1               	movwf	EEPROM_R@add+1
  1038  0F19  120A  158A  239F  120A  158A  	fcall	_EEPROM_R
  1039  0F1E  1283               	bcf	3,5	;RP0=0, select bank0
  1040  0F1F  1303               	bcf	3,6	;RP1=0, select bank0
  1041  0F20  0820               	movf	?_EEPROM_R,w
  1042  0F21  009B               	movwf	27	;volatile
  1043  0F22                     l2792:
  1044                           
  1045                           ;main.c: 144:             RB1_FLAG = RB1;
  1046  0F22  1003               	clrc
  1047  0F23  1886               	btfsc	6,1	;volatile
  1048  0F24  1403               	setc
  1049  0F25  3000               	movlw	0
  1050  0F26  1803               	skipnc
  1051  0F27  3001               	movlw	1
  1052  0F28  1683               	bsf	3,5	;RP0=1, select bank1
  1053  0F29  1303               	bcf	3,6	;RP1=0, select bank1
  1054  0F2A  00A9               	movwf	??_main^(0+128)
  1055  0F2B  01AA               	clrf	(??_main^(0+128)+1)
  1056  0F2C  0829               	movf	??_main^(0+128),w
  1057  0F2D  00AB               	movwf	_RB1_FLAG^(0+128)
  1058  0F2E  082A               	movf	(??_main+1)^(0+128),w
  1059  0F2F  00AC               	movwf	(_RB1_FLAG+1)^(0+128)
  1060  0F30                     l2794:
  1061                           
  1062                           ;main.c: 126:         while (RB6 == 0 && RB7 == 1){
  1063  0F30  1283               	bcf	3,5	;RP0=0, select bank0
  1064  0F31  1B06               	btfsc	6,6	;volatile
  1065  0F32  2F34               	goto	u3381
  1066  0F33  2F35               	goto	u3380
  1067  0F34                     u3381:
  1068  0F34  2FF2               	goto	l168
  1069  0F35                     u3380:
  1070  0F35                     l2796:
  1071  0F35  1B86               	btfsc	6,7	;volatile
  1072  0F36  2F38               	goto	u3391
  1073  0F37  2F39               	goto	u3390
  1074  0F38                     u3391:
  1075  0F38  2E8E               	goto	l2772
  1076  0F39                     u3390:
  1077  0F39  2FF2               	goto	l168
  1078  0F3A                     l2798:
  1079                           
  1080                           ;main.c: 148:             PORTE = 0X04;
  1081  0F3A  3004               	movlw	4
  1082  0F3B  0089               	movwf	9	;volatile
  1083                           
  1084                           ;main.c: 150:             switch(SEL){
  1085  0F3C  2FE0               	goto	l2822
  1086  0F3D                     l2800:
  1087                           
  1088                           ;main.c: 152:                     PORTD = 0X01;
  1089  0F3D  3001               	movlw	1
  1090  0F3E  1283               	bcf	3,5	;RP0=0, select bank0
  1091  0F3F  1303               	bcf	3,6	;RP1=0, select bank0
  1092  0F40  0088               	movwf	8	;volatile
  1093  0F41                     l2802:
  1094                           
  1095                           ;main.c: 153:                     POT0 =(1.1*(DATO-48)+5);
  1096  0F41  0877               	movf	_DATO,w
  1097  0F42  3ED0               	addlw	208
  1098  0F43  00A0               	movwf	___xxtofl@val
  1099  0F44  0878               	movf	_DATO+1,w
  1100  0F45  1803               	skipnc
  1101  0F46  3E01               	addlw	1
  1102  0F47  3EFF               	addlw	255
  1103  0F48  00A1               	movwf	___xxtofl@val+1
  1104  0F49  01A2               	clrf	___xxtofl@val+2
  1105  0F4A  1BA1               	btfsc	___xxtofl@val+1,7
  1106  0F4B  03A2               	decf	___xxtofl@val+2,f
  1107  0F4C  0822               	movf	___xxtofl@val+2,w
  1108  0F4D  00A3               	movwf	___xxtofl@val+3
  1109  0F4E  3001               	movlw	1
  1110  0F4F  120A  158A  24E6  120A  158A  	fcall	___xxtofl
  1111  0F54  1283               	bcf	3,5	;RP0=0, select bank0
  1112  0F55  1303               	bcf	3,6	;RP1=0, select bank0
  1113  0F56  0823               	movf	?___xxtofl+3,w
  1114  0F57  00B5               	movwf	___flmul@a+3
  1115  0F58  0822               	movf	?___xxtofl+2,w
  1116  0F59  00B4               	movwf	___flmul@a+2
  1117  0F5A  0821               	movf	?___xxtofl+1,w
  1118  0F5B  00B3               	movwf	___flmul@a+1
  1119  0F5C  0820               	movf	?___xxtofl,w
  1120  0F5D  00B2               	movwf	___flmul@a
  1121  0F5E  303F               	movlw	63
  1122  0F5F  00B1               	movwf	___flmul@b+3
  1123  0F60  308C               	movlw	140
  1124  0F61  00B0               	movwf	___flmul@b+2
  1125  0F62  30CC               	movlw	204
  1126  0F63  00AF               	movwf	___flmul@b+1
  1127  0F64  30CD               	movlw	205
  1128  0F65  00AE               	movwf	___flmul@b
  1129  0F66  120A  118A  2043  120A  158A  	fcall	___flmul
  1130  0F6B  1283               	bcf	3,5	;RP0=0, select bank0
  1131  0F6C  1303               	bcf	3,6	;RP1=0, select bank0
  1132  0F6D  0831               	movf	?___flmul+3,w
  1133  0F6E  00CF               	movwf	___fladd@a+3
  1134  0F6F  0830               	movf	?___flmul+2,w
  1135  0F70  00CE               	movwf	___fladd@a+2
  1136  0F71  082F               	movf	?___flmul+1,w
  1137  0F72  00CD               	movwf	___fladd@a+1
  1138  0F73  082E               	movf	?___flmul,w
  1139  0F74  00CC               	movwf	___fladd@a
  1140  0F75  3040               	movlw	64
  1141  0F76  00CB               	movwf	___fladd@b+3
  1142  0F77  30A0               	movlw	160
  1143  0F78  00CA               	movwf	___fladd@b+2
  1144  0F79  3000               	movlw	0
  1145  0F7A  00C9               	movwf	___fladd@b+1
  1146  0F7B  3000               	movlw	0
  1147  0F7C  00C8               	movwf	___fladd@b
  1148  0F7D  120A  118A  23A4  120A  158A  	fcall	___fladd
  1149  0F82  1283               	bcf	3,5	;RP0=0, select bank0
  1150  0F83  1303               	bcf	3,6	;RP1=0, select bank0
  1151  0F84  084B               	movf	?___fladd+3,w
  1152  0F85  00DF               	movwf	___fltol@f1+3
  1153  0F86  084A               	movf	?___fladd+2,w
  1154  0F87  00DE               	movwf	___fltol@f1+2
  1155  0F88  0849               	movf	?___fladd+1,w
  1156  0F89  00DD               	movwf	___fltol@f1+1
  1157  0F8A  0848               	movf	?___fladd,w
  1158  0F8B  00DC               	movwf	___fltol@f1
  1159  0F8C  120A  118A  2773  120A  158A  	fcall	___fltol
  1160  0F91  1283               	bcf	3,5	;RP0=0, select bank0
  1161  0F92  1303               	bcf	3,6	;RP1=0, select bank0
  1162  0F93  085D               	movf	?___fltol+1,w
  1163  0F94  00F6               	movwf	_POT0+1
  1164  0F95  085C               	movf	?___fltol,w
  1165  0F96  00F5               	movwf	_POT0
  1166                           
  1167                           ;main.c: 154:                     break;
  1168  0F97  2FF2               	goto	l168
  1169  0F98                     l2804:
  1170                           
  1171                           ;main.c: 156:                     PORTD = 0X02;
  1172  0F98  3002               	movlw	2
  1173  0F99  1283               	bcf	3,5	;RP0=0, select bank0
  1174  0F9A  1303               	bcf	3,6	;RP1=0, select bank0
  1175  0F9B  0088               	movwf	8	;volatile
  1176  0F9C                     l2806:
  1177                           
  1178                           ;main.c: 157:                     if(DATO>= 31 && DATO<= 120){
  1179  0F9C  0878               	movf	_DATO+1,w
  1180  0F9D  3A80               	xorlw	128
  1181  0F9E  00FF               	movwf	btemp+1
  1182  0F9F  3080               	movlw	128
  1183  0FA0  027F               	subwf	btemp+1,w
  1184  0FA1  1D03               	skipz
  1185  0FA2  2FA5               	goto	u3405
  1186  0FA3  301F               	movlw	31
  1187  0FA4  0277               	subwf	_DATO,w
  1188  0FA5                     u3405:
  1189  0FA5  1C03               	skipc
  1190  0FA6  2FA8               	goto	u3401
  1191  0FA7  2FA9               	goto	u3400
  1192  0FA8                     u3401:
  1193  0FA8  2FF2               	goto	l168
  1194  0FA9                     u3400:
  1195  0FA9                     l2808:
  1196  0FA9  0878               	movf	_DATO+1,w
  1197  0FAA  3A80               	xorlw	128
  1198  0FAB  00FF               	movwf	btemp+1
  1199  0FAC  3080               	movlw	128
  1200  0FAD  027F               	subwf	btemp+1,w
  1201  0FAE  1D03               	skipz
  1202  0FAF  2FB2               	goto	u3415
  1203  0FB0  3079               	movlw	121
  1204  0FB1  0277               	subwf	_DATO,w
  1205  0FB2                     u3415:
  1206  0FB2  1803               	skipnc
  1207  0FB3  2FB5               	goto	u3411
  1208  0FB4  2FB6               	goto	u3410
  1209  0FB5                     u3411:
  1210  0FB5  2FF2               	goto	l168
  1211  0FB6                     u3410:
  1212  0FB6                     l2810:
  1213                           
  1214                           ;main.c: 158:                         CCPR2L = DATO-30;}
  1215  0FB6  0877               	movf	_DATO,w
  1216  0FB7  3EE2               	addlw	226
  1217  0FB8  1283               	bcf	3,5	;RP0=0, select bank0
  1218  0FB9  1303               	bcf	3,6	;RP1=0, select bank0
  1219  0FBA  009B               	movwf	27	;volatile
  1220  0FBB  2FF2               	goto	l168
  1221  0FBC                     l2812:
  1222                           
  1223                           ;main.c: 161:                     PORTD = 0X04;
  1224  0FBC  3004               	movlw	4
  1225  0FBD  1283               	bcf	3,5	;RP0=0, select bank0
  1226  0FBE  1303               	bcf	3,6	;RP1=0, select bank0
  1227  0FBF  0088               	movwf	8	;volatile
  1228  0FC0                     l2814:
  1229                           
  1230                           ;main.c: 162:                     if(DATO>= 31 && DATO<= 150){
  1231  0FC0  0878               	movf	_DATO+1,w
  1232  0FC1  3A80               	xorlw	128
  1233  0FC2  00FF               	movwf	btemp+1
  1234  0FC3  3080               	movlw	128
  1235  0FC4  027F               	subwf	btemp+1,w
  1236  0FC5  1D03               	skipz
  1237  0FC6  2FC9               	goto	u3425
  1238  0FC7  301F               	movlw	31
  1239  0FC8  0277               	subwf	_DATO,w
  1240  0FC9                     u3425:
  1241  0FC9  1C03               	skipc
  1242  0FCA  2FCC               	goto	u3421
  1243  0FCB  2FCD               	goto	u3420
  1244  0FCC                     u3421:
  1245  0FCC  2FF2               	goto	l168
  1246  0FCD                     u3420:
  1247  0FCD                     l2816:
  1248  0FCD  0878               	movf	_DATO+1,w
  1249  0FCE  3A80               	xorlw	128
  1250  0FCF  00FF               	movwf	btemp+1
  1251  0FD0  3080               	movlw	128
  1252  0FD1  027F               	subwf	btemp+1,w
  1253  0FD2  1D03               	skipz
  1254  0FD3  2FD6               	goto	u3435
  1255  0FD4  3097               	movlw	151
  1256  0FD5  0277               	subwf	_DATO,w
  1257  0FD6                     u3435:
  1258  0FD6  1803               	skipnc
  1259  0FD7  2FD9               	goto	u3431
  1260  0FD8  2FDA               	goto	u3430
  1261  0FD9                     u3431:
  1262  0FD9  2FF2               	goto	l168
  1263  0FDA                     u3430:
  1264  0FDA                     l2818:
  1265                           
  1266                           ;main.c: 163:                         CCPR1L = DATO-30;}
  1267  0FDA  0877               	movf	_DATO,w
  1268  0FDB  3EE2               	addlw	226
  1269  0FDC  1283               	bcf	3,5	;RP0=0, select bank0
  1270  0FDD  1303               	bcf	3,6	;RP1=0, select bank0
  1271  0FDE  0095               	movwf	21	;volatile
  1272  0FDF  2FF2               	goto	l168
  1273  0FE0                     l2822:
  1274                           
  1275                           ; Switch on 2 bytes has been partitioned into a top level switch of size 1, and 1 sub-sw
      +                          itches
  1276                           ; Switch size 1, requested type "simple"
  1277                           ; Number of cases is 1, Range of values is 0 to 0
  1278                           ; switch strategies available:
  1279                           ; Name         Instructions Cycles
  1280                           ; simple_byte            4     3 (average)
  1281                           ; direct_byte           11     8 (fixed)
  1282                           ; jumptable            260     6 (fixed)
  1283                           ;	Chosen strategy is simple_byte
  1284  0FE0  1683               	bsf	3,5	;RP0=1, select bank1
  1285  0FE1  1303               	bcf	3,6	;RP1=0, select bank1
  1286  0FE2  0821               	movf	(_SEL+1)^(0+128),w
  1287  0FE3  3A00               	xorlw	0	; case 0
  1288  0FE4  1903               	skipnz
  1289  0FE5  2FE7               	goto	l2920
  1290  0FE6  2FF2               	goto	l168
  1291  0FE7                     l2920:
  1292                           
  1293                           ; Switch size 1, requested type "simple"
  1294                           ; Number of cases is 3, Range of values is 97 to 99
  1295                           ; switch strategies available:
  1296                           ; Name         Instructions Cycles
  1297                           ; simple_byte           10     6 (average)
  1298                           ; direct_byte           20    11 (fixed)
  1299                           ; jumptable            263     9 (fixed)
  1300                           ;	Chosen strategy is simple_byte
  1301  0FE7  0820               	movf	_SEL^(0+128),w
  1302  0FE8  3A61               	xorlw	97	; case 97
  1303  0FE9  1903               	skipnz
  1304  0FEA  2F3D               	goto	l2800
  1305  0FEB  3A03               	xorlw	3	; case 98
  1306  0FEC  1903               	skipnz
  1307  0FED  2F98               	goto	l2804
  1308  0FEE  3A01               	xorlw	1	; case 99
  1309  0FEF  1903               	skipnz
  1310  0FF0  2FBC               	goto	l2812
  1311  0FF1  2FF2               	goto	l168
  1312  0FF2                     l168:	
  1313                           ;main.c: 166:         }
  1314                           
  1315                           
  1316                           ;main.c: 147:         while (RB6 == 1 && RB7 == 0){
  1317  0FF2  1283               	bcf	3,5	;RP0=0, select bank0
  1318  0FF3  1303               	bcf	3,6	;RP1=0, select bank0
  1319  0FF4  1F06               	btfss	6,6	;volatile
  1320  0FF5  2FF7               	goto	u3441
  1321  0FF6  2FF8               	goto	u3440
  1322  0FF7                     u3441:
  1323  0FF7  2E83               	goto	l149
  1324  0FF8                     u3440:
  1325  0FF8                     l2824:
  1326  0FF8  1F86               	btfss	6,7	;volatile
  1327  0FF9  2FFB               	goto	u3451
  1328  0FFA  2FFC               	goto	u3450
  1329  0FFB                     u3451:
  1330  0FFB  2F3A               	goto	l2798
  1331  0FFC                     u3450:
  1332  0FFC  2E83               	goto	l2768
  1333  0FFD  120A  118A  2810   	ljmp	start
  1334  1000                     __end_of_main:
  1335                           
  1336                           	psect	text1
  1337  0C6E                     __ptext1:	
  1338 ;; *************** function _setup *****************
  1339 ;; Defined at:
  1340 ;;		line 170 in file "main.c"
  1341 ;; Parameters:    Size  Location     Type
  1342 ;;		None
  1343 ;; Auto vars:     Size  Location     Type
  1344 ;;		None
  1345 ;; Return value:  Size  Location     Type
  1346 ;;                  1    wreg      void 
  1347 ;; Registers used:
  1348 ;;		wreg, status,2, status,0
  1349 ;; Tracked objects:
  1350 ;;		On entry : 0/0
  1351 ;;		On exit  : 0/0
  1352 ;;		Unchanged: 0/0
  1353 ;; Data sizes:     COMMON   BANK0   BANK1   BANK3   BANK2
  1354 ;;      Params:         0       0       0       0       0
  1355 ;;      Locals:         0       0       0       0       0
  1356 ;;      Temps:          0       1       0       0       0
  1357 ;;      Totals:         0       1       0       0       0
  1358 ;;Total ram usage:        1 bytes
  1359 ;; Hardware stack levels used:    1
  1360 ;; Hardware stack levels required when called:    1
  1361 ;; This function calls:
  1362 ;;		Nothing
  1363 ;; This function is called by:
  1364 ;;		_main
  1365 ;; This function uses a non-reentrant model
  1366 ;;
  1367                           
  1368                           
  1369                           ;psect for function _setup
  1370  0C6E                     _setup:
  1371  0C6E                     l2580:	
  1372                           ;incstack = 0
  1373                           ; Regs used in _setup: [wreg+status,2+status,0]
  1374                           
  1375                           
  1376                           ;main.c: 172:     ANSEL = 0B00000111;
  1377  0C6E  3007               	movlw	7
  1378  0C6F  1683               	bsf	3,5	;RP0=1, select bank3
  1379  0C70  1703               	bsf	3,6	;RP1=1, select bank3
  1380  0C71  0088               	movwf	8	;volatile
  1381  0C72                     l2582:
  1382                           
  1383                           ;main.c: 173:     ANSELH = 0X00;
  1384  0C72  0189               	clrf	9	;volatile
  1385  0C73                     l2584:
  1386                           
  1387                           ;main.c: 175:     TRISA = 0B00000111;
  1388  0C73  3007               	movlw	7
  1389  0C74  1683               	bsf	3,5	;RP0=1, select bank1
  1390  0C75  1303               	bcf	3,6	;RP1=0, select bank1
  1391  0C76  0085               	movwf	5	;volatile
  1392  0C77                     l2586:
  1393                           
  1394                           ;main.c: 176:     TRISC = 0B10000000;
  1395  0C77  3080               	movlw	128
  1396  0C78  0087               	movwf	7	;volatile
  1397  0C79                     l2588:
  1398                           
  1399                           ;main.c: 177:     TRISD = 0X00;
  1400  0C79  0188               	clrf	8	;volatile
  1401  0C7A                     l2590:
  1402                           
  1403                           ;main.c: 178:     TRISE = 0X00;
  1404  0C7A  0189               	clrf	9	;volatile
  1405  0C7B                     l2592:
  1406                           
  1407                           ;main.c: 179:     TRISB = 0B11110011;
  1408  0C7B  30F3               	movlw	243
  1409  0C7C  0086               	movwf	6	;volatile
  1410                           
  1411                           ;main.c: 181:     PORTA = 0X00;
  1412  0C7D  1283               	bcf	3,5	;RP0=0, select bank0
  1413  0C7E  1303               	bcf	3,6	;RP1=0, select bank0
  1414  0C7F  0185               	clrf	5	;volatile
  1415                           
  1416                           ;main.c: 182:     PORTB = 0X00;
  1417  0C80  0186               	clrf	6	;volatile
  1418                           
  1419                           ;main.c: 183:     PORTC = 0X00;
  1420  0C81  0187               	clrf	7	;volatile
  1421                           
  1422                           ;main.c: 184:     PORTD = 0X00;
  1423  0C82  0188               	clrf	8	;volatile
  1424                           
  1425                           ;main.c: 185:     PORTE = 0X00;
  1426  0C83  0189               	clrf	9	;volatile
  1427  0C84                     l2594:
  1428                           
  1429                           ;main.c: 188:     OSCCONbits.IRCF2 = 1;
  1430  0C84  1683               	bsf	3,5	;RP0=1, select bank1
  1431  0C85  1303               	bcf	3,6	;RP1=0, select bank1
  1432  0C86  170F               	bsf	15,6	;volatile
  1433  0C87                     l2596:
  1434                           
  1435                           ;main.c: 189:     OSCCONbits.IRCF1 = 1;
  1436  0C87  168F               	bsf	15,5	;volatile
  1437  0C88                     l2598:
  1438                           
  1439                           ;main.c: 190:     OSCCONbits.IRCF0 = 0;
  1440  0C88  120F               	bcf	15,4	;volatile
  1441  0C89                     l2600:
  1442                           
  1443                           ;main.c: 191:     OSCCONbits.SCS = 1;
  1444  0C89  140F               	bsf	15,0	;volatile
  1445  0C8A                     l2602:
  1446                           
  1447                           ;main.c: 194:     OPTION_REG = 0B01000000;
  1448  0C8A  3040               	movlw	64
  1449  0C8B  0081               	movwf	1	;volatile
  1450  0C8C                     l2604:
  1451                           
  1452                           ;main.c: 195:     TMR0 = 206;
  1453  0C8C  30CE               	movlw	206
  1454  0C8D  1283               	bcf	3,5	;RP0=0, select bank0
  1455  0C8E  1303               	bcf	3,6	;RP1=0, select bank0
  1456  0C8F  0081               	movwf	1	;volatile
  1457  0C90                     l2606:
  1458                           
  1459                           ;main.c: 197:     WPUB = 0B11110011;
  1460  0C90  30F3               	movlw	243
  1461  0C91  1683               	bsf	3,5	;RP0=1, select bank1
  1462  0C92  1303               	bcf	3,6	;RP1=0, select bank1
  1463  0C93  0095               	movwf	21	;volatile
  1464  0C94                     l2608:
  1465                           
  1466                           ;main.c: 198:     IOCB = 0B11110011;
  1467  0C94  30F3               	movlw	243
  1468  0C95  0096               	movwf	22	;volatile
  1469  0C96                     l2610:
  1470                           
  1471                           ;main.c: 200:     T2CON = 0B11111111;
  1472  0C96  30FF               	movlw	255
  1473  0C97  1283               	bcf	3,5	;RP0=0, select bank0
  1474  0C98  1303               	bcf	3,6	;RP1=0, select bank0
  1475  0C99  0092               	movwf	18	;volatile
  1476  0C9A                     l2612:
  1477                           
  1478                           ;main.c: 201:     PR2 = 187;
  1479  0C9A  30BB               	movlw	187
  1480  0C9B  1683               	bsf	3,5	;RP0=1, select bank1
  1481  0C9C  1303               	bcf	3,6	;RP1=0, select bank1
  1482  0C9D  0092               	movwf	18	;volatile
  1483  0C9E                     l2614:
  1484                           
  1485                           ;main.c: 203:     CCP1CON = 0B00001100;
  1486  0C9E  300C               	movlw	12
  1487  0C9F  1283               	bcf	3,5	;RP0=0, select bank0
  1488  0CA0  1303               	bcf	3,6	;RP1=0, select bank0
  1489  0CA1  0097               	movwf	23	;volatile
  1490  0CA2                     l2616:
  1491                           
  1492                           ;main.c: 205:     CCP2CONbits.CCP2M0 = 1;
  1493  0CA2  141D               	bsf	29,0	;volatile
  1494  0CA3                     l2618:
  1495                           
  1496                           ;main.c: 206:     CCP2CONbits.CCP2M1 = 1;
  1497  0CA3  149D               	bsf	29,1	;volatile
  1498  0CA4                     l2620:
  1499                           
  1500                           ;main.c: 207:     CCP2CONbits.CCP2M2 = 1;
  1501  0CA4  151D               	bsf	29,2	;volatile
  1502  0CA5                     l2622:
  1503                           
  1504                           ;main.c: 208:     CCP2CONbits.CCP2M3 = 1;
  1505  0CA5  159D               	bsf	29,3	;volatile
  1506  0CA6                     l2624:
  1507                           
  1508                           ;main.c: 209:     CCP2CONbits.DC2B0 = 0;
  1509  0CA6  121D               	bcf	29,4	;volatile
  1510  0CA7                     l2626:
  1511                           
  1512                           ;main.c: 210:     CCP2CONbits.DC2B1 = 0;
  1513  0CA7  129D               	bcf	29,5	;volatile
  1514  0CA8                     l2628:
  1515                           
  1516                           ;main.c: 212:     ADCON0bits.ADON = 0X01;
  1517  0CA8  141F               	bsf	31,0	;volatile
  1518  0CA9                     l2630:
  1519                           
  1520                           ;main.c: 213:     ADCON0bits.CHS = 0;
  1521  0CA9  30C3               	movlw	-61
  1522  0CAA  059F               	andwf	31,f	;volatile
  1523  0CAB                     l2632:
  1524                           
  1525                           ;main.c: 214:     _delay((unsigned long)((100)*(4000000/4000000.0)));
  1526  0CAB  3020               	movlw	32
  1527  0CAC  1283               	bcf	3,5	;RP0=0, select bank0
  1528  0CAD  1303               	bcf	3,6	;RP1=0, select bank0
  1529  0CAE  00A0               	movwf	??_setup
  1530  0CAF                     u3467:
  1531  0CAF  0BA0               	decfsz	??_setup,f
  1532  0CB0  2CAF               	goto	u3467
  1533  0CB1  0000               	nop
  1534  0CB2                     l2634:
  1535                           
  1536                           ;main.c: 215:     ADCON0bits.ADCS = 0X01;
  1537  0CB2  1283               	bcf	3,5	;RP0=0, select bank0
  1538  0CB3  1303               	bcf	3,6	;RP1=0, select bank0
  1539  0CB4  081F               	movf	31,w	;volatile
  1540  0CB5  393F               	andlw	-193
  1541  0CB6  3840               	iorlw	64
  1542  0CB7  009F               	movwf	31	;volatile
  1543  0CB8                     l2636:
  1544                           
  1545                           ;main.c: 216:     ADCON1bits.ADFM = 0;
  1546  0CB8  1683               	bsf	3,5	;RP0=1, select bank1
  1547  0CB9  1303               	bcf	3,6	;RP1=0, select bank1
  1548  0CBA  139F               	bcf	31,7	;volatile
  1549  0CBB                     l2638:
  1550                           
  1551                           ;main.c: 217:     ADCON1bits.VCFG0 = 0;
  1552  0CBB  121F               	bcf	31,4	;volatile
  1553  0CBC                     l2640:
  1554                           
  1555                           ;main.c: 218:     ADCON1bits.VCFG1 = 0;
  1556  0CBC  129F               	bcf	31,5	;volatile
  1557  0CBD                     l2642:
  1558                           
  1559                           ;main.c: 220:     INTCONbits.GIE = 1;
  1560  0CBD  178B               	bsf	11,7	;volatile
  1561  0CBE                     l2644:
  1562                           
  1563                           ;main.c: 221:     INTCONbits.T0IE = 1;
  1564  0CBE  168B               	bsf	11,5	;volatile
  1565  0CBF                     l2646:
  1566                           
  1567                           ;main.c: 222:     INTCONbits.T0IF = 0;
  1568  0CBF  110B               	bcf	11,2	;volatile
  1569  0CC0                     l2648:
  1570                           
  1571                           ;main.c: 223:     PIE1bits.ADIE = 1;
  1572  0CC0  170C               	bsf	12,6	;volatile
  1573  0CC1                     l2650:
  1574                           
  1575                           ;main.c: 224:     PIR1bits.ADIF = 0;
  1576  0CC1  1283               	bcf	3,5	;RP0=0, select bank0
  1577  0CC2  1303               	bcf	3,6	;RP1=0, select bank0
  1578  0CC3  130C               	bcf	12,6	;volatile
  1579  0CC4                     l2652:
  1580                           
  1581                           ;main.c: 225:     INTCONbits.RBIE = 0;
  1582  0CC4  118B               	bcf	11,3	;volatile
  1583  0CC5                     l2654:
  1584                           
  1585                           ;main.c: 226:     INTCONbits.RBIF = 0;
  1586  0CC5  100B               	bcf	11,0	;volatile
  1587  0CC6                     l2656:
  1588                           
  1589                           ;main.c: 227:     INTCONbits.PEIE = 1;
  1590  0CC6  170B               	bsf	11,6	;volatile
  1591  0CC7                     l2658:
  1592                           
  1593                           ;main.c: 228:     PIE1bits.RCIE = 1;
  1594  0CC7  1683               	bsf	3,5	;RP0=1, select bank1
  1595  0CC8  1303               	bcf	3,6	;RP1=0, select bank1
  1596  0CC9  168C               	bsf	12,5	;volatile
  1597  0CCA                     l2660:
  1598                           
  1599                           ;main.c: 229:     PIR1bits.RCIF = 0;
  1600  0CCA  1283               	bcf	3,5	;RP0=0, select bank0
  1601  0CCB  1303               	bcf	3,6	;RP1=0, select bank0
  1602  0CCC  128C               	bcf	12,5	;volatile
  1603  0CCD                     l2662:
  1604                           
  1605                           ;main.c: 231:     TXSTAbits.TXEN = 1;
  1606  0CCD  1683               	bsf	3,5	;RP0=1, select bank1
  1607  0CCE  1303               	bcf	3,6	;RP1=0, select bank1
  1608  0CCF  1698               	bsf	24,5	;volatile
  1609  0CD0                     l2664:
  1610                           
  1611                           ;main.c: 232:     TXSTAbits.SYNC = 0;
  1612  0CD0  1218               	bcf	24,4	;volatile
  1613  0CD1                     l2666:
  1614                           
  1615                           ;main.c: 233:     RCSTAbits.SPEN = 1;
  1616  0CD1  1283               	bcf	3,5	;RP0=0, select bank0
  1617  0CD2  1303               	bcf	3,6	;RP1=0, select bank0
  1618  0CD3  1798               	bsf	24,7	;volatile
  1619  0CD4                     l2668:
  1620                           
  1621                           ;main.c: 234:     TXSTAbits.TX9 = 0;
  1622  0CD4  1683               	bsf	3,5	;RP0=1, select bank1
  1623  0CD5  1303               	bcf	3,6	;RP1=0, select bank1
  1624  0CD6  1318               	bcf	24,6	;volatile
  1625  0CD7                     l2670:
  1626                           
  1627                           ;main.c: 236:     RCSTAbits.CREN = 1;
  1628  0CD7  1283               	bcf	3,5	;RP0=0, select bank0
  1629  0CD8  1303               	bcf	3,6	;RP1=0, select bank0
  1630  0CD9  1618               	bsf	24,4	;volatile
  1631  0CDA                     l2672:
  1632                           
  1633                           ;main.c: 237:     RCSTAbits.RX9 = 0;
  1634  0CDA  1318               	bcf	24,6	;volatile
  1635  0CDB                     l2674:
  1636                           
  1637                           ;main.c: 239:     BAUDCTLbits.BRG16 = 0;
  1638  0CDB  1683               	bsf	3,5	;RP0=1, select bank3
  1639  0CDC  1703               	bsf	3,6	;RP1=1, select bank3
  1640  0CDD  1187               	bcf	7,3	;volatile
  1641  0CDE                     l2676:
  1642                           
  1643                           ;main.c: 240:     SPBRG = 25;
  1644  0CDE  3019               	movlw	25
  1645  0CDF  1683               	bsf	3,5	;RP0=1, select bank1
  1646  0CE0  1303               	bcf	3,6	;RP1=0, select bank1
  1647  0CE1  0099               	movwf	25	;volatile
  1648  0CE2                     l2678:
  1649                           
  1650                           ;main.c: 241:     SPBRGH = 1;
  1651  0CE2  3001               	movlw	1
  1652  0CE3  009A               	movwf	26	;volatile
  1653  0CE4                     l2680:
  1654                           
  1655                           ;main.c: 242:     TXSTAbits.BRGH = 1;
  1656  0CE4  1518               	bsf	24,2	;volatile
  1657  0CE5                     l185:
  1658  0CE5  0008               	return
  1659  0CE6                     __end_of_setup:
  1660                           
  1661                           	psect	text2
  1662  0BB9                     __ptext2:	
  1663 ;; *************** function _EEPROM_W *****************
  1664 ;; Defined at:
  1665 ;;		line 275 in file "main.c"
  1666 ;; Parameters:    Size  Location     Type
  1667 ;;  dato            2    0[BANK0 ] unsigned int 
  1668 ;;  add             2    2[BANK0 ] int 
  1669 ;; Auto vars:     Size  Location     Type
  1670 ;;		None
  1671 ;; Return value:  Size  Location     Type
  1672 ;;                  1    wreg      void 
  1673 ;; Registers used:
  1674 ;;		wreg
  1675 ;; Tracked objects:
  1676 ;;		On entry : 0/0
  1677 ;;		On exit  : 0/0
  1678 ;;		Unchanged: 0/0
  1679 ;; Data sizes:     COMMON   BANK0   BANK1   BANK3   BANK2
  1680 ;;      Params:         0       4       0       0       0
  1681 ;;      Locals:         0       0       0       0       0
  1682 ;;      Temps:          0       0       0       0       0
  1683 ;;      Totals:         0       4       0       0       0
  1684 ;;Total ram usage:        4 bytes
  1685 ;; Hardware stack levels used:    1
  1686 ;; Hardware stack levels required when called:    1
  1687 ;; This function calls:
  1688 ;;		Nothing
  1689 ;; This function is called by:
  1690 ;;		_main
  1691 ;; This function uses a non-reentrant model
  1692 ;;
  1693                           
  1694                           
  1695                           ;psect for function _EEPROM_W
  1696  0BB9                     _EEPROM_W:
  1697  0BB9                     l2720:	
  1698                           ;incstack = 0
  1699                           ; Regs used in _EEPROM_W: [wreg]
  1700                           
  1701                           
  1702                           ;main.c: 276:     EEADR = add;
  1703  0BB9  1283               	bcf	3,5	;RP0=0, select bank0
  1704  0BBA  1303               	bcf	3,6	;RP1=0, select bank0
  1705  0BBB  0822               	movf	EEPROM_W@add,w
  1706  0BBC  1283               	bcf	3,5	;RP0=0, select bank2
  1707  0BBD  1703               	bsf	3,6	;RP1=1, select bank2
  1708  0BBE  008D               	movwf	13	;volatile
  1709                           
  1710                           ;main.c: 277:     EEDAT = dato;
  1711  0BBF  1283               	bcf	3,5	;RP0=0, select bank0
  1712  0BC0  1303               	bcf	3,6	;RP1=0, select bank0
  1713  0BC1  0820               	movf	EEPROM_W@dato,w
  1714  0BC2  1283               	bcf	3,5	;RP0=0, select bank2
  1715  0BC3  1703               	bsf	3,6	;RP1=1, select bank2
  1716  0BC4  008C               	movwf	12	;volatile
  1717  0BC5                     l2722:
  1718                           
  1719                           ;main.c: 278:     EECON1bits.EEPGD = 0;
  1720  0BC5  1683               	bsf	3,5	;RP0=1, select bank3
  1721  0BC6  1703               	bsf	3,6	;RP1=1, select bank3
  1722  0BC7  138C               	bcf	12,7	;volsfr
  1723  0BC8                     l2724:
  1724                           
  1725                           ;main.c: 279:     EECON1bits.WREN = 1;
  1726  0BC8  150C               	bsf	12,2	;volsfr
  1727  0BC9                     l2726:
  1728                           
  1729                           ;main.c: 280:     INTCONbits.GIE = 0;
  1730  0BC9  138B               	bcf	11,7	;volatile
  1731                           
  1732                           ;main.c: 281:     EECON2 = 0X55;
  1733  0BCA  3055               	movlw	85
  1734  0BCB  008D               	movwf	13	;volsfr
  1735                           
  1736                           ;main.c: 282:     EECON2 = 0XAA;
  1737  0BCC  30AA               	movlw	170
  1738  0BCD  008D               	movwf	13	;volsfr
  1739  0BCE                     l2728:
  1740                           
  1741                           ;main.c: 283:     EECON1bits.WR = 1;
  1742  0BCE  148C               	bsf	12,1	;volsfr
  1743  0BCF                     l196:	
  1744                           ;main.c: 284:     while(PIR2bits.EEIF == 0);
  1745                           
  1746  0BCF  1283               	bcf	3,5	;RP0=0, select bank0
  1747  0BD0  1303               	bcf	3,6	;RP1=0, select bank0
  1748  0BD1  1E0D               	btfss	13,4	;volatile
  1749  0BD2  2BD4               	goto	u3271
  1750  0BD3  2BD5               	goto	u3270
  1751  0BD4                     u3271:
  1752  0BD4  2BCF               	goto	l196
  1753  0BD5                     u3270:
  1754  0BD5                     l198:
  1755                           
  1756                           ;main.c: 285:     PIR2bits.EEIF = 0;
  1757  0BD5  120D               	bcf	13,4	;volatile
  1758                           
  1759                           ;main.c: 286:     EECON1bits.WREN = 0;
  1760  0BD6  1683               	bsf	3,5	;RP0=1, select bank3
  1761  0BD7  1703               	bsf	3,6	;RP1=1, select bank3
  1762  0BD8  110C               	bcf	12,2	;volsfr
  1763                           
  1764                           ;main.c: 287:     INTCONbits.GIE = 1;
  1765  0BD9  178B               	bsf	11,7	;volatile
  1766  0BDA                     l199:
  1767  0BDA  0008               	return
  1768  0BDB                     __end_of_EEPROM_W:
  1769                           
  1770                           	psect	text3
  1771  0B9F                     __ptext3:	
  1772 ;; *************** function _EEPROM_R *****************
  1773 ;; Defined at:
  1774 ;;		line 291 in file "main.c"
  1775 ;; Parameters:    Size  Location     Type
  1776 ;;  add             2    0[BANK0 ] unsigned int 
  1777 ;; Auto vars:     Size  Location     Type
  1778 ;;  dato            2    4[BANK0 ] unsigned int 
  1779 ;; Return value:  Size  Location     Type
  1780 ;;                  2    0[BANK0 ] unsigned int 
  1781 ;; Registers used:
  1782 ;;		wreg
  1783 ;; Tracked objects:
  1784 ;;		On entry : 0/0
  1785 ;;		On exit  : 0/0
  1786 ;;		Unchanged: 0/0
  1787 ;; Data sizes:     COMMON   BANK0   BANK1   BANK3   BANK2
  1788 ;;      Params:         0       2       0       0       0
  1789 ;;      Locals:         0       2       0       0       0
  1790 ;;      Temps:          0       2       0       0       0
  1791 ;;      Totals:         0       6       0       0       0
  1792 ;;Total ram usage:        6 bytes
  1793 ;; Hardware stack levels used:    1
  1794 ;; Hardware stack levels required when called:    1
  1795 ;; This function calls:
  1796 ;;		Nothing
  1797 ;; This function is called by:
  1798 ;;		_main
  1799 ;; This function uses a non-reentrant model
  1800 ;;
  1801                           
  1802                           
  1803                           ;psect for function _EEPROM_R
  1804  0B9F                     _EEPROM_R:
  1805  0B9F                     l2730:	
  1806                           ;incstack = 0
  1807                           ; Regs used in _EEPROM_R: [wreg]
  1808                           
  1809                           
  1810                           ;main.c: 292:     EEADR = add;
  1811  0B9F  1283               	bcf	3,5	;RP0=0, select bank0
  1812  0BA0  1303               	bcf	3,6	;RP1=0, select bank0
  1813  0BA1  0820               	movf	EEPROM_R@add,w
  1814  0BA2  1283               	bcf	3,5	;RP0=0, select bank2
  1815  0BA3  1703               	bsf	3,6	;RP1=1, select bank2
  1816  0BA4  008D               	movwf	13	;volatile
  1817  0BA5                     l2732:
  1818                           
  1819                           ;main.c: 293:     EECON1bits.EEPGD = 0;
  1820  0BA5  1683               	bsf	3,5	;RP0=1, select bank3
  1821  0BA6  1703               	bsf	3,6	;RP1=1, select bank3
  1822  0BA7  138C               	bcf	12,7	;volsfr
  1823  0BA8                     l2734:
  1824                           
  1825                           ;main.c: 294:     EECON1bits.RD = 1;
  1826  0BA8  140C               	bsf	12,0	;volsfr
  1827                           
  1828                           ;main.c: 295:     unsigned int dato = EEDATA;
  1829  0BA9  1283               	bcf	3,5	;RP0=0, select bank2
  1830  0BAA  1703               	bsf	3,6	;RP1=1, select bank2
  1831  0BAB  080C               	movf	12,w	;volatile
  1832  0BAC  1283               	bcf	3,5	;RP0=0, select bank0
  1833  0BAD  1303               	bcf	3,6	;RP1=0, select bank0
  1834  0BAE  00A2               	movwf	??_EEPROM_R
  1835  0BAF  01A3               	clrf	??_EEPROM_R+1
  1836  0BB0  0822               	movf	??_EEPROM_R,w
  1837  0BB1  00A4               	movwf	EEPROM_R@dato
  1838  0BB2  0823               	movf	??_EEPROM_R+1,w
  1839  0BB3  00A5               	movwf	EEPROM_R@dato+1
  1840                           
  1841                           ;main.c: 296:     return dato;
  1842  0BB4  0825               	movf	EEPROM_R@dato+1,w
  1843  0BB5  00A1               	movwf	?_EEPROM_R+1
  1844  0BB6  0824               	movf	EEPROM_R@dato,w
  1845  0BB7  00A0               	movwf	?_EEPROM_R
  1846  0BB8                     l202:
  1847  0BB8  0008               	return
  1848  0BB9                     __end_of_EEPROM_R:
  1849                           
  1850                           	psect	text4
  1851  062C                     __ptext4:	
  1852 ;; *************** function _ANALOGICOS *****************
  1853 ;; Defined at:
  1854 ;;		line 246 in file "main.c"
  1855 ;; Parameters:    Size  Location     Type
  1856 ;;  VALORAN         2   71[BANK0 ] int 
  1857 ;; Auto vars:     Size  Location     Type
  1858 ;;		None
  1859 ;; Return value:  Size  Location     Type
  1860 ;;                  1    wreg      void 
  1861 ;; Registers used:
  1862 ;;		wreg, fsr0l, fsr0h, status,2, status,0, btemp+1, pclath, cstack
  1863 ;; Tracked objects:
  1864 ;;		On entry : 0/0
  1865 ;;		On exit  : 0/0
  1866 ;;		Unchanged: 0/0
  1867 ;; Data sizes:     COMMON   BANK0   BANK1   BANK3   BANK2
  1868 ;;      Params:         0       2       0       0       0
  1869 ;;      Locals:         0       0       0       0       0
  1870 ;;      Temps:          0       0       3       0       0
  1871 ;;      Totals:         0       2       3       0       0
  1872 ;;Total ram usage:        5 bytes
  1873 ;; Hardware stack levels used:    1
  1874 ;; Hardware stack levels required when called:    3
  1875 ;; This function calls:
  1876 ;;		___fladd
  1877 ;;		___flmul
  1878 ;;		___fltol
  1879 ;;		___xxtofl
  1880 ;; This function is called by:
  1881 ;;		_main
  1882 ;; This function uses a non-reentrant model
  1883 ;;
  1884                           
  1885                           
  1886                           ;psect for function _ANALOGICOS
  1887  062C                     _ANALOGICOS:
  1888  062C                     l2682:	
  1889                           ;incstack = 0
  1890                           ; Regs used in _ANALOGICOS: [wreg-fsr0h+status,2+status,0+btemp+1+pclath+cstack]
  1891                           
  1892                           
  1893                           ;main.c: 248:     switch(ADCON0bits.CHS){
  1894  062C  2F58               	goto	l2714
  1895  062D                     l2684:
  1896                           
  1897                           ;main.c: 250:             POT0 = ((0.0380*VALORAN)+5);
  1898  062D  1283               	bcf	3,5	;RP0=0, select bank0
  1899  062E  1303               	bcf	3,6	;RP1=0, select bank0
  1900  062F  0867               	movf	ANALOGICOS@VALORAN,w
  1901  0630  00A0               	movwf	___xxtofl@val
  1902  0631  0868               	movf	ANALOGICOS@VALORAN+1,w
  1903  0632  00A1               	movwf	___xxtofl@val+1
  1904  0633  3000               	movlw	0
  1905  0634  1BA1               	btfsc	___xxtofl@val+1,7
  1906  0635  30FF               	movlw	255
  1907  0636  00A2               	movwf	___xxtofl@val+2
  1908  0637  00A3               	movwf	___xxtofl@val+3
  1909  0638  3001               	movlw	1
  1910  0639  120A  158A  24E6  120A  118A  	fcall	___xxtofl
  1911  063E  1283               	bcf	3,5	;RP0=0, select bank0
  1912  063F  1303               	bcf	3,6	;RP1=0, select bank0
  1913  0640  0823               	movf	?___xxtofl+3,w
  1914  0641  00B5               	movwf	___flmul@a+3
  1915  0642  0822               	movf	?___xxtofl+2,w
  1916  0643  00B4               	movwf	___flmul@a+2
  1917  0644  0821               	movf	?___xxtofl+1,w
  1918  0645  00B3               	movwf	___flmul@a+1
  1919  0646  0820               	movf	?___xxtofl,w
  1920  0647  00B2               	movwf	___flmul@a
  1921  0648  303D               	movlw	61
  1922  0649  00B1               	movwf	___flmul@b+3
  1923  064A  301B               	movlw	27
  1924  064B  00B0               	movwf	___flmul@b+2
  1925  064C  30A5               	movlw	165
  1926  064D  00AF               	movwf	___flmul@b+1
  1927  064E  30E3               	movlw	227
  1928  064F  00AE               	movwf	___flmul@b
  1929  0650  120A  118A  2043  120A  118A  	fcall	___flmul
  1930  0655  1283               	bcf	3,5	;RP0=0, select bank0
  1931  0656  1303               	bcf	3,6	;RP1=0, select bank0
  1932  0657  0831               	movf	?___flmul+3,w
  1933  0658  00CF               	movwf	___fladd@a+3
  1934  0659  0830               	movf	?___flmul+2,w
  1935  065A  00CE               	movwf	___fladd@a+2
  1936  065B  082F               	movf	?___flmul+1,w
  1937  065C  00CD               	movwf	___fladd@a+1
  1938  065D  082E               	movf	?___flmul,w
  1939  065E  00CC               	movwf	___fladd@a
  1940  065F  3040               	movlw	64
  1941  0660  00CB               	movwf	___fladd@b+3
  1942  0661  30A0               	movlw	160
  1943  0662  00CA               	movwf	___fladd@b+2
  1944  0663  3000               	movlw	0
  1945  0664  00C9               	movwf	___fladd@b+1
  1946  0665  3000               	movlw	0
  1947  0666  00C8               	movwf	___fladd@b
  1948  0667  120A  118A  23A4  120A  118A  	fcall	___fladd
  1949  066C  1283               	bcf	3,5	;RP0=0, select bank0
  1950  066D  1303               	bcf	3,6	;RP1=0, select bank0
  1951  066E  084B               	movf	?___fladd+3,w
  1952  066F  00DF               	movwf	___fltol@f1+3
  1953  0670  084A               	movf	?___fladd+2,w
  1954  0671  00DE               	movwf	___fltol@f1+2
  1955  0672  0849               	movf	?___fladd+1,w
  1956  0673  00DD               	movwf	___fltol@f1+1
  1957  0674  0848               	movf	?___fladd,w
  1958  0675  00DC               	movwf	___fltol@f1
  1959  0676  120A  118A  2773  120A  118A  	fcall	___fltol
  1960  067B  1283               	bcf	3,5	;RP0=0, select bank0
  1961  067C  1303               	bcf	3,6	;RP1=0, select bank0
  1962  067D  085D               	movf	?___fltol+1,w
  1963  067E  00F6               	movwf	_POT0+1
  1964  067F  085C               	movf	?___fltol,w
  1965  0680  00F5               	movwf	_POT0
  1966  0681                     l2686:
  1967                           
  1968                           ;main.c: 251:             ADCON0bits.CHS = 1;
  1969  0681  081F               	movf	31,w	;volatile
  1970  0682  39C3               	andlw	-61
  1971  0683  3804               	iorlw	4
  1972  0684  009F               	movwf	31	;volatile
  1973  0685                     l2688:
  1974                           
  1975                           ;main.c: 252:            _delay((unsigned long)((100)*(4000000/4000000.0)));
  1976  0685  3020               	movlw	32
  1977  0686  1683               	bsf	3,5	;RP0=1, select bank1
  1978  0687  1303               	bcf	3,6	;RP1=0, select bank1
  1979  0688  00A6               	movwf	??_ANALOGICOS^(0+128)
  1980  0689                     u3477:
  1981  0689  0BA6               	decfsz	??_ANALOGICOS^(0+128),f
  1982  068A  2E89               	goto	u3477
  1983  068B  0000               	nop
  1984  068C                     l2690:
  1985                           
  1986                           ;main.c: 253:             ADCON0bits.GO = 1;
  1987  068C  1283               	bcf	3,5	;RP0=0, select bank0
  1988  068D  1303               	bcf	3,6	;RP1=0, select bank0
  1989  068E  149F               	bsf	31,1	;volatile
  1990                           
  1991                           ;main.c: 254:             break;
  1992  068F  2F72               	goto	l193
  1993  0690                     l2692:
  1994                           
  1995                           ;main.c: 257:             POT1 = (((0.467*VALORAN)+31));
  1996  0690  1283               	bcf	3,5	;RP0=0, select bank0
  1997  0691  1303               	bcf	3,6	;RP1=0, select bank0
  1998  0692  0867               	movf	ANALOGICOS@VALORAN,w
  1999  0693  00A0               	movwf	___xxtofl@val
  2000  0694  0868               	movf	ANALOGICOS@VALORAN+1,w
  2001  0695  00A1               	movwf	___xxtofl@val+1
  2002  0696  3000               	movlw	0
  2003  0697  1BA1               	btfsc	___xxtofl@val+1,7
  2004  0698  30FF               	movlw	255
  2005  0699  00A2               	movwf	___xxtofl@val+2
  2006  069A  00A3               	movwf	___xxtofl@val+3
  2007  069B  3001               	movlw	1
  2008  069C  120A  158A  24E6  120A  118A  	fcall	___xxtofl
  2009  06A1  1283               	bcf	3,5	;RP0=0, select bank0
  2010  06A2  1303               	bcf	3,6	;RP1=0, select bank0
  2011  06A3  0823               	movf	?___xxtofl+3,w
  2012  06A4  00B5               	movwf	___flmul@a+3
  2013  06A5  0822               	movf	?___xxtofl+2,w
  2014  06A6  00B4               	movwf	___flmul@a+2
  2015  06A7  0821               	movf	?___xxtofl+1,w
  2016  06A8  00B3               	movwf	___flmul@a+1
  2017  06A9  0820               	movf	?___xxtofl,w
  2018  06AA  00B2               	movwf	___flmul@a
  2019  06AB  303E               	movlw	62
  2020  06AC  00B1               	movwf	___flmul@b+3
  2021  06AD  30EF               	movlw	239
  2022  06AE  00B0               	movwf	___flmul@b+2
  2023  06AF  301A               	movlw	26
  2024  06B0  00AF               	movwf	___flmul@b+1
  2025  06B1  30A0               	movlw	160
  2026  06B2  00AE               	movwf	___flmul@b
  2027  06B3  120A  118A  2043  120A  118A  	fcall	___flmul
  2028  06B8  1283               	bcf	3,5	;RP0=0, select bank0
  2029  06B9  1303               	bcf	3,6	;RP1=0, select bank0
  2030  06BA  0831               	movf	?___flmul+3,w
  2031  06BB  00CF               	movwf	___fladd@a+3
  2032  06BC  0830               	movf	?___flmul+2,w
  2033  06BD  00CE               	movwf	___fladd@a+2
  2034  06BE  082F               	movf	?___flmul+1,w
  2035  06BF  00CD               	movwf	___fladd@a+1
  2036  06C0  082E               	movf	?___flmul,w
  2037  06C1  00CC               	movwf	___fladd@a
  2038  06C2  3041               	movlw	65
  2039  06C3  00CB               	movwf	___fladd@b+3
  2040  06C4  30F8               	movlw	248
  2041  06C5  00CA               	movwf	___fladd@b+2
  2042  06C6  3000               	movlw	0
  2043  06C7  00C9               	movwf	___fladd@b+1
  2044  06C8  3000               	movlw	0
  2045  06C9  00C8               	movwf	___fladd@b
  2046  06CA  120A  118A  23A4  120A  118A  	fcall	___fladd
  2047  06CF  1283               	bcf	3,5	;RP0=0, select bank0
  2048  06D0  1303               	bcf	3,6	;RP1=0, select bank0
  2049  06D1  084B               	movf	?___fladd+3,w
  2050  06D2  00DF               	movwf	___fltol@f1+3
  2051  06D3  084A               	movf	?___fladd+2,w
  2052  06D4  00DE               	movwf	___fltol@f1+2
  2053  06D5  0849               	movf	?___fladd+1,w
  2054  06D6  00DD               	movwf	___fltol@f1+1
  2055  06D7  0848               	movf	?___fladd,w
  2056  06D8  00DC               	movwf	___fltol@f1
  2057  06D9  120A  118A  2773  120A  118A  	fcall	___fltol
  2058  06DE  1283               	bcf	3,5	;RP0=0, select bank0
  2059  06DF  1303               	bcf	3,6	;RP1=0, select bank0
  2060  06E0  085D               	movf	?___fltol+1,w
  2061  06E1  00EC               	movwf	_POT1+1
  2062  06E2  085C               	movf	?___fltol,w
  2063  06E3  00EB               	movwf	_POT1
  2064  06E4                     l2694:
  2065                           
  2066                           ;main.c: 258:             CCPR1L = POT1;
  2067  06E4  086B               	movf	_POT1,w
  2068  06E5  0095               	movwf	21	;volatile
  2069  06E6                     l2696:
  2070                           
  2071                           ;main.c: 259:             ADCON0bits.CHS = 2;
  2072  06E6  081F               	movf	31,w	;volatile
  2073  06E7  39C3               	andlw	-61
  2074  06E8  3808               	iorlw	8
  2075  06E9  009F               	movwf	31	;volatile
  2076  06EA                     l2698:
  2077                           
  2078                           ;main.c: 260:             _delay((unsigned long)((100)*(4000000/4000000.0)));
  2079  06EA  3020               	movlw	32
  2080  06EB  1683               	bsf	3,5	;RP0=1, select bank1
  2081  06EC  1303               	bcf	3,6	;RP1=0, select bank1
  2082  06ED  00A6               	movwf	??_ANALOGICOS^(0+128)
  2083  06EE                     u3487:
  2084  06EE  0BA6               	decfsz	??_ANALOGICOS^(0+128),f
  2085  06EF  2EEE               	goto	u3487
  2086  06F0  0000               	nop
  2087  06F1                     l2700:
  2088                           
  2089                           ;main.c: 261:            ADCON0bits.GO = 1;
  2090  06F1  1283               	bcf	3,5	;RP0=0, select bank0
  2091  06F2  1303               	bcf	3,6	;RP1=0, select bank0
  2092  06F3  149F               	bsf	31,1	;volatile
  2093                           
  2094                           ;main.c: 262:             break;
  2095  06F4  2F72               	goto	l193
  2096  06F5                     l2702:
  2097                           
  2098                           ;main.c: 265:             POT2 = ((0.349*VALORAN)+31);
  2099  06F5  1283               	bcf	3,5	;RP0=0, select bank0
  2100  06F6  1303               	bcf	3,6	;RP1=0, select bank0
  2101  06F7  0867               	movf	ANALOGICOS@VALORAN,w
  2102  06F8  00A0               	movwf	___xxtofl@val
  2103  06F9  0868               	movf	ANALOGICOS@VALORAN+1,w
  2104  06FA  00A1               	movwf	___xxtofl@val+1
  2105  06FB  3000               	movlw	0
  2106  06FC  1BA1               	btfsc	___xxtofl@val+1,7
  2107  06FD  30FF               	movlw	255
  2108  06FE  00A2               	movwf	___xxtofl@val+2
  2109  06FF  00A3               	movwf	___xxtofl@val+3
  2110  0700  3001               	movlw	1
  2111  0701  120A  158A  24E6  120A  118A  	fcall	___xxtofl
  2112  0706  1283               	bcf	3,5	;RP0=0, select bank0
  2113  0707  1303               	bcf	3,6	;RP1=0, select bank0
  2114  0708  0823               	movf	?___xxtofl+3,w
  2115  0709  00B5               	movwf	___flmul@a+3
  2116  070A  0822               	movf	?___xxtofl+2,w
  2117  070B  00B4               	movwf	___flmul@a+2
  2118  070C  0821               	movf	?___xxtofl+1,w
  2119  070D  00B3               	movwf	___flmul@a+1
  2120  070E  0820               	movf	?___xxtofl,w
  2121  070F  00B2               	movwf	___flmul@a
  2122  0710  303E               	movlw	62
  2123  0711  00B1               	movwf	___flmul@b+3
  2124  0712  30B2               	movlw	178
  2125  0713  00B0               	movwf	___flmul@b+2
  2126  0714  30B0               	movlw	176
  2127  0715  00AF               	movwf	___flmul@b+1
  2128  0716  3021               	movlw	33
  2129  0717  00AE               	movwf	___flmul@b
  2130  0718  120A  118A  2043  120A  118A  	fcall	___flmul
  2131  071D  1283               	bcf	3,5	;RP0=0, select bank0
  2132  071E  1303               	bcf	3,6	;RP1=0, select bank0
  2133  071F  0831               	movf	?___flmul+3,w
  2134  0720  00CF               	movwf	___fladd@a+3
  2135  0721  0830               	movf	?___flmul+2,w
  2136  0722  00CE               	movwf	___fladd@a+2
  2137  0723  082F               	movf	?___flmul+1,w
  2138  0724  00CD               	movwf	___fladd@a+1
  2139  0725  082E               	movf	?___flmul,w
  2140  0726  00CC               	movwf	___fladd@a
  2141  0727  3041               	movlw	65
  2142  0728  00CB               	movwf	___fladd@b+3
  2143  0729  30F8               	movlw	248
  2144  072A  00CA               	movwf	___fladd@b+2
  2145  072B  3000               	movlw	0
  2146  072C  00C9               	movwf	___fladd@b+1
  2147  072D  3000               	movlw	0
  2148  072E  00C8               	movwf	___fladd@b
  2149  072F  120A  118A  23A4  120A  118A  	fcall	___fladd
  2150  0734  1283               	bcf	3,5	;RP0=0, select bank0
  2151  0735  1303               	bcf	3,6	;RP1=0, select bank0
  2152  0736  084B               	movf	?___fladd+3,w
  2153  0737  00DF               	movwf	___fltol@f1+3
  2154  0738  084A               	movf	?___fladd+2,w
  2155  0739  00DE               	movwf	___fltol@f1+2
  2156  073A  0849               	movf	?___fladd+1,w
  2157  073B  00DD               	movwf	___fltol@f1+1
  2158  073C  0848               	movf	?___fladd,w
  2159  073D  00DC               	movwf	___fltol@f1
  2160  073E  120A  118A  2773  120A  118A  	fcall	___fltol
  2161  0743  1283               	bcf	3,5	;RP0=0, select bank0
  2162  0744  1303               	bcf	3,6	;RP1=0, select bank0
  2163  0745  085D               	movf	?___fltol+1,w
  2164  0746  00EA               	movwf	_POT2+1
  2165  0747  085C               	movf	?___fltol,w
  2166  0748  00E9               	movwf	_POT2
  2167  0749                     l2704:
  2168                           
  2169                           ;main.c: 266:             CCPR2L = POT2;
  2170  0749  0869               	movf	_POT2,w
  2171  074A  009B               	movwf	27	;volatile
  2172  074B                     l2706:
  2173                           
  2174                           ;main.c: 267:             ADCON0bits.CHS = 0;
  2175  074B  30C3               	movlw	-61
  2176  074C  059F               	andwf	31,f	;volatile
  2177  074D                     l2708:
  2178                           
  2179                           ;main.c: 268:            _delay((unsigned long)((100)*(4000000/4000000.0)));
  2180  074D  3020               	movlw	32
  2181  074E  1683               	bsf	3,5	;RP0=1, select bank1
  2182  074F  1303               	bcf	3,6	;RP1=0, select bank1
  2183  0750  00A6               	movwf	??_ANALOGICOS^(0+128)
  2184  0751                     u3497:
  2185  0751  0BA6               	decfsz	??_ANALOGICOS^(0+128),f
  2186  0752  2F51               	goto	u3497
  2187  0753  0000               	nop
  2188  0754                     l2710:
  2189                           
  2190                           ;main.c: 269:              ADCON0bits.GO = 1;
  2191  0754  1283               	bcf	3,5	;RP0=0, select bank0
  2192  0755  1303               	bcf	3,6	;RP1=0, select bank0
  2193  0756  149F               	bsf	31,1	;volatile
  2194                           
  2195                           ;main.c: 270:             break;
  2196  0757  2F72               	goto	l193
  2197  0758                     l2714:
  2198  0758  1283               	bcf	3,5	;RP0=0, select bank0
  2199  0759  1303               	bcf	3,6	;RP1=0, select bank0
  2200  075A  0C1F               	rrf	31,w	;volatile
  2201  075B  1683               	bsf	3,5	;RP0=1, select bank1
  2202  075C  1303               	bcf	3,6	;RP1=0, select bank1
  2203  075D  00A6               	movwf	??_ANALOGICOS^(0+128)
  2204  075E  0C26               	rrf	??_ANALOGICOS^(0+128),w
  2205  075F  390F               	andlw	15
  2206  0760  00A7               	movwf	(??_ANALOGICOS+1)^(0+128)
  2207  0761  01A8               	clrf	((??_ANALOGICOS+1)^(0+128)+1)
  2208                           
  2209                           ; Switch on 2 bytes has been partitioned into a top level switch of size 1, and 1 sub-sw
      +                          itches
  2210                           ; Switch size 1, requested type "simple"
  2211                           ; Number of cases is 1, Range of values is 0 to 0
  2212                           ; switch strategies available:
  2213                           ; Name         Instructions Cycles
  2214                           ; simple_byte            4     3 (average)
  2215                           ; direct_byte           11     8 (fixed)
  2216                           ; jumptable            260     6 (fixed)
  2217                           ;	Chosen strategy is simple_byte
  2218  0762  0828               	movf	(??_ANALOGICOS+2)^(0+128),w
  2219  0763  3A00               	xorlw	0	; case 0
  2220  0764  1903               	skipnz
  2221  0765  2F67               	goto	l2922
  2222  0766  2F72               	goto	l193
  2223  0767                     l2922:
  2224                           
  2225                           ; Switch size 1, requested type "simple"
  2226                           ; Number of cases is 3, Range of values is 0 to 2
  2227                           ; switch strategies available:
  2228                           ; Name         Instructions Cycles
  2229                           ; simple_byte           10     6 (average)
  2230                           ; direct_byte           17     8 (fixed)
  2231                           ; jumptable            260     6 (fixed)
  2232                           ;	Chosen strategy is simple_byte
  2233  0767  0827               	movf	(??_ANALOGICOS+1)^(0+128),w
  2234  0768  3A00               	xorlw	0	; case 0
  2235  0769  1903               	skipnz
  2236  076A  2E2D               	goto	l2684
  2237  076B  3A01               	xorlw	1	; case 1
  2238  076C  1903               	skipnz
  2239  076D  2E90               	goto	l2692
  2240  076E  3A03               	xorlw	3	; case 2
  2241  076F  1903               	skipnz
  2242  0770  2EF5               	goto	l2702
  2243  0771  2F72               	goto	l193
  2244  0772                     l193:
  2245  0772  0008               	return
  2246  0773                     __end_of_ANALOGICOS:
  2247                           
  2248                           	psect	text5
  2249  0CE6                     __ptext5:	
  2250 ;; *************** function ___xxtofl *****************
  2251 ;; Defined at:
  2252 ;;		line 10 in file "C:\Program Files\Microchip\xc8\v2.31\pic\sources\c90\common\xxtofl.c"
  2253 ;; Parameters:    Size  Location     Type
  2254 ;;  sign            1    wreg     unsigned char 
  2255 ;;  val             4    0[BANK0 ] long 
  2256 ;; Auto vars:     Size  Location     Type
  2257 ;;  sign            1    8[BANK0 ] unsigned char 
  2258 ;;  arg             4   10[BANK0 ] unsigned long 
  2259 ;;  exp             1    9[BANK0 ] unsigned char 
  2260 ;; Return value:  Size  Location     Type
  2261 ;;                  4    0[BANK0 ] unsigned char 
  2262 ;; Registers used:
  2263 ;;		wreg, status,2, status,0
  2264 ;; Tracked objects:
  2265 ;;		On entry : 0/0
  2266 ;;		On exit  : 0/0
  2267 ;;		Unchanged: 0/0
  2268 ;; Data sizes:     COMMON   BANK0   BANK1   BANK3   BANK2
  2269 ;;      Params:         0       4       0       0       0
  2270 ;;      Locals:         0       6       0       0       0
  2271 ;;      Temps:          0       4       0       0       0
  2272 ;;      Totals:         0      14       0       0       0
  2273 ;;Total ram usage:       14 bytes
  2274 ;; Hardware stack levels used:    1
  2275 ;; Hardware stack levels required when called:    1
  2276 ;; This function calls:
  2277 ;;		Nothing
  2278 ;; This function is called by:
  2279 ;;		_main
  2280 ;;		_ANALOGICOS
  2281 ;; This function uses a non-reentrant model
  2282 ;;
  2283                           
  2284                           
  2285                           ;psect for function ___xxtofl
  2286  0CE6                     ___xxtofl:
  2287                           
  2288                           ;incstack = 0
  2289                           ; Regs used in ___xxtofl: [wreg+status,2+status,0]
  2290                           ;___xxtofl@sign stored from wreg
  2291  0CE6  1283               	bcf	3,5	;RP0=0, select bank0
  2292  0CE7  1303               	bcf	3,6	;RP1=0, select bank0
  2293  0CE8  00A8               	movwf	___xxtofl@sign
  2294  0CE9                     l2536:
  2295  0CE9  0828               	movf	___xxtofl@sign,w
  2296  0CEA  1903               	btfsc	3,2
  2297  0CEB  2CED               	goto	u3131
  2298  0CEC  2CEE               	goto	u3130
  2299  0CED                     u3131:
  2300  0CED  2D02               	goto	l2542
  2301  0CEE                     u3130:
  2302  0CEE                     l2538:
  2303  0CEE  1FA3               	btfss	___xxtofl@val+3,7
  2304  0CEF  2CF1               	goto	u3141
  2305  0CF0  2CF2               	goto	u3140
  2306  0CF1                     u3141:
  2307  0CF1  2D02               	goto	l2542
  2308  0CF2                     u3140:
  2309  0CF2                     l2540:
  2310  0CF2  0920               	comf	___xxtofl@val,w
  2311  0CF3  00AA               	movwf	___xxtofl@arg
  2312  0CF4  0921               	comf	___xxtofl@val+1,w
  2313  0CF5  00AB               	movwf	___xxtofl@arg+1
  2314  0CF6  0922               	comf	___xxtofl@val+2,w
  2315  0CF7  00AC               	movwf	___xxtofl@arg+2
  2316  0CF8  0923               	comf	___xxtofl@val+3,w
  2317  0CF9  00AD               	movwf	___xxtofl@arg+3
  2318  0CFA  0AAA               	incf	___xxtofl@arg,f
  2319  0CFB  1903               	skipnz
  2320  0CFC  0AAB               	incf	___xxtofl@arg+1,f
  2321  0CFD  1903               	skipnz
  2322  0CFE  0AAC               	incf	___xxtofl@arg+2,f
  2323  0CFF  1903               	skipnz
  2324  0D00  0AAD               	incf	___xxtofl@arg+3,f
  2325  0D01  2D0A               	goto	l721
  2326  0D02                     l2542:
  2327  0D02  0823               	movf	___xxtofl@val+3,w
  2328  0D03  00AD               	movwf	___xxtofl@arg+3
  2329  0D04  0822               	movf	___xxtofl@val+2,w
  2330  0D05  00AC               	movwf	___xxtofl@arg+2
  2331  0D06  0821               	movf	___xxtofl@val+1,w
  2332  0D07  00AB               	movwf	___xxtofl@arg+1
  2333  0D08  0820               	movf	___xxtofl@val,w
  2334  0D09  00AA               	movwf	___xxtofl@arg
  2335  0D0A                     l721:
  2336  0D0A  0823               	movf	___xxtofl@val+3,w
  2337  0D0B  0422               	iorwf	___xxtofl@val+2,w
  2338  0D0C  0421               	iorwf	___xxtofl@val+1,w
  2339  0D0D  0420               	iorwf	___xxtofl@val,w
  2340  0D0E  1D03               	skipz
  2341  0D0F  2D11               	goto	u3151
  2342  0D10  2D12               	goto	u3150
  2343  0D11                     u3151:
  2344  0D11  2D1B               	goto	l2548
  2345  0D12                     u3150:
  2346  0D12                     l2544:
  2347  0D12  3000               	movlw	0
  2348  0D13  00A3               	movwf	?___xxtofl+3
  2349  0D14  3000               	movlw	0
  2350  0D15  00A2               	movwf	?___xxtofl+2
  2351  0D16  3000               	movlw	0
  2352  0D17  00A1               	movwf	?___xxtofl+1
  2353  0D18  3000               	movlw	0
  2354  0D19  00A0               	movwf	?___xxtofl
  2355  0D1A  2DA1               	goto	l723
  2356  0D1B                     l2548:
  2357  0D1B  3096               	movlw	150
  2358  0D1C  00A4               	movwf	??___xxtofl
  2359  0D1D  0824               	movf	??___xxtofl,w
  2360  0D1E  00A9               	movwf	___xxtofl@exp
  2361  0D1F  2D2D               	goto	l2552
  2362  0D20                     l2550:
  2363  0D20  3001               	movlw	1
  2364  0D21  00A4               	movwf	??___xxtofl
  2365  0D22  0824               	movf	??___xxtofl,w
  2366  0D23  07A9               	addwf	___xxtofl@exp,f
  2367  0D24  3001               	movlw	1
  2368  0D25                     u3165:
  2369  0D25  1003               	clrc
  2370  0D26  0CAD               	rrf	___xxtofl@arg+3,f
  2371  0D27  0CAC               	rrf	___xxtofl@arg+2,f
  2372  0D28  0CAB               	rrf	___xxtofl@arg+1,f
  2373  0D29  0CAA               	rrf	___xxtofl@arg,f
  2374  0D2A  3EFF               	addlw	-1
  2375  0D2B  1D03               	skipz
  2376  0D2C  2D25               	goto	u3165
  2377  0D2D                     l2552:
  2378  0D2D  30FE               	movlw	254
  2379  0D2E  052D               	andwf	___xxtofl@arg+3,w
  2380  0D2F  1D03               	btfss	3,2
  2381  0D30  2D32               	goto	u3171
  2382  0D31  2D33               	goto	u3170
  2383  0D32                     u3171:
  2384  0D32  2D20               	goto	l2550
  2385  0D33                     u3170:
  2386  0D33  2D4F               	goto	l727
  2387  0D34                     l2554:
  2388  0D34  3001               	movlw	1
  2389  0D35  00A4               	movwf	??___xxtofl
  2390  0D36  0824               	movf	??___xxtofl,w
  2391  0D37  07A9               	addwf	___xxtofl@exp,f
  2392  0D38                     l2556:
  2393  0D38  3001               	movlw	1
  2394  0D39  07AA               	addwf	___xxtofl@arg,f
  2395  0D3A  3000               	movlw	0
  2396  0D3B  1803               	skipnc
  2397  0D3C  3001               	movlw	1
  2398  0D3D  07AB               	addwf	___xxtofl@arg+1,f
  2399  0D3E  3000               	movlw	0
  2400  0D3F  1803               	skipnc
  2401  0D40  3001               	movlw	1
  2402  0D41  07AC               	addwf	___xxtofl@arg+2,f
  2403  0D42  3000               	movlw	0
  2404  0D43  1803               	skipnc
  2405  0D44  3001               	movlw	1
  2406  0D45  07AD               	addwf	___xxtofl@arg+3,f
  2407  0D46                     l2558:
  2408  0D46  3001               	movlw	1
  2409  0D47                     u3185:
  2410  0D47  1003               	clrc
  2411  0D48  0CAD               	rrf	___xxtofl@arg+3,f
  2412  0D49  0CAC               	rrf	___xxtofl@arg+2,f
  2413  0D4A  0CAB               	rrf	___xxtofl@arg+1,f
  2414  0D4B  0CAA               	rrf	___xxtofl@arg,f
  2415  0D4C  3EFF               	addlw	-1
  2416  0D4D  1D03               	skipz
  2417  0D4E  2D47               	goto	u3185
  2418  0D4F                     l727:
  2419  0D4F  30FF               	movlw	255
  2420  0D50  052D               	andwf	___xxtofl@arg+3,w
  2421  0D51  1D03               	btfss	3,2
  2422  0D52  2D54               	goto	u3191
  2423  0D53  2D55               	goto	u3190
  2424  0D54                     u3191:
  2425  0D54  2D34               	goto	l2554
  2426  0D55                     u3190:
  2427  0D55  2D61               	goto	l2562
  2428  0D56                     l2560:
  2429  0D56  3001               	movlw	1
  2430  0D57  02A9               	subwf	___xxtofl@exp,f
  2431  0D58  3001               	movlw	1
  2432  0D59  00A4               	movwf	??___xxtofl
  2433  0D5A                     u3205:
  2434  0D5A  1003               	clrc
  2435  0D5B  0DAA               	rlf	___xxtofl@arg,f
  2436  0D5C  0DAB               	rlf	___xxtofl@arg+1,f
  2437  0D5D  0DAC               	rlf	___xxtofl@arg+2,f
  2438  0D5E  0DAD               	rlf	___xxtofl@arg+3,f
  2439  0D5F  0BA4               	decfsz	??___xxtofl,f
  2440  0D60  2D5A               	goto	u3205
  2441  0D61                     l2562:
  2442  0D61  1BAC               	btfsc	___xxtofl@arg+2,7
  2443  0D62  2D64               	goto	u3211
  2444  0D63  2D65               	goto	u3210
  2445  0D64                     u3211:
  2446  0D64  2D6B               	goto	l734
  2447  0D65                     u3210:
  2448  0D65                     l2564:
  2449  0D65  3002               	movlw	2
  2450  0D66  0229               	subwf	___xxtofl@exp,w
  2451  0D67  1803               	skipnc
  2452  0D68  2D6A               	goto	u3221
  2453  0D69  2D6B               	goto	u3220
  2454  0D6A                     u3221:
  2455  0D6A  2D56               	goto	l2560
  2456  0D6B                     u3220:
  2457  0D6B                     l734:
  2458  0D6B  1829               	btfsc	___xxtofl@exp,0
  2459  0D6C  2D6E               	goto	u3231
  2460  0D6D  2D6F               	goto	u3230
  2461  0D6E                     u3231:
  2462  0D6E  2D77               	goto	l735
  2463  0D6F                     u3230:
  2464  0D6F                     l2566:
  2465  0D6F  30FF               	movlw	255
  2466  0D70  05AA               	andwf	___xxtofl@arg,f
  2467  0D71  30FF               	movlw	255
  2468  0D72  05AB               	andwf	___xxtofl@arg+1,f
  2469  0D73  307F               	movlw	127
  2470  0D74  05AC               	andwf	___xxtofl@arg+2,f
  2471  0D75  30FF               	movlw	255
  2472  0D76  05AD               	andwf	___xxtofl@arg+3,f
  2473  0D77                     l735:
  2474  0D77  1003               	clrc
  2475  0D78  0CA9               	rrf	___xxtofl@exp,f
  2476  0D79                     l2568:
  2477  0D79  0829               	movf	___xxtofl@exp,w
  2478  0D7A  00A4               	movwf	??___xxtofl
  2479  0D7B  01A5               	clrf	??___xxtofl+1
  2480  0D7C  01A6               	clrf	??___xxtofl+2
  2481  0D7D  01A7               	clrf	??___xxtofl+3
  2482  0D7E  3018               	movlw	24
  2483  0D7F                     u3245:
  2484  0D7F  1003               	clrc
  2485  0D80  0DA4               	rlf	??___xxtofl,f
  2486  0D81  0DA5               	rlf	??___xxtofl+1,f
  2487  0D82  0DA6               	rlf	??___xxtofl+2,f
  2488  0D83  0DA7               	rlf	??___xxtofl+3,f
  2489  0D84                     u3240:
  2490  0D84  3EFF               	addlw	-1
  2491  0D85  1D03               	skipz
  2492  0D86  2D7F               	goto	u3245
  2493  0D87  0824               	movf	??___xxtofl,w
  2494  0D88  04AA               	iorwf	___xxtofl@arg,f
  2495  0D89  0825               	movf	??___xxtofl+1,w
  2496  0D8A  04AB               	iorwf	___xxtofl@arg+1,f
  2497  0D8B  0826               	movf	??___xxtofl+2,w
  2498  0D8C  04AC               	iorwf	___xxtofl@arg+2,f
  2499  0D8D  0827               	movf	??___xxtofl+3,w
  2500  0D8E  04AD               	iorwf	___xxtofl@arg+3,f
  2501  0D8F                     l2570:
  2502  0D8F  0828               	movf	___xxtofl@sign,w
  2503  0D90  1903               	btfsc	3,2
  2504  0D91  2D93               	goto	u3251
  2505  0D92  2D94               	goto	u3250
  2506  0D93                     u3251:
  2507  0D93  2D99               	goto	l2576
  2508  0D94                     u3250:
  2509  0D94                     l2572:
  2510  0D94  1FA3               	btfss	___xxtofl@val+3,7
  2511  0D95  2D97               	goto	u3261
  2512  0D96  2D98               	goto	u3260
  2513  0D97                     u3261:
  2514  0D97  2D99               	goto	l2576
  2515  0D98                     u3260:
  2516  0D98                     l2574:
  2517  0D98  17AD               	bsf	___xxtofl@arg+3,7
  2518  0D99                     l2576:
  2519  0D99  082D               	movf	___xxtofl@arg+3,w
  2520  0D9A  00A3               	movwf	?___xxtofl+3
  2521  0D9B  082C               	movf	___xxtofl@arg+2,w
  2522  0D9C  00A2               	movwf	?___xxtofl+2
  2523  0D9D  082B               	movf	___xxtofl@arg+1,w
  2524  0D9E  00A1               	movwf	?___xxtofl+1
  2525  0D9F  082A               	movf	___xxtofl@arg,w
  2526  0DA0  00A0               	movwf	?___xxtofl
  2527  0DA1                     l723:
  2528  0DA1  0008               	return
  2529  0DA2                     __end_of___xxtofl:
  2530                           
  2531                           	psect	text6
  2532  0773                     __ptext6:	
  2533 ;; *************** function ___fltol *****************
  2534 ;; Defined at:
  2535 ;;		line 43 in file "C:\Program Files\Microchip\xc8\v2.31\pic\sources\c90\common\fltol.c"
  2536 ;; Parameters:    Size  Location     Type
  2537 ;;  f1              4   60[BANK0 ] unsigned char 
  2538 ;; Auto vars:     Size  Location     Type
  2539 ;;  exp1            1   70[BANK0 ] unsigned char 
  2540 ;;  sign1           1   69[BANK0 ] unsigned char 
  2541 ;; Return value:  Size  Location     Type
  2542 ;;                  4   60[BANK0 ] long 
  2543 ;; Registers used:
  2544 ;;		wreg, status,2, status,0
  2545 ;; Tracked objects:
  2546 ;;		On entry : 0/0
  2547 ;;		On exit  : 0/0
  2548 ;;		Unchanged: 0/0
  2549 ;; Data sizes:     COMMON   BANK0   BANK1   BANK3   BANK2
  2550 ;;      Params:         0       4       0       0       0
  2551 ;;      Locals:         0       2       0       0       0
  2552 ;;      Temps:          0       5       0       0       0
  2553 ;;      Totals:         0      11       0       0       0
  2554 ;;Total ram usage:       11 bytes
  2555 ;; Hardware stack levels used:    1
  2556 ;; Hardware stack levels required when called:    1
  2557 ;; This function calls:
  2558 ;;		Nothing
  2559 ;; This function is called by:
  2560 ;;		_main
  2561 ;;		_ANALOGICOS
  2562 ;; This function uses a non-reentrant model
  2563 ;;
  2564                           
  2565                           
  2566                           ;psect for function ___fltol
  2567  0773                     ___fltol:
  2568  0773                     l1602:	
  2569                           ;incstack = 0
  2570                           ; Regs used in ___fltol: [wreg+status,2+status,0]
  2571                           
  2572  0773  1003               	clrc
  2573  0774  1283               	bcf	3,5	;RP0=0, select bank0
  2574  0775  1303               	bcf	3,6	;RP1=0, select bank0
  2575  0776  0D5E               	rlf	___fltol@f1+2,w
  2576  0777  0D5F               	rlf	___fltol@f1+3,w
  2577  0778  00E0               	movwf	??___fltol
  2578  0779  0860               	movf	??___fltol,w
  2579  077A  00E6               	movwf	___fltol@exp1
  2580  077B  0866               	movf	___fltol@exp1,w
  2581  077C  1D03               	btfss	3,2
  2582  077D  2F7F               	goto	u1401
  2583  077E  2F80               	goto	u1400
  2584  077F                     u1401:
  2585  077F  2F89               	goto	l1608
  2586  0780                     u1400:
  2587  0780                     l1604:
  2588  0780  3000               	movlw	0
  2589  0781  00DF               	movwf	?___fltol+3
  2590  0782  3000               	movlw	0
  2591  0783  00DE               	movwf	?___fltol+2
  2592  0784  3000               	movlw	0
  2593  0785  00DD               	movwf	?___fltol+1
  2594  0786  3000               	movlw	0
  2595  0787  00DC               	movwf	?___fltol
  2596  0788  2FEE               	goto	l474
  2597  0789                     l1608:
  2598  0789  085C               	movf	___fltol@f1,w
  2599  078A  00E0               	movwf	??___fltol
  2600  078B  085D               	movf	___fltol@f1+1,w
  2601  078C  00E1               	movwf	??___fltol+1
  2602  078D  085E               	movf	___fltol@f1+2,w
  2603  078E  00E2               	movwf	??___fltol+2
  2604  078F  085F               	movf	___fltol@f1+3,w
  2605  0790  00E3               	movwf	??___fltol+3
  2606  0791  301F               	movlw	31
  2607  0792                     u1415:
  2608  0792  1003               	clrc
  2609  0793  0CE3               	rrf	??___fltol+3,f
  2610  0794  0CE2               	rrf	??___fltol+2,f
  2611  0795  0CE1               	rrf	??___fltol+1,f
  2612  0796  0CE0               	rrf	??___fltol,f
  2613  0797                     u1410:
  2614  0797  3EFF               	addlw	-1
  2615  0798  1D03               	skipz
  2616  0799  2F92               	goto	u1415
  2617  079A  0860               	movf	??___fltol,w
  2618  079B  00E4               	movwf	??___fltol+4
  2619  079C  0864               	movf	??___fltol+4,w
  2620  079D  00E5               	movwf	___fltol@sign1
  2621  079E                     l1610:
  2622  079E  17DE               	bsf	___fltol@f1+2,7
  2623  079F                     l1612:
  2624  079F  30FF               	movlw	255
  2625  07A0  05DC               	andwf	___fltol@f1,f
  2626  07A1  30FF               	movlw	255
  2627  07A2  05DD               	andwf	___fltol@f1+1,f
  2628  07A3  30FF               	movlw	255
  2629  07A4  05DE               	andwf	___fltol@f1+2,f
  2630  07A5  3000               	movlw	0
  2631  07A6  05DF               	andwf	___fltol@f1+3,f
  2632  07A7                     l1614:
  2633  07A7  3096               	movlw	150
  2634  07A8  02E6               	subwf	___fltol@exp1,f
  2635  07A9                     l1616:
  2636  07A9  1FE6               	btfss	___fltol@exp1,7
  2637  07AA  2FAC               	goto	u1421
  2638  07AB  2FAD               	goto	u1420
  2639  07AC                     u1421:
  2640  07AC  2FC7               	goto	l1626
  2641  07AD                     u1420:
  2642  07AD                     l1618:
  2643  07AD  0866               	movf	___fltol@exp1,w
  2644  07AE  3A80               	xorlw	128
  2645  07AF  3E97               	addlw	151
  2646  07B0  1803               	skipnc
  2647  07B1  2FB3               	goto	u1431
  2648  07B2  2FB4               	goto	u1430
  2649  07B3                     u1431:
  2650  07B3  2FB5               	goto	l1624
  2651  07B4                     u1430:
  2652  07B4  2F80               	goto	l1604
  2653  07B5                     l1624:
  2654  07B5  3001               	movlw	1
  2655  07B6                     u1445:
  2656  07B6  1003               	clrc
  2657  07B7  0CDF               	rrf	___fltol@f1+3,f
  2658  07B8  0CDE               	rrf	___fltol@f1+2,f
  2659  07B9  0CDD               	rrf	___fltol@f1+1,f
  2660  07BA  0CDC               	rrf	___fltol@f1,f
  2661  07BB  3EFF               	addlw	-1
  2662  07BC  1D03               	skipz
  2663  07BD  2FB6               	goto	u1445
  2664  07BE  3001               	movlw	1
  2665  07BF  00E0               	movwf	??___fltol
  2666  07C0  0860               	movf	??___fltol,w
  2667  07C1  07E6               	addwf	___fltol@exp1,f
  2668  07C2  1D03               	btfss	3,2
  2669  07C3  2FC5               	goto	u1451
  2670  07C4  2FC6               	goto	u1450
  2671  07C5                     u1451:
  2672  07C5  2FB5               	goto	l1624
  2673  07C6                     u1450:
  2674  07C6  2FDE               	goto	l1634
  2675  07C7                     l1626:
  2676  07C7  3020               	movlw	32
  2677  07C8  0266               	subwf	___fltol@exp1,w
  2678  07C9  1C03               	skipc
  2679  07CA  2FCC               	goto	u1461
  2680  07CB  2FCD               	goto	u1460
  2681  07CC                     u1461:
  2682  07CC  2FD9               	goto	l481
  2683  07CD                     u1460:
  2684  07CD  2F80               	goto	l1604
  2685  07CE                     l1632:
  2686  07CE  3001               	movlw	1
  2687  07CF  00E0               	movwf	??___fltol
  2688  07D0                     u1475:
  2689  07D0  1003               	clrc
  2690  07D1  0DDC               	rlf	___fltol@f1,f
  2691  07D2  0DDD               	rlf	___fltol@f1+1,f
  2692  07D3  0DDE               	rlf	___fltol@f1+2,f
  2693  07D4  0DDF               	rlf	___fltol@f1+3,f
  2694  07D5  0BE0               	decfsz	??___fltol,f
  2695  07D6  2FD0               	goto	u1475
  2696  07D7  3001               	movlw	1
  2697  07D8  02E6               	subwf	___fltol@exp1,f
  2698  07D9                     l481:
  2699  07D9  0866               	movf	___fltol@exp1,w
  2700  07DA  1D03               	btfss	3,2
  2701  07DB  2FDD               	goto	u1481
  2702  07DC  2FDE               	goto	u1480
  2703  07DD                     u1481:
  2704  07DD  2FCE               	goto	l1632
  2705  07DE                     u1480:
  2706  07DE                     l1634:
  2707  07DE  0865               	movf	___fltol@sign1,w
  2708  07DF  1903               	btfsc	3,2
  2709  07E0  2FE2               	goto	u1491
  2710  07E1  2FE3               	goto	u1490
  2711  07E2                     u1491:
  2712  07E2  2FEE               	goto	l484
  2713  07E3                     u1490:
  2714  07E3                     l1636:
  2715  07E3  09DC               	comf	___fltol@f1,f
  2716  07E4  09DD               	comf	___fltol@f1+1,f
  2717  07E5  09DE               	comf	___fltol@f1+2,f
  2718  07E6  09DF               	comf	___fltol@f1+3,f
  2719  07E7  0ADC               	incf	___fltol@f1,f
  2720  07E8  1903               	skipnz
  2721  07E9  0ADD               	incf	___fltol@f1+1,f
  2722  07EA  1903               	skipnz
  2723  07EB  0ADE               	incf	___fltol@f1+2,f
  2724  07EC  1903               	skipnz
  2725  07ED  0ADF               	incf	___fltol@f1+3,f
  2726  07EE                     l484:
  2727  07EE                     l474:
  2728  07EE  0008               	return
  2729  07EF                     __end_of___fltol:
  2730                           
  2731                           	psect	text7
  2732  0043                     __ptext7:	
  2733 ;; *************** function ___flmul *****************
  2734 ;; Defined at:
  2735 ;;		line 8 in file "C:\Program Files\Microchip\xc8\v2.31\pic\sources\c90\common\sprcmul.c"
  2736 ;; Parameters:    Size  Location     Type
  2737 ;;  b               4   14[BANK0 ] long 
  2738 ;;  a               4   18[BANK0 ] long 
  2739 ;; Auto vars:     Size  Location     Type
  2740 ;;  prod            4   34[BANK0 ] struct .
  2741 ;;  grs             4   29[BANK0 ] unsigned long 
  2742 ;;  temp            2   38[BANK0 ] struct .
  2743 ;;  bexp            1   33[BANK0 ] unsigned char 
  2744 ;;  aexp            1   28[BANK0 ] unsigned char 
  2745 ;;  sign            1   27[BANK0 ] unsigned char 
  2746 ;; Return value:  Size  Location     Type
  2747 ;;                  4   14[BANK0 ] unsigned char 
  2748 ;; Registers used:
  2749 ;;		wreg, status,2, status,0, btemp+1, pclath, cstack
  2750 ;; Tracked objects:
  2751 ;;		On entry : 0/0
  2752 ;;		On exit  : 0/0
  2753 ;;		Unchanged: 0/0
  2754 ;; Data sizes:     COMMON   BANK0   BANK1   BANK3   BANK2
  2755 ;;      Params:         0       8       0       0       0
  2756 ;;      Locals:         0      13       0       0       0
  2757 ;;      Temps:          0       5       0       0       0
  2758 ;;      Totals:         0      26       0       0       0
  2759 ;;Total ram usage:       26 bytes
  2760 ;; Hardware stack levels used:    1
  2761 ;; Hardware stack levels required when called:    2
  2762 ;; This function calls:
  2763 ;;		__Umul8_16
  2764 ;; This function is called by:
  2765 ;;		_main
  2766 ;;		_ANALOGICOS
  2767 ;; This function uses a non-reentrant model
  2768 ;;
  2769                           
  2770                           
  2771                           ;psect for function ___flmul
  2772  0043                     ___flmul:
  2773  0043                     l2396:	
  2774                           ;incstack = 0
  2775                           ; Regs used in ___flmul: [wreg+status,2+status,0+btemp+1+pclath+cstack]
  2776                           
  2777  0043  1283               	bcf	3,5	;RP0=0, select bank0
  2778  0044  1303               	bcf	3,6	;RP1=0, select bank0
  2779  0045  0831               	movf	___flmul@b+3,w
  2780  0046  3980               	andlw	128
  2781  0047  00B6               	movwf	??___flmul
  2782  0048  0836               	movf	??___flmul,w
  2783  0049  00BB               	movwf	___flmul@sign
  2784  004A                     l2398:
  2785  004A  0831               	movf	___flmul@b+3,w
  2786  004B  00B6               	movwf	??___flmul
  2787  004C  0736               	addwf	??___flmul,w
  2788  004D  00B7               	movwf	??___flmul+1
  2789  004E  0837               	movf	??___flmul+1,w
  2790  004F  00C1               	movwf	___flmul@bexp
  2791  0050                     l2400:
  2792  0050  1FB0               	btfss	___flmul@b+2,7
  2793  0051  2853               	goto	u2761
  2794  0052  2854               	goto	u2760
  2795  0053                     u2761:
  2796  0053  2855               	goto	l2404
  2797  0054                     u2760:
  2798  0054                     l2402:
  2799  0054  1441               	bsf	___flmul@bexp,0
  2800  0055                     l2404:
  2801  0055  0841               	movf	___flmul@bexp,w
  2802  0056  1903               	btfsc	3,2
  2803  0057  2859               	goto	u2771
  2804  0058  285A               	goto	u2770
  2805  0059                     u2771:
  2806  0059  2869               	goto	l2412
  2807  005A                     u2770:
  2808  005A                     l2406:
  2809  005A  0A41               	incf	___flmul@bexp,w
  2810  005B  1D03               	btfss	3,2
  2811  005C  285E               	goto	u2781
  2812  005D  285F               	goto	u2780
  2813  005E                     u2781:
  2814  005E  2867               	goto	l2410
  2815  005F                     u2780:
  2816  005F                     l2408:
  2817  005F  3000               	movlw	0
  2818  0060  00B1               	movwf	___flmul@b+3
  2819  0061  3000               	movlw	0
  2820  0062  00B0               	movwf	___flmul@b+2
  2821  0063  3000               	movlw	0
  2822  0064  00AF               	movwf	___flmul@b+1
  2823  0065  3000               	movlw	0
  2824  0066  00AE               	movwf	___flmul@b
  2825  0067                     l2410:
  2826  0067  17B0               	bsf	___flmul@b+2,7
  2827  0068  2871               	goto	l2414
  2828  0069                     l2412:
  2829  0069  3000               	movlw	0
  2830  006A  00B1               	movwf	___flmul@b+3
  2831  006B  3000               	movlw	0
  2832  006C  00B0               	movwf	___flmul@b+2
  2833  006D  3000               	movlw	0
  2834  006E  00AF               	movwf	___flmul@b+1
  2835  006F  3000               	movlw	0
  2836  0070  00AE               	movwf	___flmul@b
  2837  0071                     l2414:
  2838  0071  0835               	movf	___flmul@a+3,w
  2839  0072  3980               	andlw	128
  2840  0073  00B6               	movwf	??___flmul
  2841  0074  0836               	movf	??___flmul,w
  2842  0075  06BB               	xorwf	___flmul@sign,f
  2843  0076                     l2416:
  2844  0076  0835               	movf	___flmul@a+3,w
  2845  0077  00B6               	movwf	??___flmul
  2846  0078  0736               	addwf	??___flmul,w
  2847  0079  00B7               	movwf	??___flmul+1
  2848  007A  0837               	movf	??___flmul+1,w
  2849  007B  00BC               	movwf	___flmul@aexp
  2850  007C                     l2418:
  2851  007C  1FB4               	btfss	___flmul@a+2,7
  2852  007D  287F               	goto	u2791
  2853  007E  2880               	goto	u2790
  2854  007F                     u2791:
  2855  007F  2881               	goto	l2422
  2856  0080                     u2790:
  2857  0080                     l2420:
  2858  0080  143C               	bsf	___flmul@aexp,0
  2859  0081                     l2422:
  2860  0081  083C               	movf	___flmul@aexp,w
  2861  0082  1903               	btfsc	3,2
  2862  0083  2885               	goto	u2801
  2863  0084  2886               	goto	u2800
  2864  0085                     u2801:
  2865  0085  2895               	goto	l2430
  2866  0086                     u2800:
  2867  0086                     l2424:
  2868  0086  0A3C               	incf	___flmul@aexp,w
  2869  0087  1D03               	btfss	3,2
  2870  0088  288A               	goto	u2811
  2871  0089  288B               	goto	u2810
  2872  008A                     u2811:
  2873  008A  2893               	goto	l2428
  2874  008B                     u2810:
  2875  008B                     l2426:
  2876  008B  3000               	movlw	0
  2877  008C  00B5               	movwf	___flmul@a+3
  2878  008D  3000               	movlw	0
  2879  008E  00B4               	movwf	___flmul@a+2
  2880  008F  3000               	movlw	0
  2881  0090  00B3               	movwf	___flmul@a+1
  2882  0091  3000               	movlw	0
  2883  0092  00B2               	movwf	___flmul@a
  2884  0093                     l2428:
  2885  0093  17B4               	bsf	___flmul@a+2,7
  2886  0094  289D               	goto	l2432
  2887  0095                     l2430:
  2888  0095  3000               	movlw	0
  2889  0096  00B5               	movwf	___flmul@a+3
  2890  0097  3000               	movlw	0
  2891  0098  00B4               	movwf	___flmul@a+2
  2892  0099  3000               	movlw	0
  2893  009A  00B3               	movwf	___flmul@a+1
  2894  009B  3000               	movlw	0
  2895  009C  00B2               	movwf	___flmul@a
  2896  009D                     l2432:
  2897  009D  083C               	movf	___flmul@aexp,w
  2898  009E  1903               	btfsc	3,2
  2899  009F  28A1               	goto	u2821
  2900  00A0  28A2               	goto	u2820
  2901  00A1                     u2821:
  2902  00A1  28A7               	goto	l2436
  2903  00A2                     u2820:
  2904  00A2                     l2434:
  2905  00A2  0841               	movf	___flmul@bexp,w
  2906  00A3  1D03               	btfss	3,2
  2907  00A4  28A6               	goto	u2831
  2908  00A5  28A7               	goto	u2830
  2909  00A6                     u2831:
  2910  00A6  28B0               	goto	l2440
  2911  00A7                     u2830:
  2912  00A7                     l2436:
  2913  00A7  3000               	movlw	0
  2914  00A8  00B1               	movwf	?___flmul+3
  2915  00A9  3000               	movlw	0
  2916  00AA  00B0               	movwf	?___flmul+2
  2917  00AB  3000               	movlw	0
  2918  00AC  00AF               	movwf	?___flmul+1
  2919  00AD  3000               	movlw	0
  2920  00AE  00AE               	movwf	?___flmul
  2921  00AF  2BA3               	goto	l677
  2922  00B0                     l2440:
  2923  00B0  082E               	movf	___flmul@b,w
  2924  00B1  00B6               	movwf	??___flmul
  2925  00B2  0836               	movf	??___flmul,w
  2926  00B3  00A0               	movwf	__Umul8_16@multiplicand
  2927  00B4  0834               	movf	___flmul@a+2,w
  2928  00B5  120A  158A  23DB  120A  118A  	fcall	__Umul8_16
  2929  00BA  1283               	bcf	3,5	;RP0=0, select bank0
  2930  00BB  1303               	bcf	3,6	;RP1=0, select bank0
  2931  00BC  0821               	movf	?__Umul8_16+1,w
  2932  00BD  00C7               	movwf	___flmul@temp+1
  2933  00BE  0820               	movf	?__Umul8_16,w
  2934  00BF  00C6               	movwf	___flmul@temp
  2935  00C0                     l2442:
  2936  00C0  0846               	movf	___flmul@temp,w
  2937  00C1  00B6               	movwf	??___flmul
  2938  00C2  01B7               	clrf	??___flmul+1
  2939  00C3  01B8               	clrf	??___flmul+2
  2940  00C4  01B9               	clrf	??___flmul+3
  2941  00C5  0839               	movf	??___flmul+3,w
  2942  00C6  00C0               	movwf	___flmul@grs+3
  2943  00C7  0838               	movf	??___flmul+2,w
  2944  00C8  00BF               	movwf	___flmul@grs+2
  2945  00C9  0837               	movf	??___flmul+1,w
  2946  00CA  00BE               	movwf	___flmul@grs+1
  2947  00CB  0836               	movf	??___flmul,w
  2948  00CC  00BD               	movwf	___flmul@grs
  2949  00CD                     l2444:
  2950  00CD  0847               	movf	___flmul@temp+1,w
  2951  00CE  00B6               	movwf	??___flmul
  2952  00CF  01B7               	clrf	??___flmul+1
  2953  00D0  01B8               	clrf	??___flmul+2
  2954  00D1  01B9               	clrf	??___flmul+3
  2955  00D2  0839               	movf	??___flmul+3,w
  2956  00D3  00C5               	movwf	___flmul@prod+3
  2957  00D4  0838               	movf	??___flmul+2,w
  2958  00D5  00C4               	movwf	___flmul@prod+2
  2959  00D6  0837               	movf	??___flmul+1,w
  2960  00D7  00C3               	movwf	___flmul@prod+1
  2961  00D8  0836               	movf	??___flmul,w
  2962  00D9  00C2               	movwf	___flmul@prod
  2963  00DA  082F               	movf	___flmul@b+1,w
  2964  00DB  00B6               	movwf	??___flmul
  2965  00DC  0836               	movf	??___flmul,w
  2966  00DD  00A0               	movwf	__Umul8_16@multiplicand
  2967  00DE  0833               	movf	___flmul@a+1,w
  2968  00DF  120A  158A  23DB  120A  118A  	fcall	__Umul8_16
  2969  00E4  1283               	bcf	3,5	;RP0=0, select bank0
  2970  00E5  1303               	bcf	3,6	;RP1=0, select bank0
  2971  00E6  0821               	movf	?__Umul8_16+1,w
  2972  00E7  00C7               	movwf	___flmul@temp+1
  2973  00E8  0820               	movf	?__Umul8_16,w
  2974  00E9  00C6               	movwf	___flmul@temp
  2975  00EA                     l2446:
  2976  00EA  0846               	movf	___flmul@temp,w
  2977  00EB  00B6               	movwf	??___flmul
  2978  00EC  01B7               	clrf	??___flmul+1
  2979  00ED  01B8               	clrf	??___flmul+2
  2980  00EE  01B9               	clrf	??___flmul+3
  2981  00EF  0836               	movf	??___flmul,w
  2982  00F0  07BD               	addwf	___flmul@grs,f
  2983  00F1  0837               	movf	??___flmul+1,w
  2984  00F2  1103               	clrz
  2985  00F3  1803               	skipnc
  2986  00F4  3E01               	addlw	1
  2987  00F5  1903               	skipnz
  2988  00F6  28F8               	goto	u2841
  2989  00F7  07BE               	addwf	___flmul@grs+1,f
  2990  00F8                     u2841:
  2991  00F8  0838               	movf	??___flmul+2,w
  2992  00F9  1103               	clrz
  2993  00FA  1803               	skipnc
  2994  00FB  3E01               	addlw	1
  2995  00FC  1903               	skipnz
  2996  00FD  28FF               	goto	u2842
  2997  00FE  07BF               	addwf	___flmul@grs+2,f
  2998  00FF                     u2842:
  2999  00FF  0839               	movf	??___flmul+3,w
  3000  0100  1103               	clrz
  3001  0101  1803               	skipnc
  3002  0102  3E01               	addlw	1
  3003  0103  1903               	skipnz
  3004  0104  2906               	goto	u2843
  3005  0105  07C0               	addwf	___flmul@grs+3,f
  3006  0106                     u2843:
  3007  0106                     l2448:
  3008  0106  0847               	movf	___flmul@temp+1,w
  3009  0107  00B6               	movwf	??___flmul
  3010  0108  01B7               	clrf	??___flmul+1
  3011  0109  01B8               	clrf	??___flmul+2
  3012  010A  01B9               	clrf	??___flmul+3
  3013  010B  0836               	movf	??___flmul,w
  3014  010C  07C2               	addwf	___flmul@prod,f
  3015  010D  0837               	movf	??___flmul+1,w
  3016  010E  1103               	clrz
  3017  010F  1803               	skipnc
  3018  0110  3E01               	addlw	1
  3019  0111  1903               	skipnz
  3020  0112  2914               	goto	u2851
  3021  0113  07C3               	addwf	___flmul@prod+1,f
  3022  0114                     u2851:
  3023  0114  0838               	movf	??___flmul+2,w
  3024  0115  1103               	clrz
  3025  0116  1803               	skipnc
  3026  0117  3E01               	addlw	1
  3027  0118  1903               	skipnz
  3028  0119  291B               	goto	u2852
  3029  011A  07C4               	addwf	___flmul@prod+2,f
  3030  011B                     u2852:
  3031  011B  0839               	movf	??___flmul+3,w
  3032  011C  1103               	clrz
  3033  011D  1803               	skipnc
  3034  011E  3E01               	addlw	1
  3035  011F  1903               	skipnz
  3036  0120  2922               	goto	u2853
  3037  0121  07C5               	addwf	___flmul@prod+3,f
  3038  0122                     u2853:
  3039  0122  0830               	movf	___flmul@b+2,w
  3040  0123  00B6               	movwf	??___flmul
  3041  0124  0836               	movf	??___flmul,w
  3042  0125  00A0               	movwf	__Umul8_16@multiplicand
  3043  0126  0832               	movf	___flmul@a,w
  3044  0127  120A  158A  23DB  120A  118A  	fcall	__Umul8_16
  3045  012C  1283               	bcf	3,5	;RP0=0, select bank0
  3046  012D  1303               	bcf	3,6	;RP1=0, select bank0
  3047  012E  0821               	movf	?__Umul8_16+1,w
  3048  012F  00C7               	movwf	___flmul@temp+1
  3049  0130  0820               	movf	?__Umul8_16,w
  3050  0131  00C6               	movwf	___flmul@temp
  3051  0132                     l2450:
  3052  0132  0846               	movf	___flmul@temp,w
  3053  0133  00B6               	movwf	??___flmul
  3054  0134  01B7               	clrf	??___flmul+1
  3055  0135  01B8               	clrf	??___flmul+2
  3056  0136  01B9               	clrf	??___flmul+3
  3057  0137  0836               	movf	??___flmul,w
  3058  0138  07BD               	addwf	___flmul@grs,f
  3059  0139  0837               	movf	??___flmul+1,w
  3060  013A  1103               	clrz
  3061  013B  1803               	skipnc
  3062  013C  3E01               	addlw	1
  3063  013D  1903               	skipnz
  3064  013E  2940               	goto	u2861
  3065  013F  07BE               	addwf	___flmul@grs+1,f
  3066  0140                     u2861:
  3067  0140  0838               	movf	??___flmul+2,w
  3068  0141  1103               	clrz
  3069  0142  1803               	skipnc
  3070  0143  3E01               	addlw	1
  3071  0144  1903               	skipnz
  3072  0145  2947               	goto	u2862
  3073  0146  07BF               	addwf	___flmul@grs+2,f
  3074  0147                     u2862:
  3075  0147  0839               	movf	??___flmul+3,w
  3076  0148  1103               	clrz
  3077  0149  1803               	skipnc
  3078  014A  3E01               	addlw	1
  3079  014B  1903               	skipnz
  3080  014C  294E               	goto	u2863
  3081  014D  07C0               	addwf	___flmul@grs+3,f
  3082  014E                     u2863:
  3083  014E                     l2452:
  3084  014E  0847               	movf	___flmul@temp+1,w
  3085  014F  00B6               	movwf	??___flmul
  3086  0150  01B7               	clrf	??___flmul+1
  3087  0151  01B8               	clrf	??___flmul+2
  3088  0152  01B9               	clrf	??___flmul+3
  3089  0153  0836               	movf	??___flmul,w
  3090  0154  07C2               	addwf	___flmul@prod,f
  3091  0155  0837               	movf	??___flmul+1,w
  3092  0156  1103               	clrz
  3093  0157  1803               	skipnc
  3094  0158  3E01               	addlw	1
  3095  0159  1903               	skipnz
  3096  015A  295C               	goto	u2871
  3097  015B  07C3               	addwf	___flmul@prod+1,f
  3098  015C                     u2871:
  3099  015C  0838               	movf	??___flmul+2,w
  3100  015D  1103               	clrz
  3101  015E  1803               	skipnc
  3102  015F  3E01               	addlw	1
  3103  0160  1903               	skipnz
  3104  0161  2963               	goto	u2872
  3105  0162  07C4               	addwf	___flmul@prod+2,f
  3106  0163                     u2872:
  3107  0163  0839               	movf	??___flmul+3,w
  3108  0164  1103               	clrz
  3109  0165  1803               	skipnc
  3110  0166  3E01               	addlw	1
  3111  0167  1903               	skipnz
  3112  0168  296A               	goto	u2873
  3113  0169  07C5               	addwf	___flmul@prod+3,f
  3114  016A                     u2873:
  3115  016A                     l2454:
  3116  016A  3008               	movlw	8
  3117  016B  00B6               	movwf	??___flmul
  3118  016C                     u2885:
  3119  016C  1003               	clrc
  3120  016D  0DBD               	rlf	___flmul@grs,f
  3121  016E  0DBE               	rlf	___flmul@grs+1,f
  3122  016F  0DBF               	rlf	___flmul@grs+2,f
  3123  0170  0DC0               	rlf	___flmul@grs+3,f
  3124  0171  0BB6               	decfsz	??___flmul,f
  3125  0172  296C               	goto	u2885
  3126  0173                     l2456:
  3127  0173  082F               	movf	___flmul@b+1,w
  3128  0174  00B6               	movwf	??___flmul
  3129  0175  0836               	movf	??___flmul,w
  3130  0176  00A0               	movwf	__Umul8_16@multiplicand
  3131  0177  0832               	movf	___flmul@a,w
  3132  0178  120A  158A  23DB  120A  118A  	fcall	__Umul8_16
  3133  017D  1283               	bcf	3,5	;RP0=0, select bank0
  3134  017E  1303               	bcf	3,6	;RP1=0, select bank0
  3135  017F  0821               	movf	?__Umul8_16+1,w
  3136  0180  00C7               	movwf	___flmul@temp+1
  3137  0181  0820               	movf	?__Umul8_16,w
  3138  0182  00C6               	movwf	___flmul@temp
  3139  0183                     l2458:
  3140  0183  0846               	movf	___flmul@temp,w
  3141  0184  00B6               	movwf	??___flmul
  3142  0185  0847               	movf	___flmul@temp+1,w
  3143  0186  00B7               	movwf	??___flmul+1
  3144  0187  01B8               	clrf	??___flmul+2
  3145  0188  01B9               	clrf	??___flmul+3
  3146  0189  0836               	movf	??___flmul,w
  3147  018A  07BD               	addwf	___flmul@grs,f
  3148  018B  0837               	movf	??___flmul+1,w
  3149  018C  1103               	clrz
  3150  018D  1803               	skipnc
  3151  018E  3E01               	addlw	1
  3152  018F  1903               	skipnz
  3153  0190  2992               	goto	u2891
  3154  0191  07BE               	addwf	___flmul@grs+1,f
  3155  0192                     u2891:
  3156  0192  0838               	movf	??___flmul+2,w
  3157  0193  1103               	clrz
  3158  0194  1803               	skipnc
  3159  0195  3E01               	addlw	1
  3160  0196  1903               	skipnz
  3161  0197  2999               	goto	u2892
  3162  0198  07BF               	addwf	___flmul@grs+2,f
  3163  0199                     u2892:
  3164  0199  0839               	movf	??___flmul+3,w
  3165  019A  1103               	clrz
  3166  019B  1803               	skipnc
  3167  019C  3E01               	addlw	1
  3168  019D  1903               	skipnz
  3169  019E  29A0               	goto	u2893
  3170  019F  07C0               	addwf	___flmul@grs+3,f
  3171  01A0                     u2893:
  3172  01A0                     l2460:
  3173  01A0  082E               	movf	___flmul@b,w
  3174  01A1  00B6               	movwf	??___flmul
  3175  01A2  0836               	movf	??___flmul,w
  3176  01A3  00A0               	movwf	__Umul8_16@multiplicand
  3177  01A4  0833               	movf	___flmul@a+1,w
  3178  01A5  120A  158A  23DB  120A  118A  	fcall	__Umul8_16
  3179  01AA  1283               	bcf	3,5	;RP0=0, select bank0
  3180  01AB  1303               	bcf	3,6	;RP1=0, select bank0
  3181  01AC  0821               	movf	?__Umul8_16+1,w
  3182  01AD  00C7               	movwf	___flmul@temp+1
  3183  01AE  0820               	movf	?__Umul8_16,w
  3184  01AF  00C6               	movwf	___flmul@temp
  3185  01B0                     l2462:
  3186  01B0  0846               	movf	___flmul@temp,w
  3187  01B1  00B6               	movwf	??___flmul
  3188  01B2  0847               	movf	___flmul@temp+1,w
  3189  01B3  00B7               	movwf	??___flmul+1
  3190  01B4  01B8               	clrf	??___flmul+2
  3191  01B5  01B9               	clrf	??___flmul+3
  3192  01B6  0836               	movf	??___flmul,w
  3193  01B7  07BD               	addwf	___flmul@grs,f
  3194  01B8  0837               	movf	??___flmul+1,w
  3195  01B9  1103               	clrz
  3196  01BA  1803               	skipnc
  3197  01BB  3E01               	addlw	1
  3198  01BC  1903               	skipnz
  3199  01BD  29BF               	goto	u2901
  3200  01BE  07BE               	addwf	___flmul@grs+1,f
  3201  01BF                     u2901:
  3202  01BF  0838               	movf	??___flmul+2,w
  3203  01C0  1103               	clrz
  3204  01C1  1803               	skipnc
  3205  01C2  3E01               	addlw	1
  3206  01C3  1903               	skipnz
  3207  01C4  29C6               	goto	u2902
  3208  01C5  07BF               	addwf	___flmul@grs+2,f
  3209  01C6                     u2902:
  3210  01C6  0839               	movf	??___flmul+3,w
  3211  01C7  1103               	clrz
  3212  01C8  1803               	skipnc
  3213  01C9  3E01               	addlw	1
  3214  01CA  1903               	skipnz
  3215  01CB  29CD               	goto	u2903
  3216  01CC  07C0               	addwf	___flmul@grs+3,f
  3217  01CD                     u2903:
  3218  01CD                     l2464:
  3219  01CD  3008               	movlw	8
  3220  01CE  00B6               	movwf	??___flmul
  3221  01CF                     u2915:
  3222  01CF  1003               	clrc
  3223  01D0  0DBD               	rlf	___flmul@grs,f
  3224  01D1  0DBE               	rlf	___flmul@grs+1,f
  3225  01D2  0DBF               	rlf	___flmul@grs+2,f
  3226  01D3  0DC0               	rlf	___flmul@grs+3,f
  3227  01D4  0BB6               	decfsz	??___flmul,f
  3228  01D5  29CF               	goto	u2915
  3229  01D6  082E               	movf	___flmul@b,w
  3230  01D7  00B6               	movwf	??___flmul
  3231  01D8  0836               	movf	??___flmul,w
  3232  01D9  00A0               	movwf	__Umul8_16@multiplicand
  3233  01DA  0832               	movf	___flmul@a,w
  3234  01DB  120A  158A  23DB  120A  118A  	fcall	__Umul8_16
  3235  01E0  1283               	bcf	3,5	;RP0=0, select bank0
  3236  01E1  1303               	bcf	3,6	;RP1=0, select bank0
  3237  01E2  0821               	movf	?__Umul8_16+1,w
  3238  01E3  00C7               	movwf	___flmul@temp+1
  3239  01E4  0820               	movf	?__Umul8_16,w
  3240  01E5  00C6               	movwf	___flmul@temp
  3241  01E6                     l2466:
  3242  01E6  0846               	movf	___flmul@temp,w
  3243  01E7  00B6               	movwf	??___flmul
  3244  01E8  0847               	movf	___flmul@temp+1,w
  3245  01E9  00B7               	movwf	??___flmul+1
  3246  01EA  01B8               	clrf	??___flmul+2
  3247  01EB  01B9               	clrf	??___flmul+3
  3248  01EC  0836               	movf	??___flmul,w
  3249  01ED  07BD               	addwf	___flmul@grs,f
  3250  01EE  0837               	movf	??___flmul+1,w
  3251  01EF  1103               	clrz
  3252  01F0  1803               	skipnc
  3253  01F1  3E01               	addlw	1
  3254  01F2  1903               	skipnz
  3255  01F3  29F5               	goto	u2921
  3256  01F4  07BE               	addwf	___flmul@grs+1,f
  3257  01F5                     u2921:
  3258  01F5  0838               	movf	??___flmul+2,w
  3259  01F6  1103               	clrz
  3260  01F7  1803               	skipnc
  3261  01F8  3E01               	addlw	1
  3262  01F9  1903               	skipnz
  3263  01FA  29FC               	goto	u2922
  3264  01FB  07BF               	addwf	___flmul@grs+2,f
  3265  01FC                     u2922:
  3266  01FC  0839               	movf	??___flmul+3,w
  3267  01FD  1103               	clrz
  3268  01FE  1803               	skipnc
  3269  01FF  3E01               	addlw	1
  3270  0200  1903               	skipnz
  3271  0201  2A03               	goto	u2923
  3272  0202  07C0               	addwf	___flmul@grs+3,f
  3273  0203                     u2923:
  3274  0203                     l2468:
  3275  0203  082F               	movf	___flmul@b+1,w
  3276  0204  00B6               	movwf	??___flmul
  3277  0205  0836               	movf	??___flmul,w
  3278  0206  00A0               	movwf	__Umul8_16@multiplicand
  3279  0207  0834               	movf	___flmul@a+2,w
  3280  0208  120A  158A  23DB  120A  118A  	fcall	__Umul8_16
  3281  020D  1283               	bcf	3,5	;RP0=0, select bank0
  3282  020E  1303               	bcf	3,6	;RP1=0, select bank0
  3283  020F  0821               	movf	?__Umul8_16+1,w
  3284  0210  00C7               	movwf	___flmul@temp+1
  3285  0211  0820               	movf	?__Umul8_16,w
  3286  0212  00C6               	movwf	___flmul@temp
  3287  0213  0846               	movf	___flmul@temp,w
  3288  0214  00B6               	movwf	??___flmul
  3289  0215  0847               	movf	___flmul@temp+1,w
  3290  0216  00B7               	movwf	??___flmul+1
  3291  0217  01B8               	clrf	??___flmul+2
  3292  0218  01B9               	clrf	??___flmul+3
  3293  0219  0836               	movf	??___flmul,w
  3294  021A  07C2               	addwf	___flmul@prod,f
  3295  021B  0837               	movf	??___flmul+1,w
  3296  021C  1103               	clrz
  3297  021D  1803               	skipnc
  3298  021E  3E01               	addlw	1
  3299  021F  1903               	skipnz
  3300  0220  2A22               	goto	u2931
  3301  0221  07C3               	addwf	___flmul@prod+1,f
  3302  0222                     u2931:
  3303  0222  0838               	movf	??___flmul+2,w
  3304  0223  1103               	clrz
  3305  0224  1803               	skipnc
  3306  0225  3E01               	addlw	1
  3307  0226  1903               	skipnz
  3308  0227  2A29               	goto	u2932
  3309  0228  07C4               	addwf	___flmul@prod+2,f
  3310  0229                     u2932:
  3311  0229  0839               	movf	??___flmul+3,w
  3312  022A  1103               	clrz
  3313  022B  1803               	skipnc
  3314  022C  3E01               	addlw	1
  3315  022D  1903               	skipnz
  3316  022E  2A30               	goto	u2933
  3317  022F  07C5               	addwf	___flmul@prod+3,f
  3318  0230                     u2933:
  3319  0230                     l2470:
  3320  0230  0830               	movf	___flmul@b+2,w
  3321  0231  00B6               	movwf	??___flmul
  3322  0232  0836               	movf	??___flmul,w
  3323  0233  00A0               	movwf	__Umul8_16@multiplicand
  3324  0234  0833               	movf	___flmul@a+1,w
  3325  0235  120A  158A  23DB  120A  118A  	fcall	__Umul8_16
  3326  023A  1283               	bcf	3,5	;RP0=0, select bank0
  3327  023B  1303               	bcf	3,6	;RP1=0, select bank0
  3328  023C  0821               	movf	?__Umul8_16+1,w
  3329  023D  00C7               	movwf	___flmul@temp+1
  3330  023E  0820               	movf	?__Umul8_16,w
  3331  023F  00C6               	movwf	___flmul@temp
  3332  0240                     l2472:
  3333  0240  0846               	movf	___flmul@temp,w
  3334  0241  00B6               	movwf	??___flmul
  3335  0242  0847               	movf	___flmul@temp+1,w
  3336  0243  00B7               	movwf	??___flmul+1
  3337  0244  01B8               	clrf	??___flmul+2
  3338  0245  01B9               	clrf	??___flmul+3
  3339  0246  0836               	movf	??___flmul,w
  3340  0247  07C2               	addwf	___flmul@prod,f
  3341  0248  0837               	movf	??___flmul+1,w
  3342  0249  1103               	clrz
  3343  024A  1803               	skipnc
  3344  024B  3E01               	addlw	1
  3345  024C  1903               	skipnz
  3346  024D  2A4F               	goto	u2941
  3347  024E  07C3               	addwf	___flmul@prod+1,f
  3348  024F                     u2941:
  3349  024F  0838               	movf	??___flmul+2,w
  3350  0250  1103               	clrz
  3351  0251  1803               	skipnc
  3352  0252  3E01               	addlw	1
  3353  0253  1903               	skipnz
  3354  0254  2A56               	goto	u2942
  3355  0255  07C4               	addwf	___flmul@prod+2,f
  3356  0256                     u2942:
  3357  0256  0839               	movf	??___flmul+3,w
  3358  0257  1103               	clrz
  3359  0258  1803               	skipnc
  3360  0259  3E01               	addlw	1
  3361  025A  1903               	skipnz
  3362  025B  2A5D               	goto	u2943
  3363  025C  07C5               	addwf	___flmul@prod+3,f
  3364  025D                     u2943:
  3365  025D  0830               	movf	___flmul@b+2,w
  3366  025E  00B6               	movwf	??___flmul
  3367  025F  0836               	movf	??___flmul,w
  3368  0260  00A0               	movwf	__Umul8_16@multiplicand
  3369  0261  0834               	movf	___flmul@a+2,w
  3370  0262  120A  158A  23DB  120A  118A  	fcall	__Umul8_16
  3371  0267  1283               	bcf	3,5	;RP0=0, select bank0
  3372  0268  1303               	bcf	3,6	;RP1=0, select bank0
  3373  0269  0821               	movf	?__Umul8_16+1,w
  3374  026A  00C7               	movwf	___flmul@temp+1
  3375  026B  0820               	movf	?__Umul8_16,w
  3376  026C  00C6               	movwf	___flmul@temp
  3377  026D                     l2474:
  3378  026D  0846               	movf	___flmul@temp,w
  3379  026E  00B6               	movwf	??___flmul
  3380  026F  0847               	movf	___flmul@temp+1,w
  3381  0270  00B7               	movwf	??___flmul+1
  3382  0271  01B8               	clrf	??___flmul+2
  3383  0272  01B9               	clrf	??___flmul+3
  3384  0273  3008               	movlw	8
  3385  0274                     u2955:
  3386  0274  1003               	clrc
  3387  0275  0DB6               	rlf	??___flmul,f
  3388  0276  0DB7               	rlf	??___flmul+1,f
  3389  0277  0DB8               	rlf	??___flmul+2,f
  3390  0278  0DB9               	rlf	??___flmul+3,f
  3391  0279                     u2950:
  3392  0279  3EFF               	addlw	-1
  3393  027A  1D03               	skipz
  3394  027B  2A74               	goto	u2955
  3395  027C  0836               	movf	??___flmul,w
  3396  027D  07C2               	addwf	___flmul@prod,f
  3397  027E  0837               	movf	??___flmul+1,w
  3398  027F  1103               	clrz
  3399  0280  1803               	skipnc
  3400  0281  3E01               	addlw	1
  3401  0282  1903               	skipnz
  3402  0283  2A85               	goto	u2961
  3403  0284  07C3               	addwf	___flmul@prod+1,f
  3404  0285                     u2961:
  3405  0285  0838               	movf	??___flmul+2,w
  3406  0286  1103               	clrz
  3407  0287  1803               	skipnc
  3408  0288  3E01               	addlw	1
  3409  0289  1903               	skipnz
  3410  028A  2A8C               	goto	u2962
  3411  028B  07C4               	addwf	___flmul@prod+2,f
  3412  028C                     u2962:
  3413  028C  0839               	movf	??___flmul+3,w
  3414  028D  1103               	clrz
  3415  028E  1803               	skipnc
  3416  028F  3E01               	addlw	1
  3417  0290  1903               	skipnz
  3418  0291  2A93               	goto	u2963
  3419  0292  07C5               	addwf	___flmul@prod+3,f
  3420  0293                     u2963:
  3421  0293                     l2476:
  3422  0293  083D               	movf	___flmul@grs,w
  3423  0294  00B6               	movwf	??___flmul
  3424  0295  083E               	movf	___flmul@grs+1,w
  3425  0296  00B7               	movwf	??___flmul+1
  3426  0297  083F               	movf	___flmul@grs+2,w
  3427  0298  00B8               	movwf	??___flmul+2
  3428  0299  0840               	movf	___flmul@grs+3,w
  3429  029A  00B9               	movwf	??___flmul+3
  3430  029B  3018               	movlw	24
  3431  029C                     u2975:
  3432  029C  1003               	clrc
  3433  029D  0CB9               	rrf	??___flmul+3,f
  3434  029E  0CB8               	rrf	??___flmul+2,f
  3435  029F  0CB7               	rrf	??___flmul+1,f
  3436  02A0  0CB6               	rrf	??___flmul,f
  3437  02A1                     u2970:
  3438  02A1  3EFF               	addlw	-1
  3439  02A2  1D03               	skipz
  3440  02A3  2A9C               	goto	u2975
  3441  02A4  0836               	movf	??___flmul,w
  3442  02A5  07C2               	addwf	___flmul@prod,f
  3443  02A6  0837               	movf	??___flmul+1,w
  3444  02A7  1103               	clrz
  3445  02A8  1803               	skipnc
  3446  02A9  3E01               	addlw	1
  3447  02AA  1903               	skipnz
  3448  02AB  2AAD               	goto	u2981
  3449  02AC  07C3               	addwf	___flmul@prod+1,f
  3450  02AD                     u2981:
  3451  02AD  0838               	movf	??___flmul+2,w
  3452  02AE  1103               	clrz
  3453  02AF  1803               	skipnc
  3454  02B0  3E01               	addlw	1
  3455  02B1  1903               	skipnz
  3456  02B2  2AB4               	goto	u2982
  3457  02B3  07C4               	addwf	___flmul@prod+2,f
  3458  02B4                     u2982:
  3459  02B4  0839               	movf	??___flmul+3,w
  3460  02B5  1103               	clrz
  3461  02B6  1803               	skipnc
  3462  02B7  3E01               	addlw	1
  3463  02B8  1903               	skipnz
  3464  02B9  2ABB               	goto	u2983
  3465  02BA  07C5               	addwf	___flmul@prod+3,f
  3466  02BB                     u2983:
  3467  02BB                     l2478:
  3468  02BB  3008               	movlw	8
  3469  02BC  00B6               	movwf	??___flmul
  3470  02BD                     u2995:
  3471  02BD  1003               	clrc
  3472  02BE  0DBD               	rlf	___flmul@grs,f
  3473  02BF  0DBE               	rlf	___flmul@grs+1,f
  3474  02C0  0DBF               	rlf	___flmul@grs+2,f
  3475  02C1  0DC0               	rlf	___flmul@grs+3,f
  3476  02C2  0BB6               	decfsz	??___flmul,f
  3477  02C3  2ABD               	goto	u2995
  3478  02C4                     l2480:
  3479  02C4  0841               	movf	___flmul@bexp,w
  3480  02C5  073C               	addwf	___flmul@aexp,w
  3481  02C6  00B6               	movwf	??___flmul
  3482  02C7  01B7               	clrf	??___flmul+1
  3483  02C8  0DB7               	rlf	??___flmul+1,f
  3484  02C9  0836               	movf	??___flmul,w
  3485  02CA  3E82               	addlw	130
  3486  02CB  00C6               	movwf	___flmul@temp
  3487  02CC  0837               	movf	??___flmul+1,w
  3488  02CD  1803               	skipnc
  3489  02CE  3E01               	addlw	1
  3490  02CF  3EFF               	addlw	255
  3491  02D0  00C7               	movwf	___flmul@temp+1
  3492  02D1  2AEF               	goto	l2492
  3493  02D2                     l2482:
  3494  02D2  3001               	movlw	1
  3495  02D3  00B6               	movwf	??___flmul
  3496  02D4                     u3005:
  3497  02D4  1003               	clrc
  3498  02D5  0DC2               	rlf	___flmul@prod,f
  3499  02D6  0DC3               	rlf	___flmul@prod+1,f
  3500  02D7  0DC4               	rlf	___flmul@prod+2,f
  3501  02D8  0DC5               	rlf	___flmul@prod+3,f
  3502  02D9  0BB6               	decfsz	??___flmul,f
  3503  02DA  2AD4               	goto	u3005
  3504  02DB                     l2484:
  3505  02DB  1FC0               	btfss	___flmul@grs+3,7
  3506  02DC  2ADE               	goto	u3011
  3507  02DD  2ADF               	goto	u3010
  3508  02DE                     u3011:
  3509  02DE  2AE0               	goto	l2488
  3510  02DF                     u3010:
  3511  02DF                     l2486:
  3512  02DF  1442               	bsf	___flmul@prod,0
  3513  02E0                     l2488:
  3514  02E0  3001               	movlw	1
  3515  02E1  00B6               	movwf	??___flmul
  3516  02E2                     u3025:
  3517  02E2  1003               	clrc
  3518  02E3  0DBD               	rlf	___flmul@grs,f
  3519  02E4  0DBE               	rlf	___flmul@grs+1,f
  3520  02E5  0DBF               	rlf	___flmul@grs+2,f
  3521  02E6  0DC0               	rlf	___flmul@grs+3,f
  3522  02E7  0BB6               	decfsz	??___flmul,f
  3523  02E8  2AE2               	goto	u3025
  3524  02E9                     l2490:
  3525  02E9  30FF               	movlw	255
  3526  02EA  07C6               	addwf	___flmul@temp,f
  3527  02EB  1803               	skipnc
  3528  02EC  0AC7               	incf	___flmul@temp+1,f
  3529  02ED  30FF               	movlw	255
  3530  02EE  07C7               	addwf	___flmul@temp+1,f
  3531  02EF                     l2492:
  3532  02EF  1FC4               	btfss	___flmul@prod+2,7
  3533  02F0  2AF2               	goto	u3031
  3534  02F1  2AF3               	goto	u3030
  3535  02F2                     u3031:
  3536  02F2  2AD2               	goto	l2482
  3537  02F3                     u3030:
  3538  02F3                     l2494:
  3539  02F3  01BC               	clrf	___flmul@aexp
  3540  02F4                     l2496:
  3541  02F4  1FC0               	btfss	___flmul@grs+3,7
  3542  02F5  2AF7               	goto	u3041
  3543  02F6  2AF8               	goto	u3040
  3544  02F7                     u3041:
  3545  02F7  2B14               	goto	l2504
  3546  02F8                     u3040:
  3547  02F8                     l2498:
  3548  02F8  30FF               	movlw	255
  3549  02F9  053D               	andwf	___flmul@grs,w
  3550  02FA  00B6               	movwf	??___flmul
  3551  02FB  30FF               	movlw	255
  3552  02FC  053E               	andwf	___flmul@grs+1,w
  3553  02FD  00B7               	movwf	??___flmul+1
  3554  02FE  30FF               	movlw	255
  3555  02FF  053F               	andwf	___flmul@grs+2,w
  3556  0300  00B8               	movwf	??___flmul+2
  3557  0301  307F               	movlw	127
  3558  0302  0540               	andwf	___flmul@grs+3,w
  3559  0303  00B9               	movwf	??___flmul+3
  3560  0304  0839               	movf	??___flmul+3,w
  3561  0305  0438               	iorwf	??___flmul+2,w
  3562  0306  0437               	iorwf	??___flmul+1,w
  3563  0307  0436               	iorwf	??___flmul,w
  3564  0308  1903               	skipnz
  3565  0309  2B0B               	goto	u3051
  3566  030A  2B0C               	goto	u3050
  3567  030B                     u3051:
  3568  030B  2B0F               	goto	l683
  3569  030C                     u3050:
  3570  030C                     l2500:
  3571  030C  01BC               	clrf	___flmul@aexp
  3572  030D  0ABC               	incf	___flmul@aexp,f
  3573  030E  2B14               	goto	l2504
  3574  030F                     l683:
  3575  030F  1C42               	btfss	___flmul@prod,0
  3576  0310  2B12               	goto	u3061
  3577  0311  2B13               	goto	u3060
  3578  0312                     u3061:
  3579  0312  2B14               	goto	l2504
  3580  0313                     u3060:
  3581  0313  2B0C               	goto	l2500
  3582  0314                     l2504:
  3583  0314  083C               	movf	___flmul@aexp,w
  3584  0315  1903               	btfsc	3,2
  3585  0316  2B18               	goto	u3071
  3586  0317  2B19               	goto	u3070
  3587  0318                     u3071:
  3588  0318  2B4A               	goto	l2514
  3589  0319                     u3070:
  3590  0319                     l2506:
  3591  0319  3001               	movlw	1
  3592  031A  07C2               	addwf	___flmul@prod,f
  3593  031B  3000               	movlw	0
  3594  031C  1803               	skipnc
  3595  031D  3001               	movlw	1
  3596  031E  07C3               	addwf	___flmul@prod+1,f
  3597  031F  3000               	movlw	0
  3598  0320  1803               	skipnc
  3599  0321  3001               	movlw	1
  3600  0322  07C4               	addwf	___flmul@prod+2,f
  3601  0323  3000               	movlw	0
  3602  0324  1803               	skipnc
  3603  0325  3001               	movlw	1
  3604  0326  07C5               	addwf	___flmul@prod+3,f
  3605  0327                     l2508:
  3606  0327  1C45               	btfss	___flmul@prod+3,0
  3607  0328  2B2A               	goto	u3081
  3608  0329  2B2B               	goto	u3080
  3609  032A                     u3081:
  3610  032A  2B4A               	goto	l2514
  3611  032B                     u3080:
  3612  032B                     l2510:
  3613  032B  0842               	movf	___flmul@prod,w
  3614  032C  00B6               	movwf	??___flmul
  3615  032D  0843               	movf	___flmul@prod+1,w
  3616  032E  00B7               	movwf	??___flmul+1
  3617  032F  0844               	movf	___flmul@prod+2,w
  3618  0330  00B8               	movwf	??___flmul+2
  3619  0331  0845               	movf	___flmul@prod+3,w
  3620  0332  00B9               	movwf	??___flmul+3
  3621  0333  3001               	movlw	1
  3622  0334  00BA               	movwf	??___flmul+4
  3623  0335                     u3095:
  3624  0335  0D39               	rlf	??___flmul+3,w
  3625  0336  0CB9               	rrf	??___flmul+3,f
  3626  0337  0CB8               	rrf	??___flmul+2,f
  3627  0338  0CB7               	rrf	??___flmul+1,f
  3628  0339  0CB6               	rrf	??___flmul,f
  3629  033A                     u3090:
  3630  033A  0BBA               	decfsz	??___flmul+4,f
  3631  033B  2B35               	goto	u3095
  3632  033C  0839               	movf	??___flmul+3,w
  3633  033D  00C5               	movwf	___flmul@prod+3
  3634  033E  0838               	movf	??___flmul+2,w
  3635  033F  00C4               	movwf	___flmul@prod+2
  3636  0340  0837               	movf	??___flmul+1,w
  3637  0341  00C3               	movwf	___flmul@prod+1
  3638  0342  0836               	movf	??___flmul,w
  3639  0343  00C2               	movwf	___flmul@prod
  3640  0344                     l2512:
  3641  0344  3001               	movlw	1
  3642  0345  07C6               	addwf	___flmul@temp,f
  3643  0346  1803               	skipnc
  3644  0347  0AC7               	incf	___flmul@temp+1,f
  3645  0348  3000               	movlw	0
  3646  0349  07C7               	addwf	___flmul@temp+1,f
  3647  034A                     l2514:
  3648  034A  0847               	movf	___flmul@temp+1,w
  3649  034B  3A80               	xorlw	128
  3650  034C  00FF               	movwf	btemp+1
  3651  034D  3080               	movlw	128
  3652  034E  027F               	subwf	btemp+1,w
  3653  034F  1D03               	skipz
  3654  0350  2B53               	goto	u3105
  3655  0351  30FF               	movlw	255
  3656  0352  0246               	subwf	___flmul@temp,w
  3657  0353                     u3105:
  3658  0353  1C03               	skipc
  3659  0354  2B56               	goto	u3101
  3660  0355  2B57               	goto	u3100
  3661  0356                     u3101:
  3662  0356  2B62               	goto	l2518
  3663  0357                     u3100:
  3664  0357                     l2516:
  3665  0357  307F               	movlw	127
  3666  0358  1283               	bcf	3,5	;RP0=0, select bank0
  3667  0359  1303               	bcf	3,6	;RP1=0, select bank0
  3668  035A  00C5               	movwf	___flmul@prod+3
  3669  035B  3080               	movlw	128
  3670  035C  00C4               	movwf	___flmul@prod+2
  3671  035D  3000               	movlw	0
  3672  035E  00C3               	movwf	___flmul@prod+1
  3673  035F  3000               	movlw	0
  3674  0360  00C2               	movwf	___flmul@prod
  3675  0361  2B97               	goto	l689
  3676  0362                     l2518:
  3677  0362  1283               	bcf	3,5	;RP0=0, select bank0
  3678  0363  1303               	bcf	3,6	;RP1=0, select bank0
  3679  0364  0847               	movf	___flmul@temp+1,w
  3680  0365  3A80               	xorlw	128
  3681  0366  00FF               	movwf	btemp+1
  3682  0367  3080               	movlw	128
  3683  0368  027F               	subwf	btemp+1,w
  3684  0369  1D03               	skipz
  3685  036A  2B6D               	goto	u3115
  3686  036B  3001               	movlw	1
  3687  036C  0246               	subwf	___flmul@temp,w
  3688  036D                     u3115:
  3689  036D  1803               	skipnc
  3690  036E  2B70               	goto	u3111
  3691  036F  2B71               	goto	u3110
  3692  0370                     u3111:
  3693  0370  2B7D               	goto	l2524
  3694  0371                     u3110:
  3695  0371                     l2520:
  3696  0371  3000               	movlw	0
  3697  0372  1283               	bcf	3,5	;RP0=0, select bank0
  3698  0373  1303               	bcf	3,6	;RP1=0, select bank0
  3699  0374  00C5               	movwf	___flmul@prod+3
  3700  0375  3000               	movlw	0
  3701  0376  00C4               	movwf	___flmul@prod+2
  3702  0377  3000               	movlw	0
  3703  0378  00C3               	movwf	___flmul@prod+1
  3704  0379  3000               	movlw	0
  3705  037A  00C2               	movwf	___flmul@prod
  3706  037B                     l2522:
  3707  037B  01BB               	clrf	___flmul@sign
  3708  037C  2B97               	goto	l689
  3709  037D                     l2524:
  3710  037D  1283               	bcf	3,5	;RP0=0, select bank0
  3711  037E  1303               	bcf	3,6	;RP1=0, select bank0
  3712  037F  0846               	movf	___flmul@temp,w
  3713  0380  00B6               	movwf	??___flmul
  3714  0381  0836               	movf	??___flmul,w
  3715  0382  00C1               	movwf	___flmul@bexp
  3716  0383  30FF               	movlw	255
  3717  0384  05C2               	andwf	___flmul@prod,f
  3718  0385  30FF               	movlw	255
  3719  0386  05C3               	andwf	___flmul@prod+1,f
  3720  0387  307F               	movlw	127
  3721  0388  05C4               	andwf	___flmul@prod+2,f
  3722  0389  3000               	movlw	0
  3723  038A  05C5               	andwf	___flmul@prod+3,f
  3724  038B                     l2526:
  3725  038B  1C41               	btfss	___flmul@bexp,0
  3726  038C  2B8E               	goto	u3121
  3727  038D  2B8F               	goto	u3120
  3728  038E                     u3121:
  3729  038E  2B90               	goto	l2530
  3730  038F                     u3120:
  3731  038F                     l2528:
  3732  038F  17C4               	bsf	___flmul@prod+2,7
  3733  0390                     l2530:
  3734  0390  0841               	movf	___flmul@bexp,w
  3735  0391  00B6               	movwf	??___flmul
  3736  0392  1003               	clrc
  3737  0393  0C36               	rrf	??___flmul,w
  3738  0394  00B7               	movwf	??___flmul+1
  3739  0395  0837               	movf	??___flmul+1,w
  3740  0396  00C5               	movwf	___flmul@prod+3
  3741  0397                     l689:
  3742  0397  083B               	movf	___flmul@sign,w
  3743  0398  00B6               	movwf	??___flmul
  3744  0399  0836               	movf	??___flmul,w
  3745  039A  04C5               	iorwf	___flmul@prod+3,f
  3746  039B                     l2532:
  3747  039B  0845               	movf	___flmul@prod+3,w
  3748  039C  00B1               	movwf	?___flmul+3
  3749  039D  0844               	movf	___flmul@prod+2,w
  3750  039E  00B0               	movwf	?___flmul+2
  3751  039F  0843               	movf	___flmul@prod+1,w
  3752  03A0  00AF               	movwf	?___flmul+1
  3753  03A1  0842               	movf	___flmul@prod,w
  3754  03A2  00AE               	movwf	?___flmul
  3755  03A3                     l677:
  3756  03A3  0008               	return
  3757  03A4                     __end_of___flmul:
  3758                           
  3759                           	psect	text8
  3760  0BDB                     __ptext8:	
  3761 ;; *************** function __Umul8_16 *****************
  3762 ;; Defined at:
  3763 ;;		line 4 in file "C:\Program Files\Microchip\xc8\v2.31\pic\sources\c90\common\Umul8_16.c"
  3764 ;; Parameters:    Size  Location     Type
  3765 ;;  multiplier      1    wreg     unsigned char 
  3766 ;;  multiplicand    1    0[BANK0 ] unsigned char 
  3767 ;; Auto vars:     Size  Location     Type
  3768 ;;  multiplier      1    8[BANK0 ] unsigned char 
  3769 ;;  word_mpld       2    6[BANK0 ] unsigned int 
  3770 ;;  product         2    4[BANK0 ] unsigned int 
  3771 ;; Return value:  Size  Location     Type
  3772 ;;                  2    0[BANK0 ] unsigned int 
  3773 ;; Registers used:
  3774 ;;		wreg, status,2, status,0
  3775 ;; Tracked objects:
  3776 ;;		On entry : 0/0
  3777 ;;		On exit  : 0/0
  3778 ;;		Unchanged: 0/0
  3779 ;; Data sizes:     COMMON   BANK0   BANK1   BANK3   BANK2
  3780 ;;      Params:         0       2       0       0       0
  3781 ;;      Locals:         0       5       0       0       0
  3782 ;;      Temps:          0       2       0       0       0
  3783 ;;      Totals:         0       9       0       0       0
  3784 ;;Total ram usage:        9 bytes
  3785 ;; Hardware stack levels used:    1
  3786 ;; Hardware stack levels required when called:    1
  3787 ;; This function calls:
  3788 ;;		Nothing
  3789 ;; This function is called by:
  3790 ;;		___flmul
  3791 ;; This function uses a non-reentrant model
  3792 ;;
  3793                           
  3794                           
  3795                           ;psect for function __Umul8_16
  3796  0BDB                     __Umul8_16:
  3797                           
  3798                           ;incstack = 0
  3799                           ; Regs used in __Umul8_16: [wreg+status,2+status,0]
  3800                           ;__Umul8_16@multiplier stored from wreg
  3801  0BDB  1283               	bcf	3,5	;RP0=0, select bank0
  3802  0BDC  1303               	bcf	3,6	;RP1=0, select bank0
  3803  0BDD  00A8               	movwf	__Umul8_16@multiplier
  3804  0BDE                     l2382:
  3805  0BDE  01A4               	clrf	__Umul8_16@product
  3806  0BDF  01A5               	clrf	__Umul8_16@product+1
  3807  0BE0                     l2384:
  3808  0BE0  0820               	movf	__Umul8_16@multiplicand,w
  3809  0BE1  00A2               	movwf	??__Umul8_16
  3810  0BE2  01A3               	clrf	??__Umul8_16+1
  3811  0BE3  0822               	movf	??__Umul8_16,w
  3812  0BE4  00A6               	movwf	__Umul8_16@word_mpld
  3813  0BE5  0823               	movf	??__Umul8_16+1,w
  3814  0BE6  00A7               	movwf	__Umul8_16@word_mpld+1
  3815  0BE7                     l2386:
  3816  0BE7  1C28               	btfss	__Umul8_16@multiplier,0
  3817  0BE8  2BEA               	goto	u2731
  3818  0BE9  2BEB               	goto	u2730
  3819  0BEA                     u2731:
  3820  0BEA  2BF1               	goto	l696
  3821  0BEB                     u2730:
  3822  0BEB                     l2388:
  3823  0BEB  0826               	movf	__Umul8_16@word_mpld,w
  3824  0BEC  07A4               	addwf	__Umul8_16@product,f
  3825  0BED  1803               	skipnc
  3826  0BEE  0AA5               	incf	__Umul8_16@product+1,f
  3827  0BEF  0827               	movf	__Umul8_16@word_mpld+1,w
  3828  0BF0  07A5               	addwf	__Umul8_16@product+1,f
  3829  0BF1                     l696:
  3830  0BF1  3001               	movlw	1
  3831  0BF2                     u2745:
  3832  0BF2  1003               	clrc
  3833  0BF3  0DA6               	rlf	__Umul8_16@word_mpld,f
  3834  0BF4  0DA7               	rlf	__Umul8_16@word_mpld+1,f
  3835  0BF5  3EFF               	addlw	-1
  3836  0BF6  1D03               	skipz
  3837  0BF7  2BF2               	goto	u2745
  3838  0BF8  1003               	clrc
  3839  0BF9  0CA8               	rrf	__Umul8_16@multiplier,f
  3840  0BFA                     l2390:
  3841  0BFA  0828               	movf	__Umul8_16@multiplier,w
  3842  0BFB  1D03               	btfss	3,2
  3843  0BFC  2BFE               	goto	u2751
  3844  0BFD  2BFF               	goto	u2750
  3845  0BFE                     u2751:
  3846  0BFE  2BE7               	goto	l2386
  3847  0BFF                     u2750:
  3848  0BFF                     l2392:
  3849  0BFF  0825               	movf	__Umul8_16@product+1,w
  3850  0C00  00A1               	movwf	?__Umul8_16+1
  3851  0C01  0824               	movf	__Umul8_16@product,w
  3852  0C02  00A0               	movwf	?__Umul8_16
  3853  0C03                     l698:
  3854  0C03  0008               	return
  3855  0C04                     __end_of__Umul8_16:
  3856                           
  3857                           	psect	text9
  3858  03A4                     __ptext9:	
  3859 ;; *************** function ___fladd *****************
  3860 ;; Defined at:
  3861 ;;		line 10 in file "C:\Program Files\Microchip\xc8\v2.31\pic\sources\c90\common\sprcadd.c"
  3862 ;; Parameters:    Size  Location     Type
  3863 ;;  b               4   40[BANK0 ] unsigned int 
  3864 ;;  a               4   44[BANK0 ] unsigned int 
  3865 ;; Auto vars:     Size  Location     Type
  3866 ;;  grs             1   59[BANK0 ] unsigned char 
  3867 ;;  bexp            1   58[BANK0 ] unsigned char 
  3868 ;;  aexp            1   57[BANK0 ] unsigned char 
  3869 ;;  signs           1   56[BANK0 ] unsigned char 
  3870 ;; Return value:  Size  Location     Type
  3871 ;;                  4   40[BANK0 ] unsigned char 
  3872 ;; Registers used:
  3873 ;;		wreg, status,2, status,0, btemp+1
  3874 ;; Tracked objects:
  3875 ;;		On entry : 0/0
  3876 ;;		On exit  : 0/0
  3877 ;;		Unchanged: 0/0
  3878 ;; Data sizes:     COMMON   BANK0   BANK1   BANK3   BANK2
  3879 ;;      Params:         0       8       0       0       0
  3880 ;;      Locals:         0       4       0       0       0
  3881 ;;      Temps:          0       8       0       0       0
  3882 ;;      Totals:         0      20       0       0       0
  3883 ;;Total ram usage:       20 bytes
  3884 ;; Hardware stack levels used:    1
  3885 ;; Hardware stack levels required when called:    1
  3886 ;; This function calls:
  3887 ;;		Nothing
  3888 ;; This function is called by:
  3889 ;;		_main
  3890 ;;		_ANALOGICOS
  3891 ;; This function uses a non-reentrant model
  3892 ;;
  3893                           
  3894                           
  3895                           ;psect for function ___fladd
  3896  03A4                     ___fladd:
  3897  03A4                     l1638:	
  3898                           ;incstack = 0
  3899                           ; Regs used in ___fladd: [wreg+status,2+status,0+btemp+1]
  3900                           
  3901  03A4  1283               	bcf	3,5	;RP0=0, select bank0
  3902  03A5  1303               	bcf	3,6	;RP1=0, select bank0
  3903  03A6  084B               	movf	___fladd@b+3,w
  3904  03A7  3980               	andlw	128
  3905  03A8  00D0               	movwf	??___fladd
  3906  03A9  0850               	movf	??___fladd,w
  3907  03AA  00D8               	movwf	___fladd@signs
  3908  03AB                     l1640:
  3909  03AB  084B               	movf	___fladd@b+3,w
  3910  03AC  00D0               	movwf	??___fladd
  3911  03AD  0750               	addwf	??___fladd,w
  3912  03AE  00D1               	movwf	??___fladd+1
  3913  03AF  0851               	movf	??___fladd+1,w
  3914  03B0  00DA               	movwf	___fladd@bexp
  3915  03B1                     l1642:
  3916  03B1  1FCA               	btfss	___fladd@b+2,7
  3917  03B2  2BB4               	goto	u1501
  3918  03B3  2BB5               	goto	u1500
  3919  03B4                     u1501:
  3920  03B4  2BB6               	goto	l1646
  3921  03B5                     u1500:
  3922  03B5                     l1644:
  3923  03B5  145A               	bsf	___fladd@bexp,0
  3924  03B6                     l1646:
  3925  03B6  085A               	movf	___fladd@bexp,w
  3926  03B7  1903               	btfsc	3,2
  3927  03B8  2BBA               	goto	u1511
  3928  03B9  2BBB               	goto	u1510
  3929  03BA                     u1511:
  3930  03BA  2BCB               	goto	l1656
  3931  03BB                     u1510:
  3932  03BB                     l1648:
  3933  03BB  0A5A               	incf	___fladd@bexp,w
  3934  03BC  1D03               	btfss	3,2
  3935  03BD  2BBF               	goto	u1521
  3936  03BE  2BC0               	goto	u1520
  3937  03BF                     u1521:
  3938  03BF  2BC8               	goto	l1652
  3939  03C0                     u1520:
  3940  03C0                     l1650:
  3941  03C0  3000               	movlw	0
  3942  03C1  00CB               	movwf	___fladd@b+3
  3943  03C2  3000               	movlw	0
  3944  03C3  00CA               	movwf	___fladd@b+2
  3945  03C4  3000               	movlw	0
  3946  03C5  00C9               	movwf	___fladd@b+1
  3947  03C6  3000               	movlw	0
  3948  03C7  00C8               	movwf	___fladd@b
  3949  03C8                     l1652:
  3950  03C8  17CA               	bsf	___fladd@b+2,7
  3951  03C9                     l1654:
  3952  03C9  01CB               	clrf	___fladd@b+3
  3953  03CA  2BD3               	goto	l1658
  3954  03CB                     l1656:
  3955  03CB  3000               	movlw	0
  3956  03CC  00CB               	movwf	___fladd@b+3
  3957  03CD  3000               	movlw	0
  3958  03CE  00CA               	movwf	___fladd@b+2
  3959  03CF  3000               	movlw	0
  3960  03D0  00C9               	movwf	___fladd@b+1
  3961  03D1  3000               	movlw	0
  3962  03D2  00C8               	movwf	___fladd@b
  3963  03D3                     l1658:
  3964  03D3  084F               	movf	___fladd@a+3,w
  3965  03D4  3980               	andlw	128
  3966  03D5  00D0               	movwf	??___fladd
  3967  03D6  0850               	movf	??___fladd,w
  3968  03D7  00D9               	movwf	___fladd@aexp
  3969  03D8                     l1660:
  3970  03D8  0859               	movf	___fladd@aexp,w
  3971  03D9  0658               	xorwf	___fladd@signs,w
  3972  03DA  1903               	skipnz
  3973  03DB  2BDD               	goto	u1531
  3974  03DC  2BDE               	goto	u1530
  3975  03DD                     u1531:
  3976  03DD  2BDF               	goto	l1664
  3977  03DE                     u1530:
  3978  03DE                     l1662:
  3979  03DE  1758               	bsf	___fladd@signs,6
  3980  03DF                     l1664:
  3981  03DF  084F               	movf	___fladd@a+3,w
  3982  03E0  00D0               	movwf	??___fladd
  3983  03E1  0750               	addwf	??___fladd,w
  3984  03E2  00D1               	movwf	??___fladd+1
  3985  03E3  0851               	movf	??___fladd+1,w
  3986  03E4  00D9               	movwf	___fladd@aexp
  3987  03E5                     l1666:
  3988  03E5  1FCE               	btfss	___fladd@a+2,7
  3989  03E6  2BE8               	goto	u1541
  3990  03E7  2BE9               	goto	u1540
  3991  03E8                     u1541:
  3992  03E8  2BEA               	goto	l1670
  3993  03E9                     u1540:
  3994  03E9                     l1668:
  3995  03E9  1459               	bsf	___fladd@aexp,0
  3996  03EA                     l1670:
  3997  03EA  0859               	movf	___fladd@aexp,w
  3998  03EB  1903               	btfsc	3,2
  3999  03EC  2BEE               	goto	u1551
  4000  03ED  2BEF               	goto	u1550
  4001  03EE                     u1551:
  4002  03EE  2BFF               	goto	l1680
  4003  03EF                     u1550:
  4004  03EF                     l1672:
  4005  03EF  0A59               	incf	___fladd@aexp,w
  4006  03F0  1D03               	btfss	3,2
  4007  03F1  2BF3               	goto	u1561
  4008  03F2  2BF4               	goto	u1560
  4009  03F3                     u1561:
  4010  03F3  2BFC               	goto	l1676
  4011  03F4                     u1560:
  4012  03F4                     l1674:
  4013  03F4  3000               	movlw	0
  4014  03F5  00CF               	movwf	___fladd@a+3
  4015  03F6  3000               	movlw	0
  4016  03F7  00CE               	movwf	___fladd@a+2
  4017  03F8  3000               	movlw	0
  4018  03F9  00CD               	movwf	___fladd@a+1
  4019  03FA  3000               	movlw	0
  4020  03FB  00CC               	movwf	___fladd@a
  4021  03FC                     l1676:
  4022  03FC  17CE               	bsf	___fladd@a+2,7
  4023  03FD                     l1678:
  4024  03FD  01CF               	clrf	___fladd@a+3
  4025  03FE  2C07               	goto	l581
  4026  03FF                     l1680:
  4027  03FF  3000               	movlw	0
  4028  0400  00CF               	movwf	___fladd@a+3
  4029  0401  3000               	movlw	0
  4030  0402  00CE               	movwf	___fladd@a+2
  4031  0403  3000               	movlw	0
  4032  0404  00CD               	movwf	___fladd@a+1
  4033  0405  3000               	movlw	0
  4034  0406  00CC               	movwf	___fladd@a
  4035  0407                     l581:
  4036  0407  085A               	movf	___fladd@bexp,w
  4037  0408  0259               	subwf	___fladd@aexp,w
  4038  0409  1803               	skipnc
  4039  040A  2C0C               	goto	u1571
  4040  040B  2C0D               	goto	u1570
  4041  040C                     u1571:
  4042  040C  2C51               	goto	l1716
  4043  040D                     u1570:
  4044  040D                     l1682:
  4045  040D  1F58               	btfss	___fladd@signs,6
  4046  040E  2C10               	goto	u1581
  4047  040F  2C11               	goto	u1580
  4048  0410                     u1581:
  4049  0410  2C15               	goto	l1686
  4050  0411                     u1580:
  4051  0411                     l1684:
  4052  0411  3080               	movlw	128
  4053  0412  00D0               	movwf	??___fladd
  4054  0413  0850               	movf	??___fladd,w
  4055  0414  06D8               	xorwf	___fladd@signs,f
  4056  0415                     l1686:
  4057  0415  085A               	movf	___fladd@bexp,w
  4058  0416  00D0               	movwf	??___fladd
  4059  0417  0850               	movf	??___fladd,w
  4060  0418  00DB               	movwf	___fladd@grs
  4061  0419                     l1688:
  4062  0419  0859               	movf	___fladd@aexp,w
  4063  041A  00D0               	movwf	??___fladd
  4064  041B  0850               	movf	??___fladd,w
  4065  041C  00DA               	movwf	___fladd@bexp
  4066  041D                     l1690:
  4067  041D  085B               	movf	___fladd@grs,w
  4068  041E  00D0               	movwf	??___fladd
  4069  041F  0850               	movf	??___fladd,w
  4070  0420  00D9               	movwf	___fladd@aexp
  4071  0421                     l1692:
  4072  0421  0848               	movf	___fladd@b,w
  4073  0422  00D0               	movwf	??___fladd
  4074  0423  0850               	movf	??___fladd,w
  4075  0424  00DB               	movwf	___fladd@grs
  4076  0425                     l1694:
  4077  0425  084C               	movf	___fladd@a,w
  4078  0426  00D0               	movwf	??___fladd
  4079  0427  0850               	movf	??___fladd,w
  4080  0428  00C8               	movwf	___fladd@b
  4081  0429                     l1696:
  4082  0429  085B               	movf	___fladd@grs,w
  4083  042A  00D0               	movwf	??___fladd
  4084  042B  0850               	movf	??___fladd,w
  4085  042C  00CC               	movwf	___fladd@a
  4086  042D                     l1698:
  4087  042D  0849               	movf	___fladd@b+1,w
  4088  042E  00D0               	movwf	??___fladd
  4089  042F  0850               	movf	??___fladd,w
  4090  0430  00DB               	movwf	___fladd@grs
  4091  0431                     l1700:
  4092  0431  084D               	movf	___fladd@a+1,w
  4093  0432  00D0               	movwf	??___fladd
  4094  0433  0850               	movf	??___fladd,w
  4095  0434  00C9               	movwf	___fladd@b+1
  4096  0435                     l1702:
  4097  0435  085B               	movf	___fladd@grs,w
  4098  0436  00D0               	movwf	??___fladd
  4099  0437  0850               	movf	??___fladd,w
  4100  0438  00CD               	movwf	___fladd@a+1
  4101  0439                     l1704:
  4102  0439  084A               	movf	___fladd@b+2,w
  4103  043A  00D0               	movwf	??___fladd
  4104  043B  0850               	movf	??___fladd,w
  4105  043C  00DB               	movwf	___fladd@grs
  4106  043D                     l1706:
  4107  043D  084E               	movf	___fladd@a+2,w
  4108  043E  00D0               	movwf	??___fladd
  4109  043F  0850               	movf	??___fladd,w
  4110  0440  00CA               	movwf	___fladd@b+2
  4111  0441                     l1708:
  4112  0441  085B               	movf	___fladd@grs,w
  4113  0442  00D0               	movwf	??___fladd
  4114  0443  0850               	movf	??___fladd,w
  4115  0444  00CE               	movwf	___fladd@a+2
  4116  0445                     l1710:
  4117  0445  084B               	movf	___fladd@b+3,w
  4118  0446  00D0               	movwf	??___fladd
  4119  0447  0850               	movf	??___fladd,w
  4120  0448  00DB               	movwf	___fladd@grs
  4121  0449                     l1712:
  4122  0449  084F               	movf	___fladd@a+3,w
  4123  044A  00D0               	movwf	??___fladd
  4124  044B  0850               	movf	??___fladd,w
  4125  044C  00CB               	movwf	___fladd@b+3
  4126  044D                     l1714:
  4127  044D  085B               	movf	___fladd@grs,w
  4128  044E  00D0               	movwf	??___fladd
  4129  044F  0850               	movf	??___fladd,w
  4130  0450  00CF               	movwf	___fladd@a+3
  4131  0451                     l1716:
  4132  0451  01DB               	clrf	___fladd@grs
  4133  0452                     l1718:
  4134  0452  0859               	movf	___fladd@aexp,w
  4135  0453  00D0               	movwf	??___fladd
  4136  0454  01D1               	clrf	??___fladd+1
  4137  0455  0851               	movf	??___fladd+1,w
  4138  0456  00D3               	movwf	??___fladd+3
  4139  0457  085A               	movf	___fladd@bexp,w
  4140  0458  0250               	subwf	??___fladd,w
  4141  0459  00D2               	movwf	??___fladd+2
  4142  045A  1C03               	skipc
  4143  045B  03D3               	decf	??___fladd+3,f
  4144  045C  0853               	movf	??___fladd+3,w
  4145  045D  3A80               	xorlw	128
  4146  045E  00FF               	movwf	btemp+1
  4147  045F  3080               	movlw	128
  4148  0460  027F               	subwf	btemp+1,w
  4149  0461  1D03               	skipz
  4150  0462  2C65               	goto	u1595
  4151  0463  301A               	movlw	26
  4152  0464  0252               	subwf	??___fladd+2,w
  4153  0465                     u1595:
  4154  0465  1C03               	skipc
  4155  0466  2C68               	goto	u1591
  4156  0467  2C69               	goto	u1590
  4157  0468                     u1591:
  4158  0468  2CA6               	goto	l1734
  4159  0469                     u1590:
  4160  0469                     l1720:
  4161  0469  1283               	bcf	3,5	;RP0=0, select bank0
  4162  046A  1303               	bcf	3,6	;RP1=0, select bank0
  4163  046B  084B               	movf	___fladd@b+3,w
  4164  046C  044A               	iorwf	___fladd@b+2,w
  4165  046D  0449               	iorwf	___fladd@b+1,w
  4166  046E  0448               	iorwf	___fladd@b,w
  4167  046F  1D03               	skipz
  4168  0470  2C72               	goto	u1601
  4169  0471  2C74               	goto	u1600
  4170  0472                     u1601:
  4171  0472  3001               	movlw	1
  4172  0473  2C75               	goto	u1610
  4173  0474                     u1600:
  4174  0474  3000               	movlw	0
  4175  0475                     u1610:
  4176  0475  00D0               	movwf	??___fladd
  4177  0476  0850               	movf	??___fladd,w
  4178  0477  00DB               	movwf	___fladd@grs
  4179  0478  3000               	movlw	0
  4180  0479  00CB               	movwf	___fladd@b+3
  4181  047A  3000               	movlw	0
  4182  047B  00CA               	movwf	___fladd@b+2
  4183  047C  3000               	movlw	0
  4184  047D  00C9               	movwf	___fladd@b+1
  4185  047E  3000               	movlw	0
  4186  047F  00C8               	movwf	___fladd@b
  4187  0480  0859               	movf	___fladd@aexp,w
  4188  0481  00D0               	movwf	??___fladd
  4189  0482  0850               	movf	??___fladd,w
  4190  0483  00DA               	movwf	___fladd@bexp
  4191  0484  2CAE               	goto	l585
  4192  0485                     l587:
  4193  0485  1C5B               	btfss	___fladd@grs,0
  4194  0486  2C88               	goto	u1621
  4195  0487  2C89               	goto	u1620
  4196  0488                     u1621:
  4197  0488  2C92               	goto	l1724
  4198  0489                     u1620:
  4199  0489                     l1722:
  4200  0489  085B               	movf	___fladd@grs,w
  4201  048A  00D0               	movwf	??___fladd
  4202  048B  1003               	clrc
  4203  048C  0C50               	rrf	??___fladd,w
  4204  048D  3801               	iorlw	1
  4205  048E  00D1               	movwf	??___fladd+1
  4206  048F  0851               	movf	??___fladd+1,w
  4207  0490  00DB               	movwf	___fladd@grs
  4208  0491  2C94               	goto	l1726
  4209  0492                     l1724:
  4210  0492  1003               	clrc
  4211  0493  0CDB               	rrf	___fladd@grs,f
  4212  0494                     l1726:
  4213  0494  1C48               	btfss	___fladd@b,0
  4214  0495  2C97               	goto	u1631
  4215  0496  2C98               	goto	u1630
  4216  0497                     u1631:
  4217  0497  2C99               	goto	l1730
  4218  0498                     u1630:
  4219  0498                     l1728:
  4220  0498  17DB               	bsf	___fladd@grs,7
  4221  0499                     l1730:
  4222  0499  3001               	movlw	1
  4223  049A  00D0               	movwf	??___fladd
  4224  049B                     u1645:
  4225  049B  0D4B               	rlf	___fladd@b+3,w
  4226  049C  0CCB               	rrf	___fladd@b+3,f
  4227  049D  0CCA               	rrf	___fladd@b+2,f
  4228  049E  0CC9               	rrf	___fladd@b+1,f
  4229  049F  0CC8               	rrf	___fladd@b,f
  4230  04A0  0BD0               	decfsz	??___fladd& (0+127),f
  4231  04A1  2C9B               	goto	u1645
  4232  04A2                     l1732:
  4233  04A2  3001               	movlw	1
  4234  04A3  00D0               	movwf	??___fladd
  4235  04A4  0850               	movf	??___fladd,w
  4236  04A5  07DA               	addwf	___fladd@bexp,f
  4237  04A6                     l1734:
  4238  04A6  1283               	bcf	3,5	;RP0=0, select bank0
  4239  04A7  1303               	bcf	3,6	;RP1=0, select bank0
  4240  04A8  0859               	movf	___fladd@aexp,w
  4241  04A9  025A               	subwf	___fladd@bexp,w
  4242  04AA  1C03               	skipc
  4243  04AB  2CAD               	goto	u1651
  4244  04AC  2CAE               	goto	u1650
  4245  04AD                     u1651:
  4246  04AD  2C85               	goto	l587
  4247  04AE                     u1650:
  4248  04AE                     l585:
  4249  04AE  1B58               	btfsc	___fladd@signs,6
  4250  04AF  2CB1               	goto	u1661
  4251  04B0  2CB2               	goto	u1660
  4252  04B1                     u1661:
  4253  04B1  2CFD               	goto	l1760
  4254  04B2                     u1660:
  4255  04B2                     l1736:
  4256  04B2  085A               	movf	___fladd@bexp,w
  4257  04B3  1D03               	btfss	3,2
  4258  04B4  2CB6               	goto	u1671
  4259  04B5  2CB7               	goto	u1670
  4260  04B6                     u1671:
  4261  04B6  2CC0               	goto	l1742
  4262  04B7                     u1670:
  4263  04B7                     l1738:
  4264  04B7  3000               	movlw	0
  4265  04B8  00CB               	movwf	?___fladd+3
  4266  04B9  3000               	movlw	0
  4267  04BA  00CA               	movwf	?___fladd+2
  4268  04BB  3000               	movlw	0
  4269  04BC  00C9               	movwf	?___fladd+1
  4270  04BD  3000               	movlw	0
  4271  04BE  00C8               	movwf	?___fladd
  4272  04BF  2E2B               	goto	l594
  4273  04C0                     l1742:
  4274  04C0  084C               	movf	___fladd@a,w
  4275  04C1  07C8               	addwf	___fladd@b,f
  4276  04C2  084D               	movf	___fladd@a+1,w
  4277  04C3  1103               	clrz
  4278  04C4  1803               	skipnc
  4279  04C5  3E01               	addlw	1
  4280  04C6  1903               	skipnz
  4281  04C7  2CC9               	goto	u1681
  4282  04C8  07C9               	addwf	___fladd@b+1,f
  4283  04C9                     u1681:
  4284  04C9  084E               	movf	___fladd@a+2,w
  4285  04CA  1103               	clrz
  4286  04CB  1803               	skipnc
  4287  04CC  3E01               	addlw	1
  4288  04CD  1903               	skipnz
  4289  04CE  2CD0               	goto	u1682
  4290  04CF  07CA               	addwf	___fladd@b+2,f
  4291  04D0                     u1682:
  4292  04D0  084F               	movf	___fladd@a+3,w
  4293  04D1  1103               	clrz
  4294  04D2  1803               	skipnc
  4295  04D3  3E01               	addlw	1
  4296  04D4  1903               	skipnz
  4297  04D5  2CD7               	goto	u1683
  4298  04D6  07CB               	addwf	___fladd@b+3,f
  4299  04D7                     u1683:
  4300  04D7                     l1744:
  4301  04D7  1C4B               	btfss	___fladd@b+3,0
  4302  04D8  2CDA               	goto	u1691
  4303  04D9  2CDB               	goto	u1690
  4304  04DA                     u1691:
  4305  04DA  2DB1               	goto	l1794
  4306  04DB                     u1690:
  4307  04DB                     l1746:
  4308  04DB  1C5B               	btfss	___fladd@grs,0
  4309  04DC  2CDE               	goto	u1701
  4310  04DD  2CDF               	goto	u1700
  4311  04DE                     u1701:
  4312  04DE  2CE8               	goto	l1750
  4313  04DF                     u1700:
  4314  04DF                     l1748:
  4315  04DF  085B               	movf	___fladd@grs,w
  4316  04E0  00D0               	movwf	??___fladd
  4317  04E1  1003               	clrc
  4318  04E2  0C50               	rrf	??___fladd,w
  4319  04E3  3801               	iorlw	1
  4320  04E4  00D1               	movwf	??___fladd+1
  4321  04E5  0851               	movf	??___fladd+1,w
  4322  04E6  00DB               	movwf	___fladd@grs
  4323  04E7  2CEA               	goto	l1752
  4324  04E8                     l1750:
  4325  04E8  1003               	clrc
  4326  04E9  0CDB               	rrf	___fladd@grs,f
  4327  04EA                     l1752:
  4328  04EA  1C48               	btfss	___fladd@b,0
  4329  04EB  2CED               	goto	u1711
  4330  04EC  2CEE               	goto	u1710
  4331  04ED                     u1711:
  4332  04ED  2CEF               	goto	l1756
  4333  04EE                     u1710:
  4334  04EE                     l1754:
  4335  04EE  17DB               	bsf	___fladd@grs,7
  4336  04EF                     l1756:
  4337  04EF  3001               	movlw	1
  4338  04F0  00D0               	movwf	??___fladd
  4339  04F1                     u1725:
  4340  04F1  0D4B               	rlf	___fladd@b+3,w
  4341  04F2  0CCB               	rrf	___fladd@b+3,f
  4342  04F3  0CCA               	rrf	___fladd@b+2,f
  4343  04F4  0CC9               	rrf	___fladd@b+1,f
  4344  04F5  0CC8               	rrf	___fladd@b,f
  4345  04F6  0BD0               	decfsz	??___fladd& (0+127),f
  4346  04F7  2CF1               	goto	u1725
  4347  04F8                     l1758:
  4348  04F8  3001               	movlw	1
  4349  04F9  00D0               	movwf	??___fladd
  4350  04FA  0850               	movf	??___fladd,w
  4351  04FB  07DA               	addwf	___fladd@bexp,f
  4352  04FC  2DB1               	goto	l1794
  4353  04FD                     l1760:
  4354  04FD  084B               	movf	___fladd@b+3,w
  4355  04FE  3A80               	xorlw	128
  4356  04FF  00FF               	movwf	btemp+1
  4357  0500  084F               	movf	___fladd@a+3,w
  4358  0501  3A80               	xorlw	128
  4359  0502  027F               	subwf	btemp+1,w
  4360  0503  1D03               	skipz
  4361  0504  2D0F               	goto	u1733
  4362  0505  084E               	movf	___fladd@a+2,w
  4363  0506  024A               	subwf	___fladd@b+2,w
  4364  0507  1D03               	skipz
  4365  0508  2D0F               	goto	u1733
  4366  0509  084D               	movf	___fladd@a+1,w
  4367  050A  0249               	subwf	___fladd@b+1,w
  4368  050B  1D03               	skipz
  4369  050C  2D0F               	goto	u1733
  4370  050D  084C               	movf	___fladd@a,w
  4371  050E  0248               	subwf	___fladd@b,w
  4372  050F                     u1733:
  4373  050F  1803               	skipnc
  4374  0510  2D12               	goto	u1731
  4375  0511  2D13               	goto	u1730
  4376  0512                     u1731:
  4377  0512  2D6B               	goto	l1770
  4378  0513                     u1730:
  4379  0513                     l1762:
  4380  0513  30FF               	movlw	255
  4381  0514  00D0               	movwf	??___fladd
  4382  0515  30FF               	movlw	255
  4383  0516  00D1               	movwf	??___fladd+1
  4384  0517  30FF               	movlw	255
  4385  0518  00D2               	movwf	??___fladd+2
  4386  0519  30FF               	movlw	255
  4387  051A  00D3               	movwf	??___fladd+3
  4388  051B  084C               	movf	___fladd@a,w
  4389  051C  00D4               	movwf	??___fladd+4
  4390  051D  084D               	movf	___fladd@a+1,w
  4391  051E  00D5               	movwf	??___fladd+5
  4392  051F  084E               	movf	___fladd@a+2,w
  4393  0520  00D6               	movwf	??___fladd+6
  4394  0521  084F               	movf	___fladd@a+3,w
  4395  0522  00D7               	movwf	??___fladd+7
  4396  0523  0848               	movf	___fladd@b,w
  4397  0524  02D4               	subwf	??___fladd+4,f
  4398  0525  0849               	movf	___fladd@b+1,w
  4399  0526  1C03               	skipc
  4400  0527  0F49               	incfsz	___fladd@b+1,w
  4401  0528  2D2A               	goto	u1741
  4402  0529  2D2B               	goto	u1742
  4403  052A                     u1741:
  4404  052A  02D5               	subwf	??___fladd+5,f
  4405  052B                     u1742:
  4406  052B  084A               	movf	___fladd@b+2,w
  4407  052C  1C03               	skipc
  4408  052D  0F4A               	incfsz	___fladd@b+2,w
  4409  052E  2D30               	goto	u1743
  4410  052F  2D31               	goto	u1744
  4411  0530                     u1743:
  4412  0530  02D6               	subwf	??___fladd+6,f
  4413  0531                     u1744:
  4414  0531  084B               	movf	___fladd@b+3,w
  4415  0532  1C03               	skipc
  4416  0533  0F4B               	incfsz	___fladd@b+3,w
  4417  0534  2D36               	goto	u1745
  4418  0535  2D37               	goto	u1746
  4419  0536                     u1745:
  4420  0536  02D7               	subwf	??___fladd+7,f
  4421  0537                     u1746:
  4422  0537  0854               	movf	??___fladd+4,w
  4423  0538  07D0               	addwf	??___fladd,f
  4424  0539  0855               	movf	??___fladd+5,w
  4425  053A  1803               	skipnc
  4426  053B  0F55               	incfsz	??___fladd+5,w
  4427  053C  2D3E               	goto	u1750
  4428  053D  2D3F               	goto	u1751
  4429  053E                     u1750:
  4430  053E  07D1               	addwf	??___fladd+1,f
  4431  053F                     u1751:
  4432  053F  0856               	movf	??___fladd+6,w
  4433  0540  1803               	skipnc
  4434  0541  0F56               	incfsz	??___fladd+6,w
  4435  0542  2D44               	goto	u1752
  4436  0543  2D45               	goto	u1753
  4437  0544                     u1752:
  4438  0544  07D2               	addwf	??___fladd+2,f
  4439  0545                     u1753:
  4440  0545  0857               	movf	??___fladd+7,w
  4441  0546  1803               	skipnc
  4442  0547  0A57               	incf	??___fladd+7,w
  4443  0548  07D3               	addwf	??___fladd+3,f
  4444  0549  0853               	movf	??___fladd+3,w
  4445  054A  00CB               	movwf	___fladd@b+3
  4446  054B  0852               	movf	??___fladd+2,w
  4447  054C  00CA               	movwf	___fladd@b+2
  4448  054D  0851               	movf	??___fladd+1,w
  4449  054E  00C9               	movwf	___fladd@b+1
  4450  054F  0850               	movf	??___fladd,w
  4451  0550  00C8               	movwf	___fladd@b
  4452  0551                     l1764:
  4453  0551  3080               	movlw	128
  4454  0552  00D0               	movwf	??___fladd
  4455  0553  0850               	movf	??___fladd,w
  4456  0554  06D8               	xorwf	___fladd@signs,f
  4457  0555  09DB               	comf	___fladd@grs,f
  4458  0556  0ADB               	incf	___fladd@grs,f
  4459  0557                     l1766:
  4460  0557  085B               	movf	___fladd@grs,w
  4461  0558  1D03               	btfss	3,2
  4462  0559  2D5B               	goto	u1761
  4463  055A  2D5C               	goto	u1760
  4464  055B                     u1761:
  4465  055B  2D79               	goto	l602
  4466  055C                     u1760:
  4467  055C                     l1768:
  4468  055C  3001               	movlw	1
  4469  055D  07C8               	addwf	___fladd@b,f
  4470  055E  3000               	movlw	0
  4471  055F  1803               	skipnc
  4472  0560  3001               	movlw	1
  4473  0561  07C9               	addwf	___fladd@b+1,f
  4474  0562  3000               	movlw	0
  4475  0563  1803               	skipnc
  4476  0564  3001               	movlw	1
  4477  0565  07CA               	addwf	___fladd@b+2,f
  4478  0566  3000               	movlw	0
  4479  0567  1803               	skipnc
  4480  0568  3001               	movlw	1
  4481  0569  07CB               	addwf	___fladd@b+3,f
  4482  056A  2D79               	goto	l602
  4483  056B                     l1770:
  4484  056B  084C               	movf	___fladd@a,w
  4485  056C  02C8               	subwf	___fladd@b,f
  4486  056D  084D               	movf	___fladd@a+1,w
  4487  056E  1C03               	skipc
  4488  056F  0F4D               	incfsz	___fladd@a+1,w
  4489  0570  02C9               	subwf	___fladd@b+1,f
  4490  0571  084E               	movf	___fladd@a+2,w
  4491  0572  1C03               	skipc
  4492  0573  0F4E               	incfsz	___fladd@a+2,w
  4493  0574  02CA               	subwf	___fladd@b+2,f
  4494  0575  084F               	movf	___fladd@a+3,w
  4495  0576  1C03               	skipc
  4496  0577  0F4F               	incfsz	___fladd@a+3,w
  4497  0578  02CB               	subwf	___fladd@b+3,f
  4498  0579                     l602:
  4499  0579  084B               	movf	___fladd@b+3,w
  4500  057A  044A               	iorwf	___fladd@b+2,w
  4501  057B  0449               	iorwf	___fladd@b+1,w
  4502  057C  0448               	iorwf	___fladd@b,w
  4503  057D  1D03               	skipz
  4504  057E  2D80               	goto	u1771
  4505  057F  2D81               	goto	u1770
  4506  0580                     u1771:
  4507  0580  2DAD               	goto	l1792
  4508  0581                     u1770:
  4509  0581                     l1772:
  4510  0581  085B               	movf	___fladd@grs,w
  4511  0582  1D03               	btfss	3,2
  4512  0583  2D85               	goto	u1781
  4513  0584  2D86               	goto	u1780
  4514  0585                     u1781:
  4515  0585  2DAD               	goto	l1792
  4516  0586                     u1780:
  4517  0586                     l1774:
  4518  0586  3000               	movlw	0
  4519  0587  00CB               	movwf	?___fladd+3
  4520  0588  3000               	movlw	0
  4521  0589  00CA               	movwf	?___fladd+2
  4522  058A  3000               	movlw	0
  4523  058B  00C9               	movwf	?___fladd+1
  4524  058C  3000               	movlw	0
  4525  058D  00C8               	movwf	?___fladd
  4526  058E  2E2B               	goto	l594
  4527  058F                     l1778:
  4528  058F  3001               	movlw	1
  4529  0590  00D0               	movwf	??___fladd
  4530  0591                     u1795:
  4531  0591  1003               	clrc
  4532  0592  0DC8               	rlf	___fladd@b,f
  4533  0593  0DC9               	rlf	___fladd@b+1,f
  4534  0594  0DCA               	rlf	___fladd@b+2,f
  4535  0595  0DCB               	rlf	___fladd@b+3,f
  4536  0596  0BD0               	decfsz	??___fladd,f
  4537  0597  2D91               	goto	u1795
  4538  0598                     l1780:
  4539  0598  1FDB               	btfss	___fladd@grs,7
  4540  0599  2D9B               	goto	u1801
  4541  059A  2D9C               	goto	u1800
  4542  059B                     u1801:
  4543  059B  2D9D               	goto	l606
  4544  059C                     u1800:
  4545  059C                     l1782:
  4546  059C  1448               	bsf	___fladd@b,0
  4547  059D                     l606:
  4548  059D  1C5B               	btfss	___fladd@grs,0
  4549  059E  2DA0               	goto	u1811
  4550  059F  2DA1               	goto	u1810
  4551  05A0                     u1811:
  4552  05A0  2DA4               	goto	l1786
  4553  05A1                     u1810:
  4554  05A1                     l1784:
  4555  05A1  1403               	setc
  4556  05A2  0DDB               	rlf	___fladd@grs,f
  4557  05A3  2DA6               	goto	l1788
  4558  05A4                     l1786:
  4559  05A4  1003               	clrc
  4560  05A5  0DDB               	rlf	___fladd@grs,f
  4561  05A6                     l1788:
  4562  05A6  085A               	movf	___fladd@bexp,w
  4563  05A7  1903               	btfsc	3,2
  4564  05A8  2DAA               	goto	u1821
  4565  05A9  2DAB               	goto	u1820
  4566  05AA                     u1821:
  4567  05AA  2DAD               	goto	l1792
  4568  05AB                     u1820:
  4569  05AB                     l1790:
  4570  05AB  3001               	movlw	1
  4571  05AC  02DA               	subwf	___fladd@bexp,f
  4572  05AD                     l1792:
  4573  05AD  1FCA               	btfss	___fladd@b+2,7
  4574  05AE  2DB0               	goto	u1831
  4575  05AF  2DB1               	goto	u1830
  4576  05B0                     u1831:
  4577  05B0  2D8F               	goto	l1778
  4578  05B1                     u1830:
  4579  05B1                     l1794:
  4580  05B1  01D9               	clrf	___fladd@aexp
  4581  05B2                     l1796:
  4582  05B2  1FDB               	btfss	___fladd@grs,7
  4583  05B3  2DB5               	goto	u1841
  4584  05B4  2DB6               	goto	u1840
  4585  05B5                     u1841:
  4586  05B5  2DC4               	goto	l1804
  4587  05B6                     u1840:
  4588  05B6                     l1798:
  4589  05B6  085B               	movf	___fladd@grs,w
  4590  05B7  397F               	andlw	127
  4591  05B8  1903               	btfsc	3,2
  4592  05B9  2DBB               	goto	u1851
  4593  05BA  2DBC               	goto	u1850
  4594  05BB                     u1851:
  4595  05BB  2DBF               	goto	l612
  4596  05BC                     u1850:
  4597  05BC                     l1800:
  4598  05BC  01D9               	clrf	___fladd@aexp
  4599  05BD  0AD9               	incf	___fladd@aexp,f
  4600  05BE  2DC4               	goto	l1804
  4601  05BF                     l612:
  4602  05BF  1C48               	btfss	___fladd@b,0
  4603  05C0  2DC2               	goto	u1861
  4604  05C1  2DC3               	goto	u1860
  4605  05C2                     u1861:
  4606  05C2  2DC4               	goto	l1804
  4607  05C3                     u1860:
  4608  05C3  2DBC               	goto	l1800
  4609  05C4                     l1804:
  4610  05C4  0859               	movf	___fladd@aexp,w
  4611  05C5  1903               	btfsc	3,2
  4612  05C6  2DC8               	goto	u1871
  4613  05C7  2DC9               	goto	u1870
  4614  05C8                     u1871:
  4615  05C8  2DFD               	goto	l615
  4616  05C9                     u1870:
  4617  05C9                     l1806:
  4618  05C9  3001               	movlw	1
  4619  05CA  07C8               	addwf	___fladd@b,f
  4620  05CB  3000               	movlw	0
  4621  05CC  1803               	skipnc
  4622  05CD  3001               	movlw	1
  4623  05CE  07C9               	addwf	___fladd@b+1,f
  4624  05CF  3000               	movlw	0
  4625  05D0  1803               	skipnc
  4626  05D1  3001               	movlw	1
  4627  05D2  07CA               	addwf	___fladd@b+2,f
  4628  05D3  3000               	movlw	0
  4629  05D4  1803               	skipnc
  4630  05D5  3001               	movlw	1
  4631  05D6  07CB               	addwf	___fladd@b+3,f
  4632  05D7                     l1808:
  4633  05D7  1C4B               	btfss	___fladd@b+3,0
  4634  05D8  2DDA               	goto	u1881
  4635  05D9  2DDB               	goto	u1880
  4636  05DA                     u1881:
  4637  05DA  2DFD               	goto	l615
  4638  05DB                     u1880:
  4639  05DB                     l1810:
  4640  05DB  0848               	movf	___fladd@b,w
  4641  05DC  00D0               	movwf	??___fladd
  4642  05DD  0849               	movf	___fladd@b+1,w
  4643  05DE  00D1               	movwf	??___fladd+1
  4644  05DF  084A               	movf	___fladd@b+2,w
  4645  05E0  00D2               	movwf	??___fladd+2
  4646  05E1  084B               	movf	___fladd@b+3,w
  4647  05E2  00D3               	movwf	??___fladd+3
  4648  05E3  3001               	movlw	1
  4649  05E4  00D4               	movwf	??___fladd+4
  4650  05E5                     u1895:
  4651  05E5  0D53               	rlf	??___fladd+3,w
  4652  05E6  0CD3               	rrf	??___fladd+3,f
  4653  05E7  0CD2               	rrf	??___fladd+2,f
  4654  05E8  0CD1               	rrf	??___fladd+1,f
  4655  05E9  0CD0               	rrf	??___fladd,f
  4656  05EA                     u1890:
  4657  05EA  0BD4               	decfsz	??___fladd+4,f
  4658  05EB  2DE5               	goto	u1895
  4659  05EC  0853               	movf	??___fladd+3,w
  4660  05ED  00CB               	movwf	___fladd@b+3
  4661  05EE  0852               	movf	??___fladd+2,w
  4662  05EF  00CA               	movwf	___fladd@b+2
  4663  05F0  0851               	movf	??___fladd+1,w
  4664  05F1  00C9               	movwf	___fladd@b+1
  4665  05F2  0850               	movf	??___fladd,w
  4666  05F3  00C8               	movwf	___fladd@b
  4667  05F4  0A5A               	incf	___fladd@bexp,w
  4668  05F5  1903               	btfsc	3,2
  4669  05F6  2DF8               	goto	u1901
  4670  05F7  2DF9               	goto	u1900
  4671  05F8                     u1901:
  4672  05F8  2DFD               	goto	l615
  4673  05F9                     u1900:
  4674  05F9                     l1812:
  4675  05F9  3001               	movlw	1
  4676  05FA  00D0               	movwf	??___fladd
  4677  05FB  0850               	movf	??___fladd,w
  4678  05FC  07DA               	addwf	___fladd@bexp,f
  4679  05FD                     l615:
  4680  05FD  0A5A               	incf	___fladd@bexp,w
  4681  05FE  1903               	btfsc	3,2
  4682  05FF  2E01               	goto	u1911
  4683  0600  2E02               	goto	u1910
  4684  0601                     u1911:
  4685  0601  2E07               	goto	l1816
  4686  0602                     u1910:
  4687  0602                     l1814:
  4688  0602  085A               	movf	___fladd@bexp,w
  4689  0603  1D03               	btfss	3,2
  4690  0604  2E06               	goto	u1921
  4691  0605  2E07               	goto	u1920
  4692  0606                     u1921:
  4693  0606  2E15               	goto	l1822
  4694  0607                     u1920:
  4695  0607                     l1816:
  4696  0607  3000               	movlw	0
  4697  0608  00CB               	movwf	___fladd@b+3
  4698  0609  3000               	movlw	0
  4699  060A  00CA               	movwf	___fladd@b+2
  4700  060B  3000               	movlw	0
  4701  060C  00C9               	movwf	___fladd@b+1
  4702  060D  3000               	movlw	0
  4703  060E  00C8               	movwf	___fladd@b
  4704  060F                     l1818:
  4705  060F  085A               	movf	___fladd@bexp,w
  4706  0610  1D03               	btfss	3,2
  4707  0611  2E13               	goto	u1931
  4708  0612  2E14               	goto	u1930
  4709  0613                     u1931:
  4710  0613  2E15               	goto	l1822
  4711  0614                     u1930:
  4712  0614                     l1820:
  4713  0614  01D8               	clrf	___fladd@signs
  4714  0615                     l1822:
  4715  0615  1C5A               	btfss	___fladd@bexp,0
  4716  0616  2E18               	goto	u1941
  4717  0617  2E19               	goto	u1940
  4718  0618                     u1941:
  4719  0618  2E1B               	goto	l1826
  4720  0619                     u1940:
  4721  0619                     l1824:
  4722  0619  17CA               	bsf	___fladd@b+2,7
  4723  061A  2E1F               	goto	l623
  4724  061B                     l1826:
  4725  061B  307F               	movlw	127
  4726  061C  00D0               	movwf	??___fladd
  4727  061D  0850               	movf	??___fladd,w
  4728  061E  05CA               	andwf	___fladd@b+2,f
  4729  061F                     l623:
  4730  061F  085A               	movf	___fladd@bexp,w
  4731  0620  00D0               	movwf	??___fladd
  4732  0621  1003               	clrc
  4733  0622  0C50               	rrf	??___fladd,w
  4734  0623  00D1               	movwf	??___fladd+1
  4735  0624  0851               	movf	??___fladd+1,w
  4736  0625  00CB               	movwf	___fladd@b+3
  4737  0626                     l1828:
  4738  0626  1FD8               	btfss	___fladd@signs,7
  4739  0627  2E29               	goto	u1951
  4740  0628  2E2A               	goto	u1950
  4741  0629                     u1951:
  4742  0629  2E2B               	goto	l624
  4743  062A                     u1950:
  4744  062A                     l1830:
  4745  062A  17CB               	bsf	___fladd@b+3,7
  4746  062B                     l624:
  4747  062B                     l594:
  4748  062B  0008               	return
  4749  062C                     __end_of___fladd:
  4750                           
  4751                           	psect	text10
  4752  0C04                     __ptext10:	
  4753 ;; *************** function _isr *****************
  4754 ;; Defined at:
  4755 ;;		line 59 in file "main.c"
  4756 ;; Parameters:    Size  Location     Type
  4757 ;;		None
  4758 ;; Auto vars:     Size  Location     Type
  4759 ;;		None
  4760 ;; Return value:  Size  Location     Type
  4761 ;;                  1    wreg      void 
  4762 ;; Registers used:
  4763 ;;		wreg, status,2, btemp+1
  4764 ;; Tracked objects:
  4765 ;;		On entry : 0/0
  4766 ;;		On exit  : 0/0
  4767 ;;		Unchanged: 0/0
  4768 ;; Data sizes:     COMMON   BANK0   BANK1   BANK3   BANK2
  4769 ;;      Params:         0       0       0       0       0
  4770 ;;      Locals:         0       0       0       0       0
  4771 ;;      Temps:          5       0       0       0       0
  4772 ;;      Totals:         5       0       0       0       0
  4773 ;;Total ram usage:        5 bytes
  4774 ;; Hardware stack levels used:    1
  4775 ;; This function calls:
  4776 ;;		Nothing
  4777 ;; This function is called by:
  4778 ;;		Interrupt level 1
  4779 ;; This function uses a non-reentrant model
  4780 ;;
  4781                           
  4782                           
  4783                           ;psect for function _isr
  4784  0C04                     _isr:
  4785  0C04                     i1l2174:
  4786                           
  4787                           ;main.c: 60:     (INTCONbits.GIE = 0);
  4788  0C04  138B               	bcf	11,7	;volatile
  4789                           
  4790                           ;main.c: 61:     if (T0IF == 1){
  4791  0C05  1D0B               	btfss	11,2	;volatile
  4792  0C06  2C08               	goto	u248_21
  4793  0C07  2C09               	goto	u248_20
  4794  0C08                     u248_21:
  4795  0C08  2C32               	goto	i1l135
  4796  0C09                     u248_20:
  4797  0C09                     i1l2176:
  4798                           
  4799                           ;main.c: 62:         TMR0 = 206;
  4800  0C09  30CE               	movlw	206
  4801  0C0A  0081               	movwf	1	;volatile
  4802                           
  4803                           ;main.c: 63:         PWM3++;
  4804  0C0B  3001               	movlw	1
  4805  0C0C  07ED               	addwf	_PWM3,f
  4806  0C0D  1803               	skipnc
  4807  0C0E  0AEE               	incf	_PWM3+1,f
  4808  0C0F  3000               	movlw	0
  4809  0C10  07EE               	addwf	_PWM3+1,f
  4810  0C11                     i1l2178:
  4811                           
  4812                           ;main.c: 65:         if (PWM3>= 25){
  4813  0C11  086E               	movf	_PWM3+1,w
  4814  0C12  3A80               	xorlw	128
  4815  0C13  00FF               	movwf	btemp+1
  4816  0C14  3080               	movlw	128
  4817  0C15  027F               	subwf	btemp+1,w
  4818  0C16  1D03               	skipz
  4819  0C17  2C1A               	goto	u249_25
  4820  0C18  3019               	movlw	25
  4821  0C19  026D               	subwf	_PWM3,w
  4822  0C1A                     u249_25:
  4823  0C1A  1C03               	skipc
  4824  0C1B  2C1D               	goto	u249_21
  4825  0C1C  2C1E               	goto	u249_20
  4826  0C1D                     u249_21:
  4827  0C1D  2C22               	goto	i1l2182
  4828  0C1E                     u249_20:
  4829  0C1E                     i1l2180:
  4830                           
  4831                           ;main.c: 66:           PWM3 = 0;}
  4832  0C1E  1283               	bcf	3,5	;RP0=0, select bank0
  4833  0C1F  1303               	bcf	3,6	;RP1=0, select bank0
  4834  0C20  01ED               	clrf	_PWM3
  4835  0C21  01EE               	clrf	_PWM3+1
  4836  0C22                     i1l2182:
  4837                           
  4838                           ;main.c: 67:           if (PWM3 >= POT0){
  4839  0C22  0876               	movf	_POT0+1,w
  4840  0C23  1283               	bcf	3,5	;RP0=0, select bank0
  4841  0C24  1303               	bcf	3,6	;RP1=0, select bank0
  4842  0C25  026E               	subwf	_PWM3+1,w
  4843  0C26  1D03               	skipz
  4844  0C27  2C2A               	goto	u250_25
  4845  0C28  0875               	movf	_POT0,w
  4846  0C29  026D               	subwf	_PWM3,w
  4847  0C2A                     u250_25:
  4848  0C2A  1C03               	skipc
  4849  0C2B  2C2D               	goto	u250_21
  4850  0C2C  2C2E               	goto	u250_20
  4851  0C2D                     u250_21:
  4852  0C2D  2C30               	goto	i1l137
  4853  0C2E                     u250_20:
  4854  0C2E                     i1l2184:
  4855                           
  4856                           ;main.c: 68:            PORTCbits.RC3 = 0;
  4857  0C2E  1187               	bcf	7,3	;volatile
  4858                           
  4859                           ;main.c: 69:            }
  4860  0C2F  2C31               	goto	i1l138
  4861  0C30                     i1l137:	
  4862                           ;main.c: 70:           else {
  4863                           
  4864                           
  4865                           ;main.c: 71:            PORTCbits.RC3 = 1;
  4866  0C30  1587               	bsf	7,3	;volatile
  4867  0C31                     i1l138:	
  4868                           ;main.c: 72:            }
  4869                           
  4870                           
  4871                           ;main.c: 73:           INTCONbits.T0IF = 0;
  4872  0C31  110B               	bcf	11,2	;volatile
  4873  0C32                     i1l135:	
  4874                           ;main.c: 76:     }
  4875                           
  4876                           
  4877                           ;main.c: 78:     if (ADIF == 1){
  4878  0C32  1F0C               	btfss	12,6	;volatile
  4879  0C33  2C35               	goto	u251_21
  4880  0C34  2C36               	goto	u251_20
  4881  0C35                     u251_21:
  4882  0C35  2C42               	goto	i1l2190
  4883  0C36                     u251_20:
  4884  0C36                     i1l2186:
  4885                           
  4886                           ;main.c: 79:         VALORAN = ADRESH;
  4887  0C36  081E               	movf	30,w	;volatile
  4888  0C37  00F0               	movwf	??_isr
  4889  0C38  01F1               	clrf	??_isr+1
  4890  0C39  0870               	movf	??_isr,w
  4891  0C3A  1683               	bsf	3,5	;RP0=1, select bank1
  4892  0C3B  1303               	bcf	3,6	;RP1=0, select bank1
  4893  0C3C  00A4               	movwf	_VALORAN^(0+128)
  4894  0C3D  0871               	movf	??_isr+1,w
  4895  0C3E  00A5               	movwf	(_VALORAN+1)^(0+128)
  4896  0C3F                     i1l2188:
  4897                           
  4898                           ;main.c: 80:         PIR1bits.ADIF = 0;
  4899  0C3F  1283               	bcf	3,5	;RP0=0, select bank0
  4900  0C40  1303               	bcf	3,6	;RP1=0, select bank0
  4901  0C41  130C               	bcf	12,6	;volatile
  4902  0C42                     i1l2190:
  4903                           
  4904                           ;main.c: 82:     if (PIR1bits.RCIF){
  4905  0C42  1E8C               	btfss	12,5	;volatile
  4906  0C43  2C45               	goto	u252_21
  4907  0C44  2C46               	goto	u252_20
  4908  0C45                     u252_21:
  4909  0C45  2C63               	goto	i1l2200
  4910  0C46                     u252_20:
  4911  0C46                     i1l2192:
  4912                           
  4913                           ;main.c: 83:         if (RCREG >= 97 && RCREG <= 99 ){
  4914  0C46  3061               	movlw	97
  4915  0C47  021A               	subwf	26,w	;volatile
  4916  0C48  1C03               	skipc
  4917  0C49  2C4B               	goto	u253_21
  4918  0C4A  2C4C               	goto	u253_20
  4919  0C4B                     u253_21:
  4920  0C4B  2C5C               	goto	i1l2198
  4921  0C4C                     u253_20:
  4922  0C4C                     i1l2194:
  4923  0C4C  3064               	movlw	100
  4924  0C4D  021A               	subwf	26,w	;volatile
  4925  0C4E  1803               	skipnc
  4926  0C4F  2C51               	goto	u254_21
  4927  0C50  2C52               	goto	u254_20
  4928  0C51                     u254_21:
  4929  0C51  2C5C               	goto	i1l2198
  4930  0C52                     u254_20:
  4931  0C52                     i1l2196:
  4932                           
  4933                           ;main.c: 84:                 SEL = RCREG; }
  4934  0C52  081A               	movf	26,w	;volatile
  4935  0C53  00F0               	movwf	??_isr
  4936  0C54  01F1               	clrf	??_isr+1
  4937  0C55  0870               	movf	??_isr,w
  4938  0C56  1683               	bsf	3,5	;RP0=1, select bank1
  4939  0C57  1303               	bcf	3,6	;RP1=0, select bank1
  4940  0C58  00A0               	movwf	_SEL^(0+128)
  4941  0C59  0871               	movf	??_isr+1,w
  4942  0C5A  00A1               	movwf	(_SEL+1)^(0+128)
  4943  0C5B  2C63               	goto	i1l2200
  4944  0C5C                     i1l2198:
  4945                           
  4946                           ;main.c: 86:             DATO = RCREG;
  4947  0C5C  081A               	movf	26,w	;volatile
  4948  0C5D  00F0               	movwf	??_isr
  4949  0C5E  01F1               	clrf	??_isr+1
  4950  0C5F  0870               	movf	??_isr,w
  4951  0C60  00F7               	movwf	_DATO
  4952  0C61  0871               	movf	??_isr+1,w
  4953  0C62  00F8               	movwf	_DATO+1
  4954  0C63                     i1l2200:
  4955                           
  4956                           ;main.c: 90:     (INTCONbits.GIE = 1);
  4957  0C63  178B               	bsf	11,7	;volatile
  4958  0C64                     i1l143:
  4959  0C64  0874               	movf	??_isr+4,w
  4960  0C65  1283               	bcf	3,5	;RP0=0, select bank0
  4961  0C66  00FF               	movwf	btemp+1
  4962  0C67  0873               	movf	??_isr+3,w
  4963  0C68  008A               	movwf	10
  4964  0C69  0E72               	swapf	??_isr+2,w
  4965  0C6A  0083               	movwf	3
  4966  0C6B  0EFE               	swapf	btemp,f
  4967  0C6C  0E7E               	swapf	btemp,w
  4968  0C6D  0009               	retfie
  4969  0C6E                     __end_of_isr:
  4970  007E                     btemp	set	126	;btemp
  4971  007E                     wtemp0	set	126
  4972                           
  4973                           	psect	intentry
  4974  0004                     __pintentry:	
  4975                           ;incstack = 0
  4976                           ; Regs used in _isr: [wreg+status,2+btemp+1]
  4977                           
  4978  0004                     interrupt_function:
  4979  007E                     saved_w	set	btemp
  4980  0004  00FE               	movwf	btemp
  4981  0005  0E03               	swapf	3,w
  4982  0006  00F2               	movwf	??_isr+2
  4983  0007  080A               	movf	10,w
  4984  0008  00F3               	movwf	??_isr+3
  4985  0009  1283               	bcf	3,5	;RP0=0, select bank0
  4986  000A  1303               	bcf	3,6	;RP1=0, select bank0
  4987  000B  087F               	movf	btemp+1,w
  4988  000C  00F4               	movwf	??_isr+4
  4989  000D  120A  158A  2C04   	ljmp	_isr
  4990                           
  4991                           	psect	config
  4992                           
  4993                           ;Config register CONFIG1 @ 0x2007
  4994                           ;	Oscillator Selection bits
  4995                           ;	FOSC = INTRC_CLKOUT, INTOSC oscillator: CLKOUT function on RA6/OSC2/CLKOUT pin, I/O fu
      +                          nction on RA7/OSC1/CLKIN
  4996                           ;	Watchdog Timer Enable bit
  4997                           ;	WDTE = OFF, WDT disabled and can be enabled by SWDTEN bit of the WDTCON register
  4998                           ;	Power-up Timer Enable bit
  4999                           ;	PWRTE = OFF, PWRT disabled
  5000                           ;	RE3/MCLR pin function select bit
  5001                           ;	MCLRE = OFF, RE3/MCLR pin function is digital input, MCLR internally tied to VDD
  5002                           ;	Code Protection bit
  5003                           ;	CP = OFF, Program memory code protection is disabled
  5004                           ;	Data Code Protection bit
  5005                           ;	CPD = OFF, Data memory code protection is disabled
  5006                           ;	Brown Out Reset Selection bits
  5007                           ;	BOREN = OFF, BOR disabled
  5008                           ;	Internal External Switchover bit
  5009                           ;	IESO = OFF, Internal/External Switchover mode is disabled
  5010                           ;	Fail-Safe Clock Monitor Enabled bit
  5011                           ;	FCMEN = OFF, Fail-Safe Clock Monitor is disabled
  5012                           ;	Low Voltage Programming Enable bit
  5013                           ;	LVP = OFF, RB3 pin has digital I/O, HV on MCLR must be used for programming
  5014                           ;	In-Circuit Debugger Mode bit
  5015                           ;	DEBUG = 0x1, unprogrammed default
  5016  2007                     	org	8199
  5017  2007  20D5               	dw	8405
  5018                           
  5019                           ;Config register CONFIG2 @ 0x2008
  5020                           ;	Brown-out Reset Selection bit
  5021                           ;	BOR4V = BOR40V, Brown-out Reset set to 4.0V
  5022                           ;	Flash Program Memory Self Write Enable bits
  5023                           ;	WRT = OFF, Write protection off
  5024  2008                     	org	8200
  5025  2008  3FFF               	dw	16383

Data Sizes:
    Strings     0
    Constant    0
    Data        4
    BSS         16
    Persistent  0
    Stack       0

Auto Spaces:
    Space          Size  Autos    Used
    COMMON           14      5       9
    BANK0            80     73      79
    BANK1            80      5      15
    BANK3            96      0       0
    BANK2            96      0       0

Pointer List with Targets:

    None.

Critical Paths under _main in COMMON

    None.

Critical Paths under _isr in COMMON

    None.

Critical Paths under _main in BANK0

    _main->_ANALOGICOS
    _ANALOGICOS->___fltol
    ___fltol->___fladd
    ___flmul->___xxtofl
    ___fladd->___flmul

Critical Paths under _isr in BANK0

    None.

Critical Paths under _main in BANK1

    _main->_ANALOGICOS

Critical Paths under _isr in BANK1

    None.

Critical Paths under _main in BANK3

    None.

Critical Paths under _isr in BANK3

    None.

Critical Paths under _main in BANK2

    None.

Critical Paths under _isr in BANK2

    None.

Call Graph Tables:

 ---------------------------------------------------------------------------------
 (Depth) Function   	        Calls       Base Space   Used Autos Params    Refs
 ---------------------------------------------------------------------------------
 (0) _main                                                 2     2      0   18700
                                              3 BANK1      2     2      0
                         _ANALOGICOS
                           _EEPROM_R
                           _EEPROM_W
                            ___fladd
                            ___flmul
                            ___fltol
                           ___xxtofl
                              _setup
 ---------------------------------------------------------------------------------
 (1) _setup                                                1     1      0       0
                                              0 BANK0      1     1      0
 ---------------------------------------------------------------------------------
 (1) _EEPROM_W                                             4     0      4    1682
                                              0 BANK0      4     0      4
 ---------------------------------------------------------------------------------
 (1) _EEPROM_R                                             6     4      2     875
                                              0 BANK0      6     4      2
 ---------------------------------------------------------------------------------
 (1) _ANALOGICOS                                           5     3      2    8163
                                             71 BANK0      2     0      2
                                              0 BANK1      3     3      0
                            ___fladd
                            ___flmul
                            ___fltol
                           ___xxtofl
 ---------------------------------------------------------------------------------
 (1) ___xxtofl                                            14    10      4     836
                                              0 BANK0     14    10      4
 ---------------------------------------------------------------------------------
 (1) ___fltol                                             11     7      4     533
                                             60 BANK0     11     7      4
                            ___fladd (ARG)
                            ___flmul (ARG)
                           ___xxtofl (ARG)
 ---------------------------------------------------------------------------------
 (1) ___flmul                                             26    18      8    3893
                                             14 BANK0     26    18      8
                          __Umul8_16
                           ___xxtofl (ARG)
 ---------------------------------------------------------------------------------
 (2) __Umul8_16                                            9     7      2     980
                                              0 BANK0      9     7      2
 ---------------------------------------------------------------------------------
 (1) ___fladd                                             20    12      8    2718
                                             40 BANK0     20    12      8
                            ___flmul (ARG)
                           ___xxtofl (ARG)
 ---------------------------------------------------------------------------------
 Estimated maximum stack depth 2
 ---------------------------------------------------------------------------------
 (Depth) Function   	        Calls       Base Space   Used Autos Params    Refs
 ---------------------------------------------------------------------------------
 (4) _isr                                                  5     5      0       0
                                              0 COMMON     5     5      0
 ---------------------------------------------------------------------------------
 Estimated maximum stack depth 4
 ---------------------------------------------------------------------------------

 Call Graph Graphs:

 _main (ROOT)
   _ANALOGICOS
     ___fladd
       ___flmul (ARG)
         __Umul8_16
         ___xxtofl (ARG)
       ___xxtofl (ARG)
     ___flmul
       __Umul8_16
       ___xxtofl (ARG)
     ___fltol
       ___fladd (ARG)
         ___flmul (ARG)
           __Umul8_16
           ___xxtofl (ARG)
         ___xxtofl (ARG)
       ___flmul (ARG)
         __Umul8_16
         ___xxtofl (ARG)
       ___xxtofl (ARG)
     ___xxtofl
   _EEPROM_R
   _EEPROM_W
   ___fladd
     ___flmul (ARG)
       __Umul8_16
       ___xxtofl (ARG)
     ___xxtofl (ARG)
   ___flmul
     __Umul8_16
     ___xxtofl (ARG)
   ___fltol
     ___fladd (ARG)
       ___flmul (ARG)
         __Umul8_16
         ___xxtofl (ARG)
       ___xxtofl (ARG)
     ___flmul (ARG)
       __Umul8_16
       ___xxtofl (ARG)
     ___xxtofl (ARG)
   ___xxtofl
   _setup

 _isr (ROOT)

 Address spaces:
Name               Size   Autos  Total    Cost      Usage
BANK3               60      0       0       9        0.0%
BITBANK3            60      0       0       8        0.0%
SFR3                 0      0       0       4        0.0%
BITSFR3              0      0       0       4        0.0%
BANK2               60      0       0      11        0.0%
BITBANK2            60      0       0      10        0.0%
SFR2                 0      0       0       5        0.0%
BITSFR2              0      0       0       5        0.0%
BANK1               50      5       F       7       18.8%
BITBANK1            50      0       0       6        0.0%
SFR1                 0      0       0       2        0.0%
BITSFR1              0      0       0       2        0.0%
BANK0               50     49      4F       5       98.8%
BITBANK0            50      0       0       4        0.0%
SFR0                 0      0       0       1        0.0%
BITSFR0              0      0       0       1        0.0%
COMMON               E      5       9       1       64.3%
BITCOMMON            E      0       0       0        0.0%
CODE                 0      0       0       0        0.0%
DATA                 0      0      67      12        0.0%
ABS                  0      0      67       3        0.0%
NULL                 0      0       0       0        0.0%
STACK                0      0       0       2        0.0%
EEDATA             100      0       0       0        0.0%


Microchip Technology PIC Macro Assembler V2.31 build 20201012212115 
Symbol Table                                                                                   Wed May 26 18:40:30 2021

    __Umul8_16@word_mpld 0026                      l202 0BB8                      l149 0E83  
                    l168 0FF2                      l193 0772                      l185 0CE5  
                    l602 0579                      l612 05BF                      l196 0BCF  
                    l606 059D                      l198 0BD5                      l623 061F  
                    l615 05FD                      l199 0BDA                      l624 062B  
                    l481 07D9                      l721 0D0A                      l474 07EE  
                    l723 0DA1                      l484 07EE                      l581 0407  
                    l734 0D6B                      l735 0D77                      l727 0D4F  
                    l585 04AE                      l594 062B                      l587 0485  
                    l683 030F                      l677 03A3                      l696 0BF1  
                    l689 0397                      l698 0C03                      _RB0 0030  
                    _RB1 0031                      _RB4 0034                      _RB5 0035  
                    _RB6 0036                      _RB7 0037                      _PR2 0092  
                    _SEL 00A0      __size_of_ANALOGICOS 0147                      _isr 0C04  
           ___flmul@aexp 003C             ___flmul@bexp 0041             ___flmul@sign 003B  
           ___flmul@temp 0046             ___flmul@prod 0042             ___fltol@exp1 0066  
                   l2400 0050                     l2410 0067                     l2402 0054  
                   l1610 079E                     l1602 0773                     l1700 0431  
                   l2500 030C                     l2420 0080                     l2412 0069  
                   l2404 0055                     l1612 079F                     l1604 0780  
                   l1710 0445                     l1702 0435                     l2510 032B  
                   l2430 0095                     l2422 0081                     l2414 0071  
                   l2406 005A                     l1614 07A7                     l1800 05BC  
                   l1720 0469                     l1712 0449                     l1704 0439  
                   l1640 03AB                     l2520 0371                     l2512 0344  
                   l2504 0314                     l2440 00B0                     l2432 009D  
                   l2424 0086                     l2416 0076                     l2408 005F  
                   l1632 07CE                     l1624 07B5                     l1616 07A9  
                   l1608 0789                     l2600 0C89                     l1810 05DB  
                   l1730 0499                     l1722 0489                     l1714 044D  
                   l1706 043D                     l1650 03C0                     l1642 03B1  
                   l2530 0390                     l2522 037B                     l2506 0319  
                   l2514 034A                     l2450 0132                     l2442 00C0  
                   l2434 00A2                     l2426 008B                     l2418 007C  
                   l1634 07DE                     l1618 07AD                     l1626 07C7  
                   l2610 0C96                     l2602 0C8A                     l1820 0614  
                   l1812 05F9                     l1804 05C4                     l1732 04A2  
                   l1724 0492                     l1708 0441                     l1716 0451  
                   l1660 03D8                     l1652 03C8                     l1644 03B5  
                   l2532 039B                     l2524 037D                     l2516 0357  
                   l2508 0327                     l2460 01A0                     l2452 014E  
                   l2444 00CD                     l2436 00A7                     l2428 0093  
                   l1636 07E3                     l2540 0CF2                     l2700 06F1  
                   l2620 0CA4                     l2612 0C9A                     l2604 0C8C  
                   l1830 062A                     l1822 0615                     l1814 0602  
                   l1806 05C9                     l1750 04E8                     l1742 04C0  
                   l1726 0494                     l1734 04A6                     l1718 0452  
                   l1670 03EA                     l1662 03DE                     l1654 03C9  
                   l1646 03B6                     l1638 03A4                     l2390 0BFA  
                   l2382 0BDE                     l2526 038B                     l2518 0362  
                   l2470 0230                     l2462 01B0                     l2454 016A  
                   l2446 00EA                     l2550 0D20                     l2542 0D02  
                   l2710 0754                     l2702 06F5                     l2630 0CA9  
                   l2622 0CA5                     l2614 0C9E                     l2606 0C90  
                   l1824 0619                     l1816 0607                     l1808 05D7  
                   l1752 04EA                     l1744 04D7                     l1736 04B2  
                   l1760 04FD                     l1728 0498                     l1672 03EF  
                   l1680 03FF                     l1664 03DF                     l1648 03BB  
                   l1656 03CB                     l2392 0BFF                     l2384 0BE0  
                   l2528 038F                     l2480 02C4                     l2472 0240  
                   l2464 01CD                     l2456 0173                     l2448 0106  
                   l2560 0D56                     l2552 0D2D                     l2544 0D12  
                   l2536 0CE9                     l2704 0749                     l2720 0BB9  
                   l2640 0CBC                     l2632 0CAB                     l2624 0CA6  
                   l2616 0CA2                     l2608 0C94                     l2800 0F3D  
                   l1826 061B                     l1818 060F                     l1762 0513  
                   l1770 056B                     l1754 04EE                     l1746 04DB  
                   l1738 04B7                     l1690 041D                     l1682 040D  
                   l1674 03F4                     l1666 03E5                     l1658 03D3  
                   l2386 0BE7                     l2490 02E9                     l2482 02D2  
                   l2474 026D                     l2466 01E6                     l2458 0183  
                   l2570 0D8F                     l2562 0D61                     l2554 0D34  
                   l2538 0CEE                     l2706 074B                     l2714 0758  
                   l2730 0B9F                     l2722 0BC5                     l2650 0CC1  
                   l2642 0CBD                     l2634 0CB2                     l2626 0CA7  
                   l2618 0CA3                     l2810 0FB6                     l2802 0F41  
                   l1828 0626                     l1780 0598                     l1772 0581  
                   l1764 0551                     l1756 04EF                     l1748 04DF  
                   l1692 0421                     l1684 0411                     l1676 03FC  
                   l1668 03E9                     l2388 0BEB                     l2484 02DB  
                   l2492 02EF                     l2476 0293                     l2468 0203  
                   l2396 0043                     l2572 0D94                     l2564 0D65  
                   l2556 0D38                     l2548 0D1B                     l2708 074D  
                   l2732 0BA5                     l2724 0BC8                     l2660 0CCA  
                   l2652 0CC4                     l2644 0CBE                     l2636 0CB8  
                   l2628 0CA8                     l2580 0C6E                     l2812 0FBC  
                   l2804 0F98                     l2740 0DA8                     l1790 05AB  
                   l1782 059C                     l1774 0586                     l1766 0557  
                   l1758 04F8                     l1694 0425                     l1686 0415  
                   l1678 03FD                     l2494 02F3                     l2486 02DF  
                   l2478 02BB                     l2398 004A                     l2574 0D98  
                   l2566 0D6F                     l2558 0D46                     l2734 0BA8  
                   l2726 0BC9                     l2670 0CD7                     l2662 0CCD  
                   l2654 0CC5                     l2646 0CBF                     l2638 0CBB  
                   l2590 0C7A                     l2582 0C72                     l2814 0FC0  
                   l2806 0F9C                     l2822 0FE0                     l2750 0DCA  
                   l2742 0DAA                     l1784 05A1                     l1792 05AD  
                   l1768 055C                     l1696 0429                     l1688 0419  
                   l2496 02F4                     l2488 02E0                     l2576 0D99  
                   l2568 0D79                     l2728 0BCE                     l2680 0CE4  
                   l2672 0CDA                     l2664 0CD0                     l2656 0CC6  
                   l2648 0CC0                     l2592 0C7B                     l2584 0C73  
                   l2824 0FF8                     l2920 0FE7                     l2816 0FCD  
                   l2808 0FA9                     l2760 0E5E                     l2752 0DF6  
                   l2744 0DBB                     l1786 05A4                     l1778 058F  
                   l1794 05B1                     l1698 042D                     l2498 02F8  
                   l2922 0767                     l2690 068C                     l2682 062C  
                   l2674 0CDB                     l2666 0CD1                     l2658 0CC7  
                   l2594 0C84                     l2586 0C77                     l2818 0FDA  
                   l2770 0E89                     l2754 0DFD                     l2746 0DC1  
                   l2738 0DA2                     l1796 05B2                     l1788 05A6  
                   l2692 0690                     l2684 062D                     l2676 0CDE  
                   l2668 0CD4                     l2596 0C87                     l2588 0C79  
                   l2780 0EC0                     l2772 0E8E                     l2756 0E2A  
                   l2764 0E63                     l1798 05B6                     l2694 06E4  
                   l2686 0681                     l2678 0CE2                     l2598 0C88  
                   l2790 0EF9                     l2782 0EC4                     l2774 0E90  
                   l2918 0E68                     l2758 0E31                     l2766 0E73  
                   l2696 06E6                     l2688 0685                     l2792 0F22  
                   l2784 0EC8                     l2776 0E94                     l2768 0E83  
                   l2698 06EA                     l2786 0EF1                     l2778 0E98  
                   l2794 0F30                     l2796 0F35                     l2788 0EF5  
                   l2798 0F3A                     _ADIF 0066                     ?_isr 0070  
                   _DATO 0077                     _T0IF 005A                     u1400 0780  
                   u1401 077F                     u3010 02DF                     u1410 0797  
                   u3011 02DE                     u1500 03B5                     u3100 0357  
                   u1420 07AD                     _IOCB 0096                     u1501 03B4  
                   u3101 0356                     u3005 02D4                     u1421 07AC  
                   u1510 03BB                     u3110 0371                     u3030 02F3  
                   u1430 07B4                     u1511 03BA                     u3111 0370  
                   u3031 02F2                     u1431 07B3                     u1415 0792  
                   u1600 0474                     u1520 03C0                     u3120 038F  
                   u3040 02F8                     u1601 0472                     u1521 03BF  
                   u3121 038E                     u3105 0353                     u3041 02F7  
                   u3025 02E2                     u1610 0475                     u1530 03DE  
                   u3050 030C                     u1450 07C6                     u3210 0D65  
                   u3130 0CEE                     u1531 03DD                     u3115 036D  
                   u3051 030B                     u1451 07C5                     u3211 0D64  
                   u3131 0CED                     u1700 04DF                     u1620 0489  
                   u1540 03E9                     u3060 0313                     u1460 07CD  
                   u3220 0D6B                     u3140 0CF2                     u3300 0E89  
                   u1701 04DE                     u1621 0488                     u1541 03E8  
                   u3061 0312                     u1461 07CC                     u1445 07B6  
                   u3221 0D6A                     u3205 0D5A                     u3141 0CF1  
                   u3301 0E88                     u1710 04EE                     u1630 0498  
                   u1550 03EF                     u3070 0319                     u3230 0D6F  
                   u3150 0D12                     u3310 0E8D                     u1711 04ED  
                   u1631 0497                     u1551 03EE                     u3071 0318  
                   u3231 0D6E                     u3151 0D11                     u3311 0E8C  
                   u1800 059C                     u1560 03F4                     u3080 032B  
                   u1480 07DE                     u3240 0D84                     u3400 0FA9  
                   u3320 0E94                     u1801 059B                     u1561 03F3  
                   u3081 032A                     u1481 07DD                     u3401 0FA8  
                   u3321 0E93                     u1810 05A1                     u1730 0513  
                   u1650 04AE                     u1570 040D                     u3090 033A  
                   u1490 07E3                     u3250 0D94                     u3170 0D33  
                   u3410 0FB6                     u3330 0E98                     u1811 05A0  
                   u1731 0512                     u1651 04AD                     u1571 040C  
                   u1491 07E2                     u1475 07D0                     u3251 0D93  
                   u3171 0D32                     u3411 0FB5                     u3331 0E97  
                   u1900 05F9                     u1820 05AB                     u1660 04B2  
                   u1580 0411                     u3260 0D98                     u3420 0FCD  
                   u3340 0EC4                     u1901 05F8                     u1821 05AA  
                   u1741 052A                     u1733 050F                     u1725 04F1  
                   u1661 04B1                     u1645 049B                     u1581 0410  
                   u3261 0D97                     u3245 0D7F                     u3165 0D25  
                   u3421 0FCC                     u3405 0FA5                     u3341 0EC3  
                   u1910 0602                     u1830 05B1                     u1750 053E  
                   u1742 052B                     u1670 04B7                     u1590 0469  
                   u3190 0D55                     u3270 0BD5                     u3430 0FDA  
                   u3350 0EC8                     u1911 0601                     u1831 05B0  
                   u1751 053F                     u1743 0530                     u1671 04B6  
                   u1591 0468                     u3095 0335                     u3191 0D54  
                   u3271 0BD4                     u3431 0FD9                     u3415 0FB2  
                   u3351 0EC7                     u1920 0607                     u1840 05B6  
                   u1760 055C                     u1752 0544                     u1744 0531  
                   u2800 0086                     u3440 0FF8                     u3360 0EF5  
                   u3280 0DC1                     u1921 0606                     u1841 05B5  
                   u1761 055B                     u1753 0545                     u1745 0536  
                   u1681 04C9                     u2801 0085                     u3185 0D47  
                   u3441 0FF7                     u3425 0FC9                     u3361 0EF4  
                   u3281 0DC0                     u1930 0614                     u1850 05BC  
                   u1770 0581                     u1746 0537                     u1690 04DB  
                   u1682 04D0                     u2730 0BEB                     u2810 008B  
                   u3450 0FFC                     u3370 0EF9                     u3290 0DC9  
                   u1931 0613                     u1851 05BB                     u1771 0580  
                   u1691 04DA                     u1683 04D7                     u1595 0465  
                   u2731 0BEA                     u2811 008A                     u3451 0FFB  
                   u3435 0FD6                     u3371 0EF8                     u3291 0DC8  
                   u1940 0619                     u1860 05C3                     u1780 0586  
                   u2820 00A2                     u3380 0F35                     u1941 0618  
                   u1861 05C2                     u1781 0585                     u2901 01BF  
                   u2821 00A1                     u3381 0F34                     u1950 062A  
                   u1870 05C9                     u2750 0BFF                     u2902 01C6  
                   u2830 00A7                     u3390 0F39                     u1951 0629  
                   u1871 05C8                     u2751 0BFE                     u2903 01CD  
                   u2831 00A6                     u3391 0F38                     u1880 05DB  
                   u2760 0054                     u1881 05DA                     u2745 0BF2  
                   u2921 01F5                     u2841 00F8                     u2761 0053  
                   u1890 05EA                     u2922 01FC                     u2842 00FF  
                   u2770 005A                     u1795 0591                     u2931 0222  
                   u2923 0203                     u2915 01CF                     u2851 0114  
                   u2843 0106                     u2771 0059                     u3467 0CAF  
                   u2932 0229                     u2852 011B                     u2780 005F  
                   u2941 024F                     u2933 0230                     u2861 0140  
                   u2853 0122                     u2781 005E                     u3477 0689  
                   u2950 0279                     u2942 0256                     u2862 0147  
                   u2790 0080                     u1895 05E5                     u2943 025D  
                   u2871 015C                     u2863 014E                     u2791 007F  
                   u3487 06EE                     u2872 0163                     u2961 0285  
                   u2873 016A                     u3497 0751                     u2970 02A1  
                   u2962 028C                     u2963 0293                     u2955 0274  
                   u2891 0192                     u2892 0199                     u2981 02AD  
                   u2893 01A0                     u2885 016C                     u2982 02B4  
                   u2983 02BB                     u2975 029C                     u2995 02BD  
                   _POT0 0075                     _POT1 006B                     _POT2 0069  
                   _TMR0 0001                     _PWM3 006D                     _WPUB 0095  
                   _main 0DA2                     btemp 007E                     start 0010  
       __end_of_EEPROM_R 0BB9         __end_of_EEPROM_W 0BDB                    ??_isr 0070  
          ___fltol@sign1 0065          __end_of___fladd 062C                    ?_main 0070  
                  _EEADR 010D                    _EEDAT 010C          __end_of___flmul 03A4  
        __end_of___fltol 07EF                    _ANSEL 0188                    _T2CON 0012  
                  i1l143 0C64                    i1l135 0C32                    i1l137 0C30  
                  i1l138 0C31                    _RCREG 001A                    _SEL_G 00A2  
                  _SPBRG 0099                    _PORTA 0005                    _PORTB 0006  
                  _PORTC 0007                    _PORTD 0008                    _PORTE 0009  
                  _TRISA 0085                    _TRISB 0086                    _TRISC 0087  
                  _TRISD 0088                    _TRISE 0089                    _setup 0C6E  
                  pclath 000A                    status 0003                    wtemp0 007E  
        __initialization 0013             __end_of_main 1000                   ??_main 00A9  
                 _ADRESH 001E                   _EEDATA 010C                   _CCPR1L 0015  
                 _CCPR2L 001B                   _EECON2 018D                   ?_setup 0070  
                 _ANSELH 0189                   i1l2200 0C63                   i1l2180 0C1E  
                 i1l2190 0C42                   i1l2182 0C22                   i1l2174 0C04  
                 i1l2192 0C46                   i1l2184 0C2E                   i1l2176 0C09  
                 i1l2194 0C4C                   i1l2186 0C36                   i1l2178 0C11  
                 i1l2196 0C52                   i1l2188 0C3F                   i1l2198 0C5C  
                 u250_20 0C2E                   u250_21 0C2D                   u250_25 0C2A  
                 u251_20 0C36                   u251_21 0C35                   u252_20 0C46  
                 u252_21 0C45                   u253_20 0C4C                   u253_21 0C4B  
                 u254_20 0C52                   u254_21 0C51                   u248_20 0C09  
                 u248_21 0C08                   u249_20 0C1E                   u249_21 0C1D  
                 u249_25 0C1A                   _SPBRGH 009A             ??_ANALOGICOS 00A6  
       __end_of___xxtofl 0DA2                ??___fladd 0050                ??___flmul 0036  
              ??___fltol 0060       __end_of_ANALOGICOS 0773       __size_of__Umul8_16 0029  
                 saved_w 007E                ?_EEPROM_R 0020                ?_EEPROM_W 0020  
           ___xxtofl@arg 002A             ___xxtofl@exp 0029             ___xxtofl@val 0020  
__end_of__initialization 003F               ___fltol@f1 005C           __pcstackCOMMON 0070  
           __pidataBANK1 07EF            __end_of_setup 0CE6               ??_EEPROM_R 0022  
             ??_EEPROM_W 0075                  ??_setup 0020               __pbssBANK0 0069  
             __pbssBANK1 00A0        __end_of__Umul8_16 0C04               __pmaintext 0DA2  
             __pintentry 0004                  _CCP1CON 0017                ?___xxtofl 0020  
                _VALORAN 00A4                  ___fladd 03A4                  ___flmul 0043  
                ___fltol 0773                  __ptext1 0C6E                  __ptext2 0BB9  
                __ptext3 0B9F                  __ptext4 062C                  __ptext5 0CE6  
                __ptext6 0773                  __ptext7 0043                  __ptext8 0BDB  
                __ptext9 03A4             __size_of_isr 006A               ??___xxtofl 0024  
   end_of_initialization 003F                _RCSTAbits 0018                _PORTCbits 0007  
            ___fladd@grs 005B            ___xxtofl@sign 0028        __size_of_EEPROM_R 001A  
      __size_of_EEPROM_W 0022              ___flmul@grs 003D              _CCP2CONbits 001D  
              _TXSTAbits 0098              _BAUDCTLbits 0187      start_initialization 0013  
      ANALOGICOS@VALORAN 0067              __end_of_isr 0C6E                __Umul8_16 0BDB  
            __pdataBANK1 00AB                ___fladd@a 004C                ___fladd@b 0048  
              ___flmul@a 0032                ___flmul@b 002E              __pbssCOMMON 0075  
              ___latbits 0002            __pcstackBANK0 0020            __pcstackBANK1 00A6  
      __size_of___xxtofl 00BC                 ?___fladd 0048                 ?___flmul 002E  
               ?___fltol 005C               ?__Umul8_16 0020                 _EEPROM_R 0B9F  
               _EEPROM_W 0BB9           __size_of_setup 0078                 _RB0_FLAG 00AD  
               _RB1_FLAG 00AB        interrupt_function 0004                 _PIE1bits 008C  
               _PIR1bits 000C                 _PIR2bits 000D             EEPROM_R@dato 0024  
           EEPROM_W@dato 0020               _ADCON0bits 001F               _ADCON1bits 009F  
             _ANALOGICOS 062C               _EECON1bits 018C              ??__Umul8_16 0022  
       __size_of___fladd 0288         __size_of___flmul 0361         __size_of___fltol 007C  
               ___xxtofl 0CE6                 __ptext10 0C04            __size_of_main 025E  
            EEPROM_R@add 0020              EEPROM_W@add 0022               _INTCONbits 000B  
               intlevel1 0000              ?_ANALOGICOS 0067               _OSCCONbits 008F  
 __Umul8_16@multiplicand 0020               _OPTION_REG 0081            ___fladd@signs 0058  
           ___fladd@aexp 0059             ___fladd@bexp 005A     __Umul8_16@multiplier 0028  
      __Umul8_16@product 0024  
