

Microchip MPLAB XC8 Assembler V2.31 build 20201012212115 
                                                                                               Fri May 21 00:03:18 2021

Microchip MPLAB XC8 C Compiler v2.31 (Free license) build 20201012212115 Og1 
     1                           	processor	16F887
     2                           	pagewidth 120
     3                           	opt	flic
     4                           	psect	cinit,global,class=CODE,merge=1,delta=2
     5                           	psect	bssCOMMON,global,class=COMMON,space=1,delta=1,noexec
     6                           	psect	bssBANK0,global,class=BANK0,space=1,delta=1,noexec
     7                           	psect	cstackBANK1,global,class=BANK1,space=1,delta=1,noexec
     8                           	psect	cstackCOMMON,global,class=COMMON,space=1,delta=1,noexec
     9                           	psect	cstackBANK0,global,class=BANK0,space=1,delta=1,noexec
    10                           	psect	maintext,global,class=CODE,split=1,delta=2
    11                           	psect	text1,local,class=CODE,merge=1,delta=2
    12                           	psect	text2,local,class=CODE,merge=1,delta=2
    13                           	psect	text3,local,class=CODE,merge=1,delta=2,group=1
    14                           	psect	text4,local,class=CODE,merge=1,delta=2,group=1
    15                           	psect	text5,local,class=CODE,merge=1,delta=2,group=1
    16                           	psect	text6,local,class=CODE,merge=1,delta=2,group=1
    17                           	psect	text7,local,class=CODE,merge=1,delta=2,group=1
    18                           	psect	text8,local,class=CODE,merge=1,delta=2
    19                           	psect	intentry,global,class=CODE,delta=2
    20                           	psect	config,global,abs,ovrld,class=CONFIG,space=4,delta=2,noexec
    21                           	dabs	1,0x7E,2
    22  0000                     
    23                           ; Version 2.20
    24                           ; Generated 12/02/2020 GMT
    25                           ; 
    26                           ; Copyright © 2020, Microchip Technology Inc. and its subsidiaries ("Microchip")
    27                           ; All rights reserved.
    28                           ; 
    29                           ; This software is developed by Microchip Technology Inc. and its subsidiaries ("Microch
      +                          ip").
    30                           ; 
    31                           ; Redistribution and use in source and binary forms, with or without modification, are
    32                           ; permitted provided that the following conditions are met:
    33                           ; 
    34                           ;     1. Redistributions of source code must retain the above copyright notice, this lis
      +                          t of
    35                           ;        conditions and the following disclaimer.
    36                           ; 
    37                           ;     2. Redistributions in binary form must reproduce the above copyright notice, this 
      +                          list
    38                           ;        of conditions and the following disclaimer in the documentation and/or other
    39                           ;        materials provided with the distribution.
    40                           ; 
    41                           ;     3. Microchip's name may not be used to endorse or promote products derived from th
      +                          is
    42                           ;        software without specific prior written permission.
    43                           ; 
    44                           ; THIS SOFTWARE IS PROVIDED BY MICROCHIP "AS IS" AND ANY EXPRESS OR IMPLIED WARRANTIES,
    45                           ; INCLUDING, BUT NOT LIMITED TO, THE IMPLIED WARRANTIES OF MERCHANTABILITY AND FITNESS F
      +                          OR
    46                           ; PURPOSE ARE DISCLAIMED.  IN NO EVENT SHALL MICROCHIP BE LIABLE FOR ANY DIRECT, INDIREC
      +                          T,
    47                           ; INCIDENTAL, SPECIAL, EXEMPLARY, OR CONSEQUENTIAL DAMAGES (INCLUDING BUT NOT LIMITED TO
    48                           ; PROCUREMENT OF SUBSTITUTE GOODS OR SERVICES; LOSS OF USE, DATA OR PROFITS; OR BUSINESS
    49                           ; INTERRUPTION) HOWSOEVER CAUSED AND ON ANY THEORY OF LIABILITY, WHETHER IN CONTRACT, ST
      +                          RICT
    50                           ; LIABILITY, OR TORT (INCLUDING NEGLIGENCE OR OTHERWISE) ARISING IN ANY WAY OUT OF THE U
      +                          SE OF
    51                           ; THIS SOFTWARE, EVEN IF ADVISED OF THE POSSIBILITY OF SUCH DAMAGE.
    52                           ; 
    53                           ; 
    54                           ; Code-generator required, PIC16F887 Definitions
    55                           ; 
    56                           ; SFR Addresses
    57  0000                     	;# 
    58  0001                     	;# 
    59  0002                     	;# 
    60  0003                     	;# 
    61  0004                     	;# 
    62  0005                     	;# 
    63  0006                     	;# 
    64  0007                     	;# 
    65  0008                     	;# 
    66  0009                     	;# 
    67  000A                     	;# 
    68  000B                     	;# 
    69  000C                     	;# 
    70  000D                     	;# 
    71  000E                     	;# 
    72  000E                     	;# 
    73  000F                     	;# 
    74  0010                     	;# 
    75  0011                     	;# 
    76  0012                     	;# 
    77  0013                     	;# 
    78  0014                     	;# 
    79  0015                     	;# 
    80  0015                     	;# 
    81  0016                     	;# 
    82  0017                     	;# 
    83  0018                     	;# 
    84  0019                     	;# 
    85  001A                     	;# 
    86  001B                     	;# 
    87  001B                     	;# 
    88  001C                     	;# 
    89  001D                     	;# 
    90  001E                     	;# 
    91  001F                     	;# 
    92  0081                     	;# 
    93  0085                     	;# 
    94  0086                     	;# 
    95  0087                     	;# 
    96  0088                     	;# 
    97  0089                     	;# 
    98  008C                     	;# 
    99  008D                     	;# 
   100  008E                     	;# 
   101  008F                     	;# 
   102  0090                     	;# 
   103  0091                     	;# 
   104  0092                     	;# 
   105  0093                     	;# 
   106  0093                     	;# 
   107  0093                     	;# 
   108  0094                     	;# 
   109  0095                     	;# 
   110  0096                     	;# 
   111  0097                     	;# 
   112  0098                     	;# 
   113  0099                     	;# 
   114  009A                     	;# 
   115  009B                     	;# 
   116  009C                     	;# 
   117  009D                     	;# 
   118  009E                     	;# 
   119  009F                     	;# 
   120  0105                     	;# 
   121  0107                     	;# 
   122  0108                     	;# 
   123  0109                     	;# 
   124  010C                     	;# 
   125  010C                     	;# 
   126  010D                     	;# 
   127  010E                     	;# 
   128  010F                     	;# 
   129  0185                     	;# 
   130  0187                     	;# 
   131  0188                     	;# 
   132  0189                     	;# 
   133  018C                     	;# 
   134  018D                     	;# 
   135  0000                     	;# 
   136  0001                     	;# 
   137  0002                     	;# 
   138  0003                     	;# 
   139  0004                     	;# 
   140  0005                     	;# 
   141  0006                     	;# 
   142  0007                     	;# 
   143  0008                     	;# 
   144  0009                     	;# 
   145  000A                     	;# 
   146  000B                     	;# 
   147  000C                     	;# 
   148  000D                     	;# 
   149  000E                     	;# 
   150  000E                     	;# 
   151  000F                     	;# 
   152  0010                     	;# 
   153  0011                     	;# 
   154  0012                     	;# 
   155  0013                     	;# 
   156  0014                     	;# 
   157  0015                     	;# 
   158  0015                     	;# 
   159  0016                     	;# 
   160  0017                     	;# 
   161  0018                     	;# 
   162  0019                     	;# 
   163  001A                     	;# 
   164  001B                     	;# 
   165  001B                     	;# 
   166  001C                     	;# 
   167  001D                     	;# 
   168  001E                     	;# 
   169  001F                     	;# 
   170  0081                     	;# 
   171  0085                     	;# 
   172  0086                     	;# 
   173  0087                     	;# 
   174  0088                     	;# 
   175  0089                     	;# 
   176  008C                     	;# 
   177  008D                     	;# 
   178  008E                     	;# 
   179  008F                     	;# 
   180  0090                     	;# 
   181  0091                     	;# 
   182  0092                     	;# 
   183  0093                     	;# 
   184  0093                     	;# 
   185  0093                     	;# 
   186  0094                     	;# 
   187  0095                     	;# 
   188  0096                     	;# 
   189  0097                     	;# 
   190  0098                     	;# 
   191  0099                     	;# 
   192  009A                     	;# 
   193  009B                     	;# 
   194  009C                     	;# 
   195  009D                     	;# 
   196  009E                     	;# 
   197  009F                     	;# 
   198  0105                     	;# 
   199  0107                     	;# 
   200  0108                     	;# 
   201  0109                     	;# 
   202  010C                     	;# 
   203  010C                     	;# 
   204  010D                     	;# 
   205  010E                     	;# 
   206  010F                     	;# 
   207  0185                     	;# 
   208  0187                     	;# 
   209  0188                     	;# 
   210  0189                     	;# 
   211  018C                     	;# 
   212  018D                     	;# 
   213  001B                     _CCPR2L	set	27
   214  0015                     _CCPR1L	set	21
   215  001F                     _ADCON0bits	set	31
   216  001D                     _CCP2CONbits	set	29
   217  0017                     _CCP1CON	set	23
   218  0012                     _T2CON	set	18
   219  0009                     _PORTE	set	9
   220  0008                     _PORTD	set	8
   221  0007                     _PORTC	set	7
   222  0005                     _PORTA	set	5
   223  000C                     _PIR1bits	set	12
   224  001E                     _ADRESH	set	30
   225  0007                     _PORTCbits	set	7
   226  0001                     _TMR0	set	1
   227  000B                     _INTCONbits	set	11
   228  0066                     _ADIF	set	102
   229  005A                     _T0IF	set	90
   230  008C                     _PIE1bits	set	140
   231  009F                     _ADCON1bits	set	159
   232  0092                     _PR2	set	146
   233  0081                     _OPTION_REG	set	129
   234  008F                     _OSCCONbits	set	143
   235  0086                     _TRISB	set	134
   236  0089                     _TRISE	set	137
   237  0088                     _TRISD	set	136
   238  0087                     _TRISC	set	135
   239  0085                     _TRISA	set	133
   240  0189                     _ANSELH	set	393
   241  0188                     _ANSEL	set	392
   242                           
   243                           	psect	cinit
   244  000F                     start_initialization:	
   245                           ; #config settings
   246                           
   247  000F                     __initialization:
   248                           
   249                           ; Clear objects allocated to COMMON
   250  000F  01F6               	clrf	__pbssCOMMON& (0+127)
   251  0010  01F7               	clrf	(__pbssCOMMON+1)& (0+127)
   252  0011  01F8               	clrf	(__pbssCOMMON+2)& (0+127)
   253  0012  01F9               	clrf	(__pbssCOMMON+3)& (0+127)
   254                           
   255                           ; Clear objects allocated to BANK0
   256  0013  1283               	bcf	3,5	;RP0=0, select bank0
   257  0014  1303               	bcf	3,6	;RP1=0, select bank0
   258  0015  01E9               	clrf	__pbssBANK0& (0+127)
   259  0016  01EA               	clrf	(__pbssBANK0+1)& (0+127)
   260  0017  01EB               	clrf	(__pbssBANK0+2)& (0+127)
   261  0018  01EC               	clrf	(__pbssBANK0+3)& (0+127)
   262  0019  01ED               	clrf	(__pbssBANK0+4)& (0+127)
   263  001A  01EE               	clrf	(__pbssBANK0+5)& (0+127)
   264  001B                     end_of_initialization:	
   265                           ;End of C runtime variable initialization code
   266                           
   267  001B                     __end_of__initialization:
   268  001B  0183               	clrf	3
   269  001C  120A  158A  2EAB   	ljmp	_main	;jump to C main() function
   270                           
   271                           	psect	bssCOMMON
   272  0076                     __pbssCOMMON:
   273  0076                     _POT2:
   274  0076                     	ds	2
   275  0078                     _POT1:
   276  0078                     	ds	2
   277                           
   278                           	psect	bssBANK0
   279  0069                     __pbssBANK0:
   280  0069                     _VALORAN:
   281  0069                     	ds	2
   282  006B                     _POT0:
   283  006B                     	ds	2
   284  006D                     _PWM3:
   285  006D                     	ds	2
   286                           
   287                           	psect	cstackBANK1
   288  00A0                     __pcstackBANK1:
   289  00A0                     ??_ANALOGICOS:
   290                           
   291                           ; 1 bytes @ 0x0
   292  00A0                     	ds	3
   293                           
   294                           	psect	cstackCOMMON
   295  0070                     __pcstackCOMMON:
   296  0070                     ?_setup:
   297  0070                     ?_isr:	
   298                           ; 1 bytes @ 0x0
   299                           
   300  0070                     ??_isr:	
   301                           ; 1 bytes @ 0x0
   302                           
   303  0070                     ?_main:	
   304                           ; 1 bytes @ 0x0
   305                           
   306                           
   307                           ; 1 bytes @ 0x0
   308  0070                     	ds	4
   309  0074                     ??_setup:
   310  0074                     ?__Umul8_16:	
   311                           ; 1 bytes @ 0x4
   312                           
   313  0074                     __Umul8_16@multiplicand:	
   314                           ; 2 bytes @ 0x4
   315                           
   316                           
   317                           ; 1 bytes @ 0x4
   318  0074                     	ds	2
   319  0076                     ??_main:
   320                           
   321                           	psect	cstackBANK0
   322  0020                     __pcstackBANK0:	
   323                           ; 1 bytes @ 0x6
   324                           
   325  0020                     ??__Umul8_16:
   326  0020                     ?___xxtofl:	
   327                           ; 1 bytes @ 0x0
   328                           
   329  0020                     ___xxtofl@val:	
   330                           ; 4 bytes @ 0x0
   331                           
   332                           
   333                           ; 4 bytes @ 0x0
   334  0020                     	ds	2
   335  0022                     __Umul8_16@product:
   336                           
   337                           ; 2 bytes @ 0x2
   338  0022                     	ds	2
   339  0024                     ??___xxtofl:
   340  0024                     __Umul8_16@word_mpld:	
   341                           ; 1 bytes @ 0x4
   342                           
   343                           
   344                           ; 2 bytes @ 0x4
   345  0024                     	ds	2
   346  0026                     __Umul8_16@multiplier:
   347                           
   348                           ; 1 bytes @ 0x6
   349  0026                     	ds	2
   350  0028                     ___xxtofl@sign:
   351                           
   352                           ; 1 bytes @ 0x8
   353  0028                     	ds	1
   354  0029                     ___xxtofl@exp:
   355                           
   356                           ; 1 bytes @ 0x9
   357  0029                     	ds	1
   358  002A                     ___xxtofl@arg:
   359                           
   360                           ; 4 bytes @ 0xA
   361  002A                     	ds	4
   362  002E                     ?___flmul:
   363  002E                     ___flmul@b:	
   364                           ; 4 bytes @ 0xE
   365                           
   366                           
   367                           ; 4 bytes @ 0xE
   368  002E                     	ds	4
   369  0032                     ___flmul@a:
   370                           
   371                           ; 4 bytes @ 0x12
   372  0032                     	ds	4
   373  0036                     ??___flmul:
   374                           
   375                           ; 1 bytes @ 0x16
   376  0036                     	ds	5
   377  003B                     ___flmul@sign:
   378                           
   379                           ; 1 bytes @ 0x1B
   380  003B                     	ds	1
   381  003C                     ___flmul@aexp:
   382                           
   383                           ; 1 bytes @ 0x1C
   384  003C                     	ds	1
   385  003D                     ___flmul@grs:
   386                           
   387                           ; 4 bytes @ 0x1D
   388  003D                     	ds	4
   389  0041                     ___flmul@bexp:
   390                           
   391                           ; 1 bytes @ 0x21
   392  0041                     	ds	1
   393  0042                     ___flmul@prod:
   394                           
   395                           ; 4 bytes @ 0x22
   396  0042                     	ds	4
   397  0046                     ___flmul@temp:
   398                           
   399                           ; 2 bytes @ 0x26
   400  0046                     	ds	2
   401  0048                     ?___fladd:
   402  0048                     ___fladd@b:	
   403                           ; 4 bytes @ 0x28
   404                           
   405                           
   406                           ; 4 bytes @ 0x28
   407  0048                     	ds	4
   408  004C                     ___fladd@a:
   409                           
   410                           ; 4 bytes @ 0x2C
   411  004C                     	ds	4
   412  0050                     ??___fladd:
   413                           
   414                           ; 1 bytes @ 0x30
   415  0050                     	ds	8
   416  0058                     ___fladd@signs:
   417                           
   418                           ; 1 bytes @ 0x38
   419  0058                     	ds	1
   420  0059                     ___fladd@aexp:
   421                           
   422                           ; 1 bytes @ 0x39
   423  0059                     	ds	1
   424  005A                     ___fladd@bexp:
   425                           
   426                           ; 1 bytes @ 0x3A
   427  005A                     	ds	1
   428  005B                     ___fladd@grs:
   429                           
   430                           ; 1 bytes @ 0x3B
   431  005B                     	ds	1
   432  005C                     ?___fltol:
   433  005C                     ___fltol@f1:	
   434                           ; 4 bytes @ 0x3C
   435                           
   436                           
   437                           ; 4 bytes @ 0x3C
   438  005C                     	ds	4
   439  0060                     ??___fltol:
   440                           
   441                           ; 1 bytes @ 0x40
   442  0060                     	ds	5
   443  0065                     ___fltol@sign1:
   444                           
   445                           ; 1 bytes @ 0x45
   446  0065                     	ds	1
   447  0066                     ___fltol@exp1:
   448                           
   449                           ; 1 bytes @ 0x46
   450  0066                     	ds	1
   451  0067                     ?_ANALOGICOS:
   452  0067                     ANALOGICOS@VALORAN:	
   453                           ; 1 bytes @ 0x47
   454                           
   455                           
   456                           ; 2 bytes @ 0x47
   457  0067                     	ds	2
   458                           
   459                           	psect	maintext
   460  0EAB                     __pmaintext:	
   461 ;;
   462 ;;Main: autosize = 0, tempsize = 0, incstack = 0, save=0
   463 ;;
   464 ;; *************** function _main *****************
   465 ;; Defined at:
   466 ;;		line 70 in file "main.c"
   467 ;; Parameters:    Size  Location     Type
   468 ;;		None
   469 ;; Auto vars:     Size  Location     Type
   470 ;;		None
   471 ;; Return value:  Size  Location     Type
   472 ;;                  1    wreg      void 
   473 ;; Registers used:
   474 ;;		wreg, fsr0l, fsr0h, status,2, status,0, btemp+1, pclath, cstack
   475 ;; Tracked objects:
   476 ;;		On entry : B00/0
   477 ;;		On exit  : 0/0
   478 ;;		Unchanged: 0/0
   479 ;; Data sizes:     COMMON   BANK0   BANK1   BANK3   BANK2
   480 ;;      Params:         0       0       0       0       0
   481 ;;      Locals:         0       0       0       0       0
   482 ;;      Temps:          0       0       0       0       0
   483 ;;      Totals:         0       0       0       0       0
   484 ;;Total ram usage:        0 bytes
   485 ;; Hardware stack levels required when called:    4
   486 ;; This function calls:
   487 ;;		_ANALOGICOS
   488 ;;		_setup
   489 ;; This function is called by:
   490 ;;		Startup code after reset
   491 ;; This function uses a non-reentrant model
   492 ;;
   493                           
   494                           
   495                           ;psect for function _main
   496  0EAB                     _main:
   497  0EAB                     l2087:	
   498                           ;incstack = 0
   499                           ; Regs used in _main: [wreg-fsr0h+status,2+status,0+btemp+1+pclath+cstack]
   500                           
   501                           
   502                           ;main.c: 71:     OSCCONbits.IRCF1 = 1;
   503  0EAB  120A  158A  26FB  120A  158A  	fcall	_setup
   504  0EB0                     l2089:
   505                           
   506                           ;main.c: 74: 
   507  0EB0  1283               	bcf	3,5	;RP0=0, select bank0
   508  0EB1  1303               	bcf	3,6	;RP1=0, select bank0
   509  0EB2  086E               	movf	_PWM3+1,w
   510  0EB3  3A80               	xorlw	128
   511  0EB4  00FF               	movwf	btemp+1
   512  0EB5  3080               	movlw	128
   513  0EB6  027F               	subwf	btemp+1,w
   514  0EB7  1D03               	skipz
   515  0EB8  2EBB               	goto	u2935
   516  0EB9  3032               	movlw	50
   517  0EBA  026D               	subwf	_PWM3,w
   518  0EBB                     u2935:
   519  0EBB  1C03               	skipc
   520  0EBC  2EBE               	goto	u2931
   521  0EBD  2EBF               	goto	u2930
   522  0EBE                     u2931:
   523  0EBE  2EC3               	goto	l2093
   524  0EBF                     u2930:
   525  0EBF                     l2091:
   526                           
   527                           ;main.c: 75: 
   528  0EBF  1283               	bcf	3,5	;RP0=0, select bank0
   529  0EC0  1303               	bcf	3,6	;RP1=0, select bank0
   530  0EC1  01ED               	clrf	_PWM3
   531  0EC2  01EE               	clrf	_PWM3+1
   532  0EC3                     l2093:
   533                           
   534                           ;main.c: 76:     OPTION_REG = 0B11010000;
   535  0EC3  1283               	bcf	3,5	;RP0=0, select bank0
   536  0EC4  1303               	bcf	3,6	;RP1=0, select bank0
   537  0EC5  086A               	movf	_VALORAN+1,w
   538  0EC6  00E8               	movwf	ANALOGICOS@VALORAN+1
   539  0EC7  0869               	movf	_VALORAN,w
   540  0EC8  00E7               	movwf	ANALOGICOS@VALORAN
   541  0EC9  120A  118A  2608  120A  158A  	fcall	_ANALOGICOS
   542  0ECE  2EB0               	goto	l2089
   543  0ECF  120A  118A  280C   	ljmp	start
   544  0ED2                     __end_of_main:
   545                           
   546                           	psect	text1
   547  0EFB                     __ptext1:	
   548 ;; *************** function _setup *****************
   549 ;; Defined at:
   550 ;;		line 81 in file "main.c"
   551 ;; Parameters:    Size  Location     Type
   552 ;;		None
   553 ;; Auto vars:     Size  Location     Type
   554 ;;		None
   555 ;; Return value:  Size  Location     Type
   556 ;;                  1    wreg      void 
   557 ;; Registers used:
   558 ;;		wreg, status,2, status,0
   559 ;; Tracked objects:
   560 ;;		On entry : 0/0
   561 ;;		On exit  : 0/0
   562 ;;		Unchanged: 0/0
   563 ;; Data sizes:     COMMON   BANK0   BANK1   BANK3   BANK2
   564 ;;      Params:         0       0       0       0       0
   565 ;;      Locals:         0       0       0       0       0
   566 ;;      Temps:          1       0       0       0       0
   567 ;;      Totals:         1       0       0       0       0
   568 ;;Total ram usage:        1 bytes
   569 ;; Hardware stack levels used:    1
   570 ;; Hardware stack levels required when called:    1
   571 ;; This function calls:
   572 ;;		Nothing
   573 ;; This function is called by:
   574 ;;		_main
   575 ;; This function uses a non-reentrant model
   576 ;;
   577                           
   578                           
   579                           ;psect for function _setup
   580  0EFB                     _setup:
   581  0EFB                     l1685:	
   582                           ;incstack = 0
   583                           ; Regs used in _setup: [wreg+status,2+status,0]
   584                           
   585                           
   586                           ;main.c: 83: 
   587  0EFB  3007               	movlw	7
   588  0EFC  1683               	bsf	3,5	;RP0=1, select bank3
   589  0EFD  1703               	bsf	3,6	;RP1=1, select bank3
   590  0EFE  0088               	movwf	8	;volatile
   591  0EFF                     l1687:
   592                           
   593                           ;main.c: 84:     CCP2CONbits.CCP2M0 = 1;
   594  0EFF  0189               	clrf	9	;volatile
   595  0F00                     l1689:
   596                           
   597                           ;main.c: 86:     CCP2CONbits.CCP2M2 = 1;
   598  0F00  3007               	movlw	7
   599  0F01  1683               	bsf	3,5	;RP0=1, select bank1
   600  0F02  1303               	bcf	3,6	;RP1=0, select bank1
   601  0F03  0085               	movwf	5	;volatile
   602                           
   603                           ;main.c: 87:     CCP2CONbits.CCP2M3 = 1;
   604  0F04  0187               	clrf	7	;volatile
   605                           
   606                           ;main.c: 88:     CCP2CONbits.DC2B0 = 0;
   607  0F05  0188               	clrf	8	;volatile
   608                           
   609                           ;main.c: 89:     CCP2CONbits.DC2B1 = 0;
   610  0F06  0189               	clrf	9	;volatile
   611                           
   612                           ;main.c: 90: 
   613  0F07  0186               	clrf	6	;volatile
   614                           
   615                           ;main.c: 92:     ADCON0bits.CHS = 0;
   616  0F08  1283               	bcf	3,5	;RP0=0, select bank0
   617  0F09  1303               	bcf	3,6	;RP1=0, select bank0
   618  0F0A  0185               	clrf	5	;volatile
   619                           
   620                           ;main.c: 93:     _delay((unsigned long)((100)*(4000000/4000000.0)));
   621  0F0B  0187               	clrf	7	;volatile
   622                           
   623                           ;main.c: 94:     ADCON0bits.ADCS = 0X01;
   624  0F0C  0188               	clrf	8	;volatile
   625                           
   626                           ;main.c: 95:     ADCON1bits.ADFM = 0;
   627  0F0D  0189               	clrf	9	;volatile
   628  0F0E                     l1691:
   629                           
   630                           ;main.c: 98: 
   631  0F0E  1683               	bsf	3,5	;RP0=1, select bank1
   632  0F0F  1303               	bcf	3,6	;RP1=0, select bank1
   633  0F10  170F               	bsf	15,6	;volatile
   634  0F11                     l1693:
   635                           
   636                           ;main.c: 99: 
   637  0F11  168F               	bsf	15,5	;volatile
   638  0F12                     l1695:
   639                           
   640                           ;main.c: 100: 
   641  0F12  120F               	bcf	15,4	;volatile
   642  0F13                     l1697:
   643                           
   644                           ;main.c: 101: 
   645  0F13  140F               	bsf	15,0	;volatile
   646  0F14                     l1699:
   647                           
   648                           ;main.c: 104: 
   649  0F14  30D0               	movlw	208
   650  0F15  0081               	movwf	1	;volatile
   651  0F16                     l1701:
   652                           
   653                           ;main.c: 105:     INTCONbits.GIE = 1;
   654  0F16  30E7               	movlw	231
   655  0F17  1283               	bcf	3,5	;RP0=0, select bank0
   656  0F18  1303               	bcf	3,6	;RP1=0, select bank0
   657  0F19  0081               	movwf	1	;volatile
   658  0F1A                     l1703:
   659                           
   660                           ;main.c: 107:     INTCONbits.T0IF = 0;
   661  0F1A  30FF               	movlw	255
   662  0F1B  0092               	movwf	18	;volatile
   663  0F1C                     l1705:
   664                           
   665                           ;main.c: 108:     PIE1bits.ADIE = 1;
   666  0F1C  30BB               	movlw	187
   667  0F1D  1683               	bsf	3,5	;RP0=1, select bank1
   668  0F1E  1303               	bcf	3,6	;RP1=0, select bank1
   669  0F1F  0092               	movwf	18	;volatile
   670  0F20                     l1707:
   671                           
   672                           ;main.c: 110: 
   673  0F20  300C               	movlw	12
   674  0F21  1283               	bcf	3,5	;RP0=0, select bank0
   675  0F22  1303               	bcf	3,6	;RP1=0, select bank0
   676  0F23  0097               	movwf	23	;volatile
   677  0F24                     l1709:
   678                           
   679                           ;main.c: 112: }
   680  0F24  141D               	bsf	29,0	;volatile
   681  0F25                     l1711:
   682                           
   683                           ;main.c: 113: 
   684  0F25  149D               	bsf	29,1	;volatile
   685  0F26                     l1713:
   686                           
   687                           ;main.c: 114: 
   688  0F26  151D               	bsf	29,2	;volatile
   689  0F27                     l1715:
   690                           
   691                           ;main.c: 115: void ANALOGICOS(int VALORAN){
   692  0F27  159D               	bsf	29,3	;volatile
   693  0F28                     l1717:
   694                           
   695                           ;main.c: 116: 
   696  0F28  121D               	bcf	29,4	;volatile
   697  0F29                     l1719:
   698                           
   699                           ;main.c: 117:     switch(ADCON0bits.CHS){
   700  0F29  129D               	bcf	29,5	;volatile
   701  0F2A                     l1721:
   702                           
   703                           ;main.c: 119:             POT0 = ((0.1058*VALORAN)+8);
   704  0F2A  141F               	bsf	31,0	;volatile
   705  0F2B                     l1723:
   706                           
   707                           ;main.c: 120:             ADCON0bits.CHS = 1;
   708  0F2B  30C3               	movlw	-61
   709  0F2C  059F               	andwf	31,f	;volatile
   710  0F2D                     l1725:
   711                           
   712                           ;main.c: 121:            _delay((unsigned long)((100)*(4000000/4000000.0)));
   713  0F2D  3021               	movlw	33
   714  0F2E  00F4               	movwf	??_setup
   715  0F2F                     u2947:
   716  0F2F  0BF4               	decfsz	??_setup,f
   717  0F30  2F2F               	goto	u2947
   718  0F31                     l1727:
   719                           
   720                           ;main.c: 122:             ADCON0bits.GO = 1;
   721  0F31  1283               	bcf	3,5	;RP0=0, select bank0
   722  0F32  1303               	bcf	3,6	;RP1=0, select bank0
   723  0F33  081F               	movf	31,w	;volatile
   724  0F34  393F               	andlw	-193
   725  0F35  3840               	iorlw	64
   726  0F36  009F               	movwf	31	;volatile
   727  0F37                     l1729:
   728                           
   729                           ;main.c: 123:             break;
   730  0F37  1683               	bsf	3,5	;RP0=1, select bank1
   731  0F38  1303               	bcf	3,6	;RP1=0, select bank1
   732  0F39  139F               	bcf	31,7	;volatile
   733  0F3A                     l1731:
   734                           
   735                           ;main.c: 124: 
   736  0F3A  121F               	bcf	31,4	;volatile
   737  0F3B                     l1733:
   738                           
   739                           ;main.c: 125:         case 1:
   740  0F3B  129F               	bcf	31,5	;volatile
   741  0F3C                     l1735:
   742                           
   743                           ;main.c: 133:             CCPR2L = ((0.467*VALORAN)+31);
   744  0F3C  178B               	bsf	11,7	;volatile
   745  0F3D                     l1737:
   746                           
   747                           ;main.c: 134:             ADCON0bits.CHS = 0;
   748  0F3D  168B               	bsf	11,5	;volatile
   749  0F3E                     l1739:
   750                           
   751                           ;main.c: 135:            _delay((unsigned long)((100)*(4000000/4000000.0)));
   752  0F3E  110B               	bcf	11,2	;volatile
   753  0F3F                     l1741:
   754                           
   755                           ;main.c: 136:              ADCON0bits.GO = 1;
   756  0F3F  170C               	bsf	12,6	;volatile
   757  0F40                     l1743:
   758                           
   759                           ;main.c: 137:             break;
   760  0F40  1283               	bcf	3,5	;RP0=0, select bank0
   761  0F41  1303               	bcf	3,6	;RP1=0, select bank0
   762  0F42  130C               	bcf	12,6	;volatile
   763  0F43                     l95:
   764  0F43  0008               	return
   765  0F44                     __end_of_setup:
   766                           
   767                           	psect	text2
   768  0608                     __ptext2:	
   769 ;; *************** function _ANALOGICOS *****************
   770 ;; Defined at:
   771 ;;		line 143 in file "main.c"
   772 ;; Parameters:    Size  Location     Type
   773 ;;  VALORAN         2   71[BANK0 ] int 
   774 ;; Auto vars:     Size  Location     Type
   775 ;;		None
   776 ;; Return value:  Size  Location     Type
   777 ;;                  1    wreg      void 
   778 ;; Registers used:
   779 ;;		wreg, fsr0l, fsr0h, status,2, status,0, btemp+1, pclath, cstack
   780 ;; Tracked objects:
   781 ;;		On entry : 0/0
   782 ;;		On exit  : 0/0
   783 ;;		Unchanged: 0/0
   784 ;; Data sizes:     COMMON   BANK0   BANK1   BANK3   BANK2
   785 ;;      Params:         0       2       0       0       0
   786 ;;      Locals:         0       0       0       0       0
   787 ;;      Temps:          0       0       3       0       0
   788 ;;      Totals:         0       2       3       0       0
   789 ;;Total ram usage:        5 bytes
   790 ;; Hardware stack levels used:    1
   791 ;; Hardware stack levels required when called:    3
   792 ;; This function calls:
   793 ;;		___fladd
   794 ;;		___flmul
   795 ;;		___fltol
   796 ;;		___xxtofl
   797 ;; This function is called by:
   798 ;;		_main
   799 ;; This function uses a non-reentrant model
   800 ;;
   801                           
   802                           
   803                           ;psect for function _ANALOGICOS
   804  0608                     _ANALOGICOS:
   805  0608                     l2053:	
   806                           ;incstack = 0
   807                           ; Regs used in _ANALOGICOS: [wreg-fsr0h+status,2+status,0+btemp+1+pclath+cstack]
   808                           
   809  0608  2F2C               	goto	l2081
   810  0609                     l2055:
   811  0609  1283               	bcf	3,5	;RP0=0, select bank0
   812  060A  1303               	bcf	3,6	;RP1=0, select bank0
   813  060B  0867               	movf	ANALOGICOS@VALORAN,w
   814  060C  00A0               	movwf	___xxtofl@val
   815  060D  0868               	movf	ANALOGICOS@VALORAN+1,w
   816  060E  00A1               	movwf	___xxtofl@val+1
   817  060F  3000               	movlw	0
   818  0610  1BA1               	btfsc	___xxtofl@val+1,7
   819  0611  30FF               	movlw	255
   820  0612  00A2               	movwf	___xxtofl@val+2
   821  0613  00A3               	movwf	___xxtofl@val+3
   822  0614  3001               	movlw	1
   823  0615  120A  158A  2744  120A  118A  	fcall	___xxtofl
   824  061A  1283               	bcf	3,5	;RP0=0, select bank0
   825  061B  1303               	bcf	3,6	;RP1=0, select bank0
   826  061C  0823               	movf	?___xxtofl+3,w
   827  061D  00B5               	movwf	___flmul@a+3
   828  061E  0822               	movf	?___xxtofl+2,w
   829  061F  00B4               	movwf	___flmul@a+2
   830  0620  0821               	movf	?___xxtofl+1,w
   831  0621  00B3               	movwf	___flmul@a+1
   832  0622  0820               	movf	?___xxtofl,w
   833  0623  00B2               	movwf	___flmul@a
   834  0624  303D               	movlw	61
   835  0625  00B1               	movwf	___flmul@b+3
   836  0626  30D8               	movlw	216
   837  0627  00B0               	movwf	___flmul@b+2
   838  0628  30AD               	movlw	173
   839  0629  00AF               	movwf	___flmul@b+1
   840  062A  30AC               	movlw	172
   841  062B  00AE               	movwf	___flmul@b
   842  062C  120A  118A  201F  120A  118A  	fcall	___flmul
   843  0631  1283               	bcf	3,5	;RP0=0, select bank0
   844  0632  1303               	bcf	3,6	;RP1=0, select bank0
   845  0633  0831               	movf	?___flmul+3,w
   846  0634  00CF               	movwf	___fladd@a+3
   847  0635  0830               	movf	?___flmul+2,w
   848  0636  00CE               	movwf	___fladd@a+2
   849  0637  082F               	movf	?___flmul+1,w
   850  0638  00CD               	movwf	___fladd@a+1
   851  0639  082E               	movf	?___flmul,w
   852  063A  00CC               	movwf	___fladd@a
   853  063B  3041               	movlw	65
   854  063C  00CB               	movwf	___fladd@b+3
   855  063D  3000               	movlw	0
   856  063E  00CA               	movwf	___fladd@b+2
   857  063F  3000               	movlw	0
   858  0640  00C9               	movwf	___fladd@b+1
   859  0641  3000               	movlw	0
   860  0642  00C8               	movwf	___fladd@b
   861  0643  120A  118A  2380  120A  118A  	fcall	___fladd
   862  0648  1283               	bcf	3,5	;RP0=0, select bank0
   863  0649  1303               	bcf	3,6	;RP1=0, select bank0
   864  064A  084B               	movf	?___fladd+3,w
   865  064B  00DF               	movwf	___fltol@f1+3
   866  064C  084A               	movf	?___fladd+2,w
   867  064D  00DE               	movwf	___fltol@f1+2
   868  064E  0849               	movf	?___fladd+1,w
   869  064F  00DD               	movwf	___fltol@f1+1
   870  0650  0848               	movf	?___fladd,w
   871  0651  00DC               	movwf	___fltol@f1
   872  0652  120A  118A  2747  120A  118A  	fcall	___fltol
   873  0657  1283               	bcf	3,5	;RP0=0, select bank0
   874  0658  1303               	bcf	3,6	;RP1=0, select bank0
   875  0659  085D               	movf	?___fltol+1,w
   876  065A  00EC               	movwf	_POT0+1
   877  065B  085C               	movf	?___fltol,w
   878  065C  00EB               	movwf	_POT0
   879  065D                     l2057:
   880  065D  081F               	movf	31,w	;volatile
   881  065E  39C3               	andlw	-61
   882  065F  3804               	iorlw	4
   883  0660  009F               	movwf	31	;volatile
   884  0661                     l2059:
   885  0661  3020               	movlw	32
   886  0662  1683               	bsf	3,5	;RP0=1, select bank1
   887  0663  1303               	bcf	3,6	;RP1=0, select bank1
   888  0664  00A0               	movwf	??_ANALOGICOS^(0+128)
   889  0665                     u2957:
   890  0665  0BA0               	decfsz	??_ANALOGICOS^(0+128),f
   891  0666  2E65               	goto	u2957
   892  0667  0000               	nop
   893  0668                     l2061:
   894  0668  1283               	bcf	3,5	;RP0=0, select bank0
   895  0669  1303               	bcf	3,6	;RP1=0, select bank0
   896  066A  149F               	bsf	31,1	;volatile
   897  066B  2F46               	goto	l103
   898  066C                     l2063:
   899  066C  1283               	bcf	3,5	;RP0=0, select bank0
   900  066D  1303               	bcf	3,6	;RP1=0, select bank0
   901  066E  0867               	movf	ANALOGICOS@VALORAN,w
   902  066F  00A0               	movwf	___xxtofl@val
   903  0670  0868               	movf	ANALOGICOS@VALORAN+1,w
   904  0671  00A1               	movwf	___xxtofl@val+1
   905  0672  3000               	movlw	0
   906  0673  1BA1               	btfsc	___xxtofl@val+1,7
   907  0674  30FF               	movlw	255
   908  0675  00A2               	movwf	___xxtofl@val+2
   909  0676  00A3               	movwf	___xxtofl@val+3
   910  0677  3001               	movlw	1
   911  0678  120A  158A  2744  120A  118A  	fcall	___xxtofl
   912  067D  1283               	bcf	3,5	;RP0=0, select bank0
   913  067E  1303               	bcf	3,6	;RP1=0, select bank0
   914  067F  0823               	movf	?___xxtofl+3,w
   915  0680  00B5               	movwf	___flmul@a+3
   916  0681  0822               	movf	?___xxtofl+2,w
   917  0682  00B4               	movwf	___flmul@a+2
   918  0683  0821               	movf	?___xxtofl+1,w
   919  0684  00B3               	movwf	___flmul@a+1
   920  0685  0820               	movf	?___xxtofl,w
   921  0686  00B2               	movwf	___flmul@a
   922  0687  303E               	movlw	62
   923  0688  00B1               	movwf	___flmul@b+3
   924  0689  30EF               	movlw	239
   925  068A  00B0               	movwf	___flmul@b+2
   926  068B  301A               	movlw	26
   927  068C  00AF               	movwf	___flmul@b+1
   928  068D  30A0               	movlw	160
   929  068E  00AE               	movwf	___flmul@b
   930  068F  120A  118A  201F  120A  118A  	fcall	___flmul
   931  0694  1283               	bcf	3,5	;RP0=0, select bank0
   932  0695  1303               	bcf	3,6	;RP1=0, select bank0
   933  0696  0831               	movf	?___flmul+3,w
   934  0697  00CF               	movwf	___fladd@a+3
   935  0698  0830               	movf	?___flmul+2,w
   936  0699  00CE               	movwf	___fladd@a+2
   937  069A  082F               	movf	?___flmul+1,w
   938  069B  00CD               	movwf	___fladd@a+1
   939  069C  082E               	movf	?___flmul,w
   940  069D  00CC               	movwf	___fladd@a
   941  069E  3041               	movlw	65
   942  069F  00CB               	movwf	___fladd@b+3
   943  06A0  30F8               	movlw	248
   944  06A1  00CA               	movwf	___fladd@b+2
   945  06A2  3000               	movlw	0
   946  06A3  00C9               	movwf	___fladd@b+1
   947  06A4  3000               	movlw	0
   948  06A5  00C8               	movwf	___fladd@b
   949  06A6  120A  118A  2380  120A  118A  	fcall	___fladd
   950  06AB  1283               	bcf	3,5	;RP0=0, select bank0
   951  06AC  1303               	bcf	3,6	;RP1=0, select bank0
   952  06AD  084B               	movf	?___fladd+3,w
   953  06AE  00DF               	movwf	___fltol@f1+3
   954  06AF  084A               	movf	?___fladd+2,w
   955  06B0  00DE               	movwf	___fltol@f1+2
   956  06B1  0849               	movf	?___fladd+1,w
   957  06B2  00DD               	movwf	___fltol@f1+1
   958  06B3  0848               	movf	?___fladd,w
   959  06B4  00DC               	movwf	___fltol@f1
   960  06B5  120A  118A  2747  120A  118A  	fcall	___fltol
   961  06BA  1283               	bcf	3,5	;RP0=0, select bank0
   962  06BB  1303               	bcf	3,6	;RP1=0, select bank0
   963  06BC  085C               	movf	?___fltol,w
   964  06BD  0095               	movwf	21	;volatile
   965  06BE                     l2065:
   966  06BE  081F               	movf	31,w	;volatile
   967  06BF  39C3               	andlw	-61
   968  06C0  3808               	iorlw	8
   969  06C1  009F               	movwf	31	;volatile
   970  06C2                     l2067:
   971  06C2  3020               	movlw	32
   972  06C3  1683               	bsf	3,5	;RP0=1, select bank1
   973  06C4  1303               	bcf	3,6	;RP1=0, select bank1
   974  06C5  00A0               	movwf	??_ANALOGICOS^(0+128)
   975  06C6                     u2967:
   976  06C6  0BA0               	decfsz	??_ANALOGICOS^(0+128),f
   977  06C7  2EC6               	goto	u2967
   978  06C8  0000               	nop
   979  06C9                     l2069:
   980  06C9  1283               	bcf	3,5	;RP0=0, select bank0
   981  06CA  1303               	bcf	3,6	;RP1=0, select bank0
   982  06CB  149F               	bsf	31,1	;volatile
   983  06CC  2F46               	goto	l103
   984  06CD                     l2071:
   985  06CD  1283               	bcf	3,5	;RP0=0, select bank0
   986  06CE  1303               	bcf	3,6	;RP1=0, select bank0
   987  06CF  0867               	movf	ANALOGICOS@VALORAN,w
   988  06D0  00A0               	movwf	___xxtofl@val
   989  06D1  0868               	movf	ANALOGICOS@VALORAN+1,w
   990  06D2  00A1               	movwf	___xxtofl@val+1
   991  06D3  3000               	movlw	0
   992  06D4  1BA1               	btfsc	___xxtofl@val+1,7
   993  06D5  30FF               	movlw	255
   994  06D6  00A2               	movwf	___xxtofl@val+2
   995  06D7  00A3               	movwf	___xxtofl@val+3
   996  06D8  3001               	movlw	1
   997  06D9  120A  158A  2744  120A  118A  	fcall	___xxtofl
   998  06DE  1283               	bcf	3,5	;RP0=0, select bank0
   999  06DF  1303               	bcf	3,6	;RP1=0, select bank0
  1000  06E0  0823               	movf	?___xxtofl+3,w
  1001  06E1  00B5               	movwf	___flmul@a+3
  1002  06E2  0822               	movf	?___xxtofl+2,w
  1003  06E3  00B4               	movwf	___flmul@a+2
  1004  06E4  0821               	movf	?___xxtofl+1,w
  1005  06E5  00B3               	movwf	___flmul@a+1
  1006  06E6  0820               	movf	?___xxtofl,w
  1007  06E7  00B2               	movwf	___flmul@a
  1008  06E8  303E               	movlw	62
  1009  06E9  00B1               	movwf	___flmul@b+3
  1010  06EA  30EF               	movlw	239
  1011  06EB  00B0               	movwf	___flmul@b+2
  1012  06EC  301A               	movlw	26
  1013  06ED  00AF               	movwf	___flmul@b+1
  1014  06EE  30A0               	movlw	160
  1015  06EF  00AE               	movwf	___flmul@b
  1016  06F0  120A  118A  201F  120A  118A  	fcall	___flmul
  1017  06F5  1283               	bcf	3,5	;RP0=0, select bank0
  1018  06F6  1303               	bcf	3,6	;RP1=0, select bank0
  1019  06F7  0831               	movf	?___flmul+3,w
  1020  06F8  00CF               	movwf	___fladd@a+3
  1021  06F9  0830               	movf	?___flmul+2,w
  1022  06FA  00CE               	movwf	___fladd@a+2
  1023  06FB  082F               	movf	?___flmul+1,w
  1024  06FC  00CD               	movwf	___fladd@a+1
  1025  06FD  082E               	movf	?___flmul,w
  1026  06FE  00CC               	movwf	___fladd@a
  1027  06FF  3041               	movlw	65
  1028  0700  00CB               	movwf	___fladd@b+3
  1029  0701  30F8               	movlw	248
  1030  0702  00CA               	movwf	___fladd@b+2
  1031  0703  3000               	movlw	0
  1032  0704  00C9               	movwf	___fladd@b+1
  1033  0705  3000               	movlw	0
  1034  0706  00C8               	movwf	___fladd@b
  1035  0707  120A  118A  2380  120A  118A  	fcall	___fladd
  1036  070C  1283               	bcf	3,5	;RP0=0, select bank0
  1037  070D  1303               	bcf	3,6	;RP1=0, select bank0
  1038  070E  084B               	movf	?___fladd+3,w
  1039  070F  00DF               	movwf	___fltol@f1+3
  1040  0710  084A               	movf	?___fladd+2,w
  1041  0711  00DE               	movwf	___fltol@f1+2
  1042  0712  0849               	movf	?___fladd+1,w
  1043  0713  00DD               	movwf	___fltol@f1+1
  1044  0714  0848               	movf	?___fladd,w
  1045  0715  00DC               	movwf	___fltol@f1
  1046  0716  120A  118A  2747  120A  118A  	fcall	___fltol
  1047  071B  1283               	bcf	3,5	;RP0=0, select bank0
  1048  071C  1303               	bcf	3,6	;RP1=0, select bank0
  1049  071D  085C               	movf	?___fltol,w
  1050  071E  009B               	movwf	27	;volatile
  1051  071F                     l2073:
  1052  071F  30C3               	movlw	-61
  1053  0720  059F               	andwf	31,f	;volatile
  1054  0721                     l2075:
  1055  0721  3020               	movlw	32
  1056  0722  1683               	bsf	3,5	;RP0=1, select bank1
  1057  0723  1303               	bcf	3,6	;RP1=0, select bank1
  1058  0724  00A0               	movwf	??_ANALOGICOS^(0+128)
  1059  0725                     u2977:
  1060  0725  0BA0               	decfsz	??_ANALOGICOS^(0+128),f
  1061  0726  2F25               	goto	u2977
  1062  0727  0000               	nop
  1063  0728                     l2077:
  1064  0728  1283               	bcf	3,5	;RP0=0, select bank0
  1065  0729  1303               	bcf	3,6	;RP1=0, select bank0
  1066  072A  149F               	bsf	31,1	;volatile
  1067  072B  2F46               	goto	l103
  1068  072C                     l2081:
  1069  072C  1283               	bcf	3,5	;RP0=0, select bank0
  1070  072D  1303               	bcf	3,6	;RP1=0, select bank0
  1071  072E  0C1F               	rrf	31,w	;volatile
  1072  072F  1683               	bsf	3,5	;RP0=1, select bank1
  1073  0730  1303               	bcf	3,6	;RP1=0, select bank1
  1074  0731  00A0               	movwf	??_ANALOGICOS^(0+128)
  1075  0732  0C20               	rrf	??_ANALOGICOS^(0+128),w
  1076  0733  390F               	andlw	15
  1077  0734  00A1               	movwf	(??_ANALOGICOS+1)^(0+128)
  1078  0735  01A2               	clrf	((??_ANALOGICOS+1)^(0+128)+1)
  1079                           
  1080                           ; Switch on 2 bytes has been partitioned into a top level switch of size 1, and 1 sub-sw
      +                          itches
  1081                           ; Switch size 1, requested type "simple"
  1082                           ; Number of cases is 1, Range of values is 0 to 0
  1083                           ; switch strategies available:
  1084                           ; Name         Instructions Cycles
  1085                           ; simple_byte            4     3 (average)
  1086                           ; direct_byte           11     8 (fixed)
  1087                           ; jumptable            260     6 (fixed)
  1088                           ;	Chosen strategy is simple_byte
  1089  0736  0822               	movf	(??_ANALOGICOS+2)^(0+128),w
  1090  0737  3A00               	xorlw	0	; case 0
  1091  0738  1903               	skipnz
  1092  0739  2F3B               	goto	l2115
  1093  073A  2F46               	goto	l103
  1094  073B                     l2115:
  1095                           
  1096                           ; Switch size 1, requested type "simple"
  1097                           ; Number of cases is 3, Range of values is 0 to 2
  1098                           ; switch strategies available:
  1099                           ; Name         Instructions Cycles
  1100                           ; simple_byte           10     6 (average)
  1101                           ; direct_byte           17     8 (fixed)
  1102                           ; jumptable            260     6 (fixed)
  1103                           ;	Chosen strategy is simple_byte
  1104  073B  0821               	movf	(??_ANALOGICOS+1)^(0+128),w
  1105  073C  3A00               	xorlw	0	; case 0
  1106  073D  1903               	skipnz
  1107  073E  2E09               	goto	l2055
  1108  073F  3A01               	xorlw	1	; case 1
  1109  0740  1903               	skipnz
  1110  0741  2E6C               	goto	l2063
  1111  0742  3A03               	xorlw	3	; case 2
  1112  0743  1903               	skipnz
  1113  0744  2ECD               	goto	l2071
  1114  0745  2F46               	goto	l103
  1115  0746                     l103:
  1116  0746  0008               	return
  1117  0747                     __end_of_ANALOGICOS:
  1118                           
  1119                           	psect	text3
  1120  0F44                     __ptext3:	
  1121 ;; *************** function ___xxtofl *****************
  1122 ;; Defined at:
  1123 ;;		line 10 in file "C:\Program Files\Microchip\xc8\v2.31\pic\sources\c90\common\xxtofl.c"
  1124 ;; Parameters:    Size  Location     Type
  1125 ;;  sign            1    wreg     unsigned char 
  1126 ;;  val             4    0[BANK0 ] long 
  1127 ;; Auto vars:     Size  Location     Type
  1128 ;;  sign            1    8[BANK0 ] unsigned char 
  1129 ;;  arg             4   10[BANK0 ] unsigned long 
  1130 ;;  exp             1    9[BANK0 ] unsigned char 
  1131 ;; Return value:  Size  Location     Type
  1132 ;;                  4    0[BANK0 ] unsigned char 
  1133 ;; Registers used:
  1134 ;;		wreg, status,2, status,0
  1135 ;; Tracked objects:
  1136 ;;		On entry : 0/0
  1137 ;;		On exit  : 0/0
  1138 ;;		Unchanged: 0/0
  1139 ;; Data sizes:     COMMON   BANK0   BANK1   BANK3   BANK2
  1140 ;;      Params:         0       4       0       0       0
  1141 ;;      Locals:         0       6       0       0       0
  1142 ;;      Temps:          0       4       0       0       0
  1143 ;;      Totals:         0      14       0       0       0
  1144 ;;Total ram usage:       14 bytes
  1145 ;; Hardware stack levels used:    1
  1146 ;; Hardware stack levels required when called:    1
  1147 ;; This function calls:
  1148 ;;		Nothing
  1149 ;; This function is called by:
  1150 ;;		_ANALOGICOS
  1151 ;; This function uses a non-reentrant model
  1152 ;;
  1153                           
  1154                           
  1155                           ;psect for function ___xxtofl
  1156  0F44                     ___xxtofl:
  1157                           
  1158                           ;incstack = 0
  1159                           ; Regs used in ___xxtofl: [wreg+status,2+status,0]
  1160                           ;___xxtofl@sign stored from wreg
  1161  0F44  1283               	bcf	3,5	;RP0=0, select bank0
  1162  0F45  1303               	bcf	3,6	;RP1=0, select bank0
  1163  0F46  00A8               	movwf	___xxtofl@sign
  1164  0F47                     l2009:
  1165  0F47  0828               	movf	___xxtofl@sign,w
  1166  0F48  1903               	btfsc	3,2
  1167  0F49  2F4B               	goto	u2791
  1168  0F4A  2F4C               	goto	u2790
  1169  0F4B                     u2791:
  1170  0F4B  2F60               	goto	l2015
  1171  0F4C                     u2790:
  1172  0F4C                     l2011:
  1173  0F4C  1FA3               	btfss	___xxtofl@val+3,7
  1174  0F4D  2F4F               	goto	u2801
  1175  0F4E  2F50               	goto	u2800
  1176  0F4F                     u2801:
  1177  0F4F  2F60               	goto	l2015
  1178  0F50                     u2800:
  1179  0F50                     l2013:
  1180  0F50  0920               	comf	___xxtofl@val,w
  1181  0F51  00AA               	movwf	___xxtofl@arg
  1182  0F52  0921               	comf	___xxtofl@val+1,w
  1183  0F53  00AB               	movwf	___xxtofl@arg+1
  1184  0F54  0922               	comf	___xxtofl@val+2,w
  1185  0F55  00AC               	movwf	___xxtofl@arg+2
  1186  0F56  0923               	comf	___xxtofl@val+3,w
  1187  0F57  00AD               	movwf	___xxtofl@arg+3
  1188  0F58  0AAA               	incf	___xxtofl@arg,f
  1189  0F59  1903               	skipnz
  1190  0F5A  0AAB               	incf	___xxtofl@arg+1,f
  1191  0F5B  1903               	skipnz
  1192  0F5C  0AAC               	incf	___xxtofl@arg+2,f
  1193  0F5D  1903               	skipnz
  1194  0F5E  0AAD               	incf	___xxtofl@arg+3,f
  1195  0F5F  2F68               	goto	l622
  1196  0F60                     l2015:
  1197  0F60  0823               	movf	___xxtofl@val+3,w
  1198  0F61  00AD               	movwf	___xxtofl@arg+3
  1199  0F62  0822               	movf	___xxtofl@val+2,w
  1200  0F63  00AC               	movwf	___xxtofl@arg+2
  1201  0F64  0821               	movf	___xxtofl@val+1,w
  1202  0F65  00AB               	movwf	___xxtofl@arg+1
  1203  0F66  0820               	movf	___xxtofl@val,w
  1204  0F67  00AA               	movwf	___xxtofl@arg
  1205  0F68                     l622:
  1206  0F68  0823               	movf	___xxtofl@val+3,w
  1207  0F69  0422               	iorwf	___xxtofl@val+2,w
  1208  0F6A  0421               	iorwf	___xxtofl@val+1,w
  1209  0F6B  0420               	iorwf	___xxtofl@val,w
  1210  0F6C  1D03               	skipz
  1211  0F6D  2F6F               	goto	u2811
  1212  0F6E  2F70               	goto	u2810
  1213  0F6F                     u2811:
  1214  0F6F  2F79               	goto	l2021
  1215  0F70                     u2810:
  1216  0F70                     l2017:
  1217  0F70  3000               	movlw	0
  1218  0F71  00A3               	movwf	?___xxtofl+3
  1219  0F72  3000               	movlw	0
  1220  0F73  00A2               	movwf	?___xxtofl+2
  1221  0F74  3000               	movlw	0
  1222  0F75  00A1               	movwf	?___xxtofl+1
  1223  0F76  3000               	movlw	0
  1224  0F77  00A0               	movwf	?___xxtofl
  1225  0F78  2FFF               	goto	l624
  1226  0F79                     l2021:
  1227  0F79  3096               	movlw	150
  1228  0F7A  00A4               	movwf	??___xxtofl
  1229  0F7B  0824               	movf	??___xxtofl,w
  1230  0F7C  00A9               	movwf	___xxtofl@exp
  1231  0F7D  2F8B               	goto	l2025
  1232  0F7E                     l2023:
  1233  0F7E  3001               	movlw	1
  1234  0F7F  00A4               	movwf	??___xxtofl
  1235  0F80  0824               	movf	??___xxtofl,w
  1236  0F81  07A9               	addwf	___xxtofl@exp,f
  1237  0F82  3001               	movlw	1
  1238  0F83                     u2825:
  1239  0F83  1003               	clrc
  1240  0F84  0CAD               	rrf	___xxtofl@arg+3,f
  1241  0F85  0CAC               	rrf	___xxtofl@arg+2,f
  1242  0F86  0CAB               	rrf	___xxtofl@arg+1,f
  1243  0F87  0CAA               	rrf	___xxtofl@arg,f
  1244  0F88  3EFF               	addlw	-1
  1245  0F89  1D03               	skipz
  1246  0F8A  2F83               	goto	u2825
  1247  0F8B                     l2025:
  1248  0F8B  30FE               	movlw	254
  1249  0F8C  052D               	andwf	___xxtofl@arg+3,w
  1250  0F8D  1D03               	btfss	3,2
  1251  0F8E  2F90               	goto	u2831
  1252  0F8F  2F91               	goto	u2830
  1253  0F90                     u2831:
  1254  0F90  2F7E               	goto	l2023
  1255  0F91                     u2830:
  1256  0F91  2FAD               	goto	l628
  1257  0F92                     l2027:
  1258  0F92  3001               	movlw	1
  1259  0F93  00A4               	movwf	??___xxtofl
  1260  0F94  0824               	movf	??___xxtofl,w
  1261  0F95  07A9               	addwf	___xxtofl@exp,f
  1262  0F96                     l2029:
  1263  0F96  3001               	movlw	1
  1264  0F97  07AA               	addwf	___xxtofl@arg,f
  1265  0F98  3000               	movlw	0
  1266  0F99  1803               	skipnc
  1267  0F9A  3001               	movlw	1
  1268  0F9B  07AB               	addwf	___xxtofl@arg+1,f
  1269  0F9C  3000               	movlw	0
  1270  0F9D  1803               	skipnc
  1271  0F9E  3001               	movlw	1
  1272  0F9F  07AC               	addwf	___xxtofl@arg+2,f
  1273  0FA0  3000               	movlw	0
  1274  0FA1  1803               	skipnc
  1275  0FA2  3001               	movlw	1
  1276  0FA3  07AD               	addwf	___xxtofl@arg+3,f
  1277  0FA4                     l2031:
  1278  0FA4  3001               	movlw	1
  1279  0FA5                     u2845:
  1280  0FA5  1003               	clrc
  1281  0FA6  0CAD               	rrf	___xxtofl@arg+3,f
  1282  0FA7  0CAC               	rrf	___xxtofl@arg+2,f
  1283  0FA8  0CAB               	rrf	___xxtofl@arg+1,f
  1284  0FA9  0CAA               	rrf	___xxtofl@arg,f
  1285  0FAA  3EFF               	addlw	-1
  1286  0FAB  1D03               	skipz
  1287  0FAC  2FA5               	goto	u2845
  1288  0FAD                     l628:
  1289  0FAD  30FF               	movlw	255
  1290  0FAE  052D               	andwf	___xxtofl@arg+3,w
  1291  0FAF  1D03               	btfss	3,2
  1292  0FB0  2FB2               	goto	u2851
  1293  0FB1  2FB3               	goto	u2850
  1294  0FB2                     u2851:
  1295  0FB2  2F92               	goto	l2027
  1296  0FB3                     u2850:
  1297  0FB3  2FBF               	goto	l2035
  1298  0FB4                     l2033:
  1299  0FB4  3001               	movlw	1
  1300  0FB5  02A9               	subwf	___xxtofl@exp,f
  1301  0FB6  3001               	movlw	1
  1302  0FB7  00A4               	movwf	??___xxtofl
  1303  0FB8                     u2865:
  1304  0FB8  1003               	clrc
  1305  0FB9  0DAA               	rlf	___xxtofl@arg,f
  1306  0FBA  0DAB               	rlf	___xxtofl@arg+1,f
  1307  0FBB  0DAC               	rlf	___xxtofl@arg+2,f
  1308  0FBC  0DAD               	rlf	___xxtofl@arg+3,f
  1309  0FBD  0BA4               	decfsz	??___xxtofl,f
  1310  0FBE  2FB8               	goto	u2865
  1311  0FBF                     l2035:
  1312  0FBF  1BAC               	btfsc	___xxtofl@arg+2,7
  1313  0FC0  2FC2               	goto	u2871
  1314  0FC1  2FC3               	goto	u2870
  1315  0FC2                     u2871:
  1316  0FC2  2FC9               	goto	l635
  1317  0FC3                     u2870:
  1318  0FC3                     l2037:
  1319  0FC3  3002               	movlw	2
  1320  0FC4  0229               	subwf	___xxtofl@exp,w
  1321  0FC5  1803               	skipnc
  1322  0FC6  2FC8               	goto	u2881
  1323  0FC7  2FC9               	goto	u2880
  1324  0FC8                     u2881:
  1325  0FC8  2FB4               	goto	l2033
  1326  0FC9                     u2880:
  1327  0FC9                     l635:
  1328  0FC9  1829               	btfsc	___xxtofl@exp,0
  1329  0FCA  2FCC               	goto	u2891
  1330  0FCB  2FCD               	goto	u2890
  1331  0FCC                     u2891:
  1332  0FCC  2FD5               	goto	l636
  1333  0FCD                     u2890:
  1334  0FCD                     l2039:
  1335  0FCD  30FF               	movlw	255
  1336  0FCE  05AA               	andwf	___xxtofl@arg,f
  1337  0FCF  30FF               	movlw	255
  1338  0FD0  05AB               	andwf	___xxtofl@arg+1,f
  1339  0FD1  307F               	movlw	127
  1340  0FD2  05AC               	andwf	___xxtofl@arg+2,f
  1341  0FD3  30FF               	movlw	255
  1342  0FD4  05AD               	andwf	___xxtofl@arg+3,f
  1343  0FD5                     l636:
  1344  0FD5  1003               	clrc
  1345  0FD6  0CA9               	rrf	___xxtofl@exp,f
  1346  0FD7                     l2041:
  1347  0FD7  0829               	movf	___xxtofl@exp,w
  1348  0FD8  00A4               	movwf	??___xxtofl
  1349  0FD9  01A5               	clrf	??___xxtofl+1
  1350  0FDA  01A6               	clrf	??___xxtofl+2
  1351  0FDB  01A7               	clrf	??___xxtofl+3
  1352  0FDC  3018               	movlw	24
  1353  0FDD                     u2905:
  1354  0FDD  1003               	clrc
  1355  0FDE  0DA4               	rlf	??___xxtofl,f
  1356  0FDF  0DA5               	rlf	??___xxtofl+1,f
  1357  0FE0  0DA6               	rlf	??___xxtofl+2,f
  1358  0FE1  0DA7               	rlf	??___xxtofl+3,f
  1359  0FE2                     u2900:
  1360  0FE2  3EFF               	addlw	-1
  1361  0FE3  1D03               	skipz
  1362  0FE4  2FDD               	goto	u2905
  1363  0FE5  0824               	movf	??___xxtofl,w
  1364  0FE6  04AA               	iorwf	___xxtofl@arg,f
  1365  0FE7  0825               	movf	??___xxtofl+1,w
  1366  0FE8  04AB               	iorwf	___xxtofl@arg+1,f
  1367  0FE9  0826               	movf	??___xxtofl+2,w
  1368  0FEA  04AC               	iorwf	___xxtofl@arg+2,f
  1369  0FEB  0827               	movf	??___xxtofl+3,w
  1370  0FEC  04AD               	iorwf	___xxtofl@arg+3,f
  1371  0FED                     l2043:
  1372  0FED  0828               	movf	___xxtofl@sign,w
  1373  0FEE  1903               	btfsc	3,2
  1374  0FEF  2FF1               	goto	u2911
  1375  0FF0  2FF2               	goto	u2910
  1376  0FF1                     u2911:
  1377  0FF1  2FF7               	goto	l2049
  1378  0FF2                     u2910:
  1379  0FF2                     l2045:
  1380  0FF2  1FA3               	btfss	___xxtofl@val+3,7
  1381  0FF3  2FF5               	goto	u2921
  1382  0FF4  2FF6               	goto	u2920
  1383  0FF5                     u2921:
  1384  0FF5  2FF7               	goto	l2049
  1385  0FF6                     u2920:
  1386  0FF6                     l2047:
  1387  0FF6  17AD               	bsf	___xxtofl@arg+3,7
  1388  0FF7                     l2049:
  1389  0FF7  082D               	movf	___xxtofl@arg+3,w
  1390  0FF8  00A3               	movwf	?___xxtofl+3
  1391  0FF9  082C               	movf	___xxtofl@arg+2,w
  1392  0FFA  00A2               	movwf	?___xxtofl+2
  1393  0FFB  082B               	movf	___xxtofl@arg+1,w
  1394  0FFC  00A1               	movwf	?___xxtofl+1
  1395  0FFD  082A               	movf	___xxtofl@arg,w
  1396  0FFE  00A0               	movwf	?___xxtofl
  1397  0FFF                     l624:
  1398  0FFF  0008               	return
  1399  1000                     __end_of___xxtofl:
  1400                           
  1401                           	psect	text4
  1402  0747                     __ptext4:	
  1403 ;; *************** function ___fltol *****************
  1404 ;; Defined at:
  1405 ;;		line 43 in file "C:\Program Files\Microchip\xc8\v2.31\pic\sources\c90\common\fltol.c"
  1406 ;; Parameters:    Size  Location     Type
  1407 ;;  f1              4   60[BANK0 ] unsigned char 
  1408 ;; Auto vars:     Size  Location     Type
  1409 ;;  exp1            1   70[BANK0 ] unsigned char 
  1410 ;;  sign1           1   69[BANK0 ] unsigned char 
  1411 ;; Return value:  Size  Location     Type
  1412 ;;                  4   60[BANK0 ] long 
  1413 ;; Registers used:
  1414 ;;		wreg, status,2, status,0
  1415 ;; Tracked objects:
  1416 ;;		On entry : 0/0
  1417 ;;		On exit  : 0/0
  1418 ;;		Unchanged: 0/0
  1419 ;; Data sizes:     COMMON   BANK0   BANK1   BANK3   BANK2
  1420 ;;      Params:         0       4       0       0       0
  1421 ;;      Locals:         0       2       0       0       0
  1422 ;;      Temps:          0       5       0       0       0
  1423 ;;      Totals:         0      11       0       0       0
  1424 ;;Total ram usage:       11 bytes
  1425 ;; Hardware stack levels used:    1
  1426 ;; Hardware stack levels required when called:    1
  1427 ;; This function calls:
  1428 ;;		Nothing
  1429 ;; This function is called by:
  1430 ;;		_ANALOGICOS
  1431 ;; This function uses a non-reentrant model
  1432 ;;
  1433                           
  1434                           
  1435                           ;psect for function ___fltol
  1436  0747                     ___fltol:
  1437  0747                     l1833:	
  1438                           ;incstack = 0
  1439                           ; Regs used in ___fltol: [wreg+status,2+status,0]
  1440                           
  1441  0747  1003               	clrc
  1442  0748  1283               	bcf	3,5	;RP0=0, select bank0
  1443  0749  1303               	bcf	3,6	;RP1=0, select bank0
  1444  074A  0D5E               	rlf	___fltol@f1+2,w
  1445  074B  0D5F               	rlf	___fltol@f1+3,w
  1446  074C  00E0               	movwf	??___fltol
  1447  074D  0860               	movf	??___fltol,w
  1448  074E  00E6               	movwf	___fltol@exp1
  1449  074F  0866               	movf	___fltol@exp1,w
  1450  0750  1D03               	btfss	3,2
  1451  0751  2F53               	goto	u2321
  1452  0752  2F54               	goto	u2320
  1453  0753                     u2321:
  1454  0753  2F5D               	goto	l1839
  1455  0754                     u2320:
  1456  0754                     l1835:
  1457  0754  3000               	movlw	0
  1458  0755  00DF               	movwf	?___fltol+3
  1459  0756  3000               	movlw	0
  1460  0757  00DE               	movwf	?___fltol+2
  1461  0758  3000               	movlw	0
  1462  0759  00DD               	movwf	?___fltol+1
  1463  075A  3000               	movlw	0
  1464  075B  00DC               	movwf	?___fltol
  1465  075C  2FC2               	goto	l375
  1466  075D                     l1839:
  1467  075D  085C               	movf	___fltol@f1,w
  1468  075E  00E0               	movwf	??___fltol
  1469  075F  085D               	movf	___fltol@f1+1,w
  1470  0760  00E1               	movwf	??___fltol+1
  1471  0761  085E               	movf	___fltol@f1+2,w
  1472  0762  00E2               	movwf	??___fltol+2
  1473  0763  085F               	movf	___fltol@f1+3,w
  1474  0764  00E3               	movwf	??___fltol+3
  1475  0765  301F               	movlw	31
  1476  0766                     u2335:
  1477  0766  1003               	clrc
  1478  0767  0CE3               	rrf	??___fltol+3,f
  1479  0768  0CE2               	rrf	??___fltol+2,f
  1480  0769  0CE1               	rrf	??___fltol+1,f
  1481  076A  0CE0               	rrf	??___fltol,f
  1482  076B                     u2330:
  1483  076B  3EFF               	addlw	-1
  1484  076C  1D03               	skipz
  1485  076D  2F66               	goto	u2335
  1486  076E  0860               	movf	??___fltol,w
  1487  076F  00E4               	movwf	??___fltol+4
  1488  0770  0864               	movf	??___fltol+4,w
  1489  0771  00E5               	movwf	___fltol@sign1
  1490  0772                     l1841:
  1491  0772  17DE               	bsf	___fltol@f1+2,7
  1492  0773                     l1843:
  1493  0773  30FF               	movlw	255
  1494  0774  05DC               	andwf	___fltol@f1,f
  1495  0775  30FF               	movlw	255
  1496  0776  05DD               	andwf	___fltol@f1+1,f
  1497  0777  30FF               	movlw	255
  1498  0778  05DE               	andwf	___fltol@f1+2,f
  1499  0779  3000               	movlw	0
  1500  077A  05DF               	andwf	___fltol@f1+3,f
  1501  077B                     l1845:
  1502  077B  3096               	movlw	150
  1503  077C  02E6               	subwf	___fltol@exp1,f
  1504  077D                     l1847:
  1505  077D  1FE6               	btfss	___fltol@exp1,7
  1506  077E  2F80               	goto	u2341
  1507  077F  2F81               	goto	u2340
  1508  0780                     u2341:
  1509  0780  2F9B               	goto	l1857
  1510  0781                     u2340:
  1511  0781                     l1849:
  1512  0781  0866               	movf	___fltol@exp1,w
  1513  0782  3A80               	xorlw	128
  1514  0783  3E97               	addlw	151
  1515  0784  1803               	skipnc
  1516  0785  2F87               	goto	u2351
  1517  0786  2F88               	goto	u2350
  1518  0787                     u2351:
  1519  0787  2F89               	goto	l1855
  1520  0788                     u2350:
  1521  0788  2F54               	goto	l1835
  1522  0789                     l1855:
  1523  0789  3001               	movlw	1
  1524  078A                     u2365:
  1525  078A  1003               	clrc
  1526  078B  0CDF               	rrf	___fltol@f1+3,f
  1527  078C  0CDE               	rrf	___fltol@f1+2,f
  1528  078D  0CDD               	rrf	___fltol@f1+1,f
  1529  078E  0CDC               	rrf	___fltol@f1,f
  1530  078F  3EFF               	addlw	-1
  1531  0790  1D03               	skipz
  1532  0791  2F8A               	goto	u2365
  1533  0792  3001               	movlw	1
  1534  0793  00E0               	movwf	??___fltol
  1535  0794  0860               	movf	??___fltol,w
  1536  0795  07E6               	addwf	___fltol@exp1,f
  1537  0796  1D03               	btfss	3,2
  1538  0797  2F99               	goto	u2371
  1539  0798  2F9A               	goto	u2370
  1540  0799                     u2371:
  1541  0799  2F89               	goto	l1855
  1542  079A                     u2370:
  1543  079A  2FB2               	goto	l1865
  1544  079B                     l1857:
  1545  079B  3020               	movlw	32
  1546  079C  0266               	subwf	___fltol@exp1,w
  1547  079D  1C03               	skipc
  1548  079E  2FA0               	goto	u2381
  1549  079F  2FA1               	goto	u2380
  1550  07A0                     u2381:
  1551  07A0  2FAD               	goto	l382
  1552  07A1                     u2380:
  1553  07A1  2F54               	goto	l1835
  1554  07A2                     l1863:
  1555  07A2  3001               	movlw	1
  1556  07A3  00E0               	movwf	??___fltol
  1557  07A4                     u2395:
  1558  07A4  1003               	clrc
  1559  07A5  0DDC               	rlf	___fltol@f1,f
  1560  07A6  0DDD               	rlf	___fltol@f1+1,f
  1561  07A7  0DDE               	rlf	___fltol@f1+2,f
  1562  07A8  0DDF               	rlf	___fltol@f1+3,f
  1563  07A9  0BE0               	decfsz	??___fltol,f
  1564  07AA  2FA4               	goto	u2395
  1565  07AB  3001               	movlw	1
  1566  07AC  02E6               	subwf	___fltol@exp1,f
  1567  07AD                     l382:
  1568  07AD  0866               	movf	___fltol@exp1,w
  1569  07AE  1D03               	btfss	3,2
  1570  07AF  2FB1               	goto	u2401
  1571  07B0  2FB2               	goto	u2400
  1572  07B1                     u2401:
  1573  07B1  2FA2               	goto	l1863
  1574  07B2                     u2400:
  1575  07B2                     l1865:
  1576  07B2  0865               	movf	___fltol@sign1,w
  1577  07B3  1903               	btfsc	3,2
  1578  07B4  2FB6               	goto	u2411
  1579  07B5  2FB7               	goto	u2410
  1580  07B6                     u2411:
  1581  07B6  2FC2               	goto	l385
  1582  07B7                     u2410:
  1583  07B7                     l1867:
  1584  07B7  09DC               	comf	___fltol@f1,f
  1585  07B8  09DD               	comf	___fltol@f1+1,f
  1586  07B9  09DE               	comf	___fltol@f1+2,f
  1587  07BA  09DF               	comf	___fltol@f1+3,f
  1588  07BB  0ADC               	incf	___fltol@f1,f
  1589  07BC  1903               	skipnz
  1590  07BD  0ADD               	incf	___fltol@f1+1,f
  1591  07BE  1903               	skipnz
  1592  07BF  0ADE               	incf	___fltol@f1+2,f
  1593  07C0  1903               	skipnz
  1594  07C1  0ADF               	incf	___fltol@f1+3,f
  1595  07C2                     l385:
  1596  07C2                     l375:
  1597  07C2  0008               	return
  1598  07C3                     __end_of___fltol:
  1599                           
  1600                           	psect	text5
  1601  001F                     __ptext5:	
  1602 ;; *************** function ___flmul *****************
  1603 ;; Defined at:
  1604 ;;		line 8 in file "C:\Program Files\Microchip\xc8\v2.31\pic\sources\c90\common\sprcmul.c"
  1605 ;; Parameters:    Size  Location     Type
  1606 ;;  b               4   14[BANK0 ] long 
  1607 ;;  a               4   18[BANK0 ] long 
  1608 ;; Auto vars:     Size  Location     Type
  1609 ;;  prod            4   34[BANK0 ] struct .
  1610 ;;  grs             4   29[BANK0 ] unsigned long 
  1611 ;;  temp            2   38[BANK0 ] struct .
  1612 ;;  bexp            1   33[BANK0 ] unsigned char 
  1613 ;;  aexp            1   28[BANK0 ] unsigned char 
  1614 ;;  sign            1   27[BANK0 ] unsigned char 
  1615 ;; Return value:  Size  Location     Type
  1616 ;;                  4   14[BANK0 ] unsigned char 
  1617 ;; Registers used:
  1618 ;;		wreg, status,2, status,0, btemp+1, pclath, cstack
  1619 ;; Tracked objects:
  1620 ;;		On entry : 0/0
  1621 ;;		On exit  : 0/0
  1622 ;;		Unchanged: 0/0
  1623 ;; Data sizes:     COMMON   BANK0   BANK1   BANK3   BANK2
  1624 ;;      Params:         0       8       0       0       0
  1625 ;;      Locals:         0      13       0       0       0
  1626 ;;      Temps:          0       5       0       0       0
  1627 ;;      Totals:         0      26       0       0       0
  1628 ;;Total ram usage:       26 bytes
  1629 ;; Hardware stack levels used:    1
  1630 ;; Hardware stack levels required when called:    2
  1631 ;; This function calls:
  1632 ;;		__Umul8_16
  1633 ;; This function is called by:
  1634 ;;		_ANALOGICOS
  1635 ;; This function uses a non-reentrant model
  1636 ;;
  1637                           
  1638                           
  1639                           ;psect for function ___flmul
  1640  001F                     ___flmul:
  1641  001F                     l1869:	
  1642                           ;incstack = 0
  1643                           ; Regs used in ___flmul: [wreg+status,2+status,0+btemp+1+pclath+cstack]
  1644                           
  1645  001F  1283               	bcf	3,5	;RP0=0, select bank0
  1646  0020  1303               	bcf	3,6	;RP1=0, select bank0
  1647  0021  0831               	movf	___flmul@b+3,w
  1648  0022  3980               	andlw	128
  1649  0023  00B6               	movwf	??___flmul
  1650  0024  0836               	movf	??___flmul,w
  1651  0025  00BB               	movwf	___flmul@sign
  1652  0026                     l1871:
  1653  0026  0831               	movf	___flmul@b+3,w
  1654  0027  00B6               	movwf	??___flmul
  1655  0028  0736               	addwf	??___flmul,w
  1656  0029  00B7               	movwf	??___flmul+1
  1657  002A  0837               	movf	??___flmul+1,w
  1658  002B  00C1               	movwf	___flmul@bexp
  1659  002C                     l1873:
  1660  002C  1FB0               	btfss	___flmul@b+2,7
  1661  002D  282F               	goto	u2421
  1662  002E  2830               	goto	u2420
  1663  002F                     u2421:
  1664  002F  2831               	goto	l1877
  1665  0030                     u2420:
  1666  0030                     l1875:
  1667  0030  1441               	bsf	___flmul@bexp,0
  1668  0031                     l1877:
  1669  0031  0841               	movf	___flmul@bexp,w
  1670  0032  1903               	btfsc	3,2
  1671  0033  2835               	goto	u2431
  1672  0034  2836               	goto	u2430
  1673  0035                     u2431:
  1674  0035  2845               	goto	l1885
  1675  0036                     u2430:
  1676  0036                     l1879:
  1677  0036  0A41               	incf	___flmul@bexp,w
  1678  0037  1D03               	btfss	3,2
  1679  0038  283A               	goto	u2441
  1680  0039  283B               	goto	u2440
  1681  003A                     u2441:
  1682  003A  2843               	goto	l1883
  1683  003B                     u2440:
  1684  003B                     l1881:
  1685  003B  3000               	movlw	0
  1686  003C  00B1               	movwf	___flmul@b+3
  1687  003D  3000               	movlw	0
  1688  003E  00B0               	movwf	___flmul@b+2
  1689  003F  3000               	movlw	0
  1690  0040  00AF               	movwf	___flmul@b+1
  1691  0041  3000               	movlw	0
  1692  0042  00AE               	movwf	___flmul@b
  1693  0043                     l1883:
  1694  0043  17B0               	bsf	___flmul@b+2,7
  1695  0044  284D               	goto	l1887
  1696  0045                     l1885:
  1697  0045  3000               	movlw	0
  1698  0046  00B1               	movwf	___flmul@b+3
  1699  0047  3000               	movlw	0
  1700  0048  00B0               	movwf	___flmul@b+2
  1701  0049  3000               	movlw	0
  1702  004A  00AF               	movwf	___flmul@b+1
  1703  004B  3000               	movlw	0
  1704  004C  00AE               	movwf	___flmul@b
  1705  004D                     l1887:
  1706  004D  0835               	movf	___flmul@a+3,w
  1707  004E  3980               	andlw	128
  1708  004F  00B6               	movwf	??___flmul
  1709  0050  0836               	movf	??___flmul,w
  1710  0051  06BB               	xorwf	___flmul@sign,f
  1711  0052                     l1889:
  1712  0052  0835               	movf	___flmul@a+3,w
  1713  0053  00B6               	movwf	??___flmul
  1714  0054  0736               	addwf	??___flmul,w
  1715  0055  00B7               	movwf	??___flmul+1
  1716  0056  0837               	movf	??___flmul+1,w
  1717  0057  00BC               	movwf	___flmul@aexp
  1718  0058                     l1891:
  1719  0058  1FB4               	btfss	___flmul@a+2,7
  1720  0059  285B               	goto	u2451
  1721  005A  285C               	goto	u2450
  1722  005B                     u2451:
  1723  005B  285D               	goto	l1895
  1724  005C                     u2450:
  1725  005C                     l1893:
  1726  005C  143C               	bsf	___flmul@aexp,0
  1727  005D                     l1895:
  1728  005D  083C               	movf	___flmul@aexp,w
  1729  005E  1903               	btfsc	3,2
  1730  005F  2861               	goto	u2461
  1731  0060  2862               	goto	u2460
  1732  0061                     u2461:
  1733  0061  2871               	goto	l1903
  1734  0062                     u2460:
  1735  0062                     l1897:
  1736  0062  0A3C               	incf	___flmul@aexp,w
  1737  0063  1D03               	btfss	3,2
  1738  0064  2866               	goto	u2471
  1739  0065  2867               	goto	u2470
  1740  0066                     u2471:
  1741  0066  286F               	goto	l1901
  1742  0067                     u2470:
  1743  0067                     l1899:
  1744  0067  3000               	movlw	0
  1745  0068  00B5               	movwf	___flmul@a+3
  1746  0069  3000               	movlw	0
  1747  006A  00B4               	movwf	___flmul@a+2
  1748  006B  3000               	movlw	0
  1749  006C  00B3               	movwf	___flmul@a+1
  1750  006D  3000               	movlw	0
  1751  006E  00B2               	movwf	___flmul@a
  1752  006F                     l1901:
  1753  006F  17B4               	bsf	___flmul@a+2,7
  1754  0070  2879               	goto	l1905
  1755  0071                     l1903:
  1756  0071  3000               	movlw	0
  1757  0072  00B5               	movwf	___flmul@a+3
  1758  0073  3000               	movlw	0
  1759  0074  00B4               	movwf	___flmul@a+2
  1760  0075  3000               	movlw	0
  1761  0076  00B3               	movwf	___flmul@a+1
  1762  0077  3000               	movlw	0
  1763  0078  00B2               	movwf	___flmul@a
  1764  0079                     l1905:
  1765  0079  083C               	movf	___flmul@aexp,w
  1766  007A  1903               	btfsc	3,2
  1767  007B  287D               	goto	u2481
  1768  007C  287E               	goto	u2480
  1769  007D                     u2481:
  1770  007D  2883               	goto	l1909
  1771  007E                     u2480:
  1772  007E                     l1907:
  1773  007E  0841               	movf	___flmul@bexp,w
  1774  007F  1D03               	btfss	3,2
  1775  0080  2882               	goto	u2491
  1776  0081  2883               	goto	u2490
  1777  0082                     u2491:
  1778  0082  288C               	goto	l1913
  1779  0083                     u2490:
  1780  0083                     l1909:
  1781  0083  3000               	movlw	0
  1782  0084  00B1               	movwf	?___flmul+3
  1783  0085  3000               	movlw	0
  1784  0086  00B0               	movwf	?___flmul+2
  1785  0087  3000               	movlw	0
  1786  0088  00AF               	movwf	?___flmul+1
  1787  0089  3000               	movlw	0
  1788  008A  00AE               	movwf	?___flmul
  1789  008B  2B7F               	goto	l578
  1790  008C                     l1913:
  1791  008C  082E               	movf	___flmul@b,w
  1792  008D  00B6               	movwf	??___flmul
  1793  008E  0836               	movf	??___flmul,w
  1794  008F  00F4               	movwf	__Umul8_16@multiplicand
  1795  0090  0834               	movf	___flmul@a+2,w
  1796  0091  120A  158A  26D2  120A  118A  	fcall	__Umul8_16
  1797  0096  0875               	movf	?__Umul8_16+1,w
  1798  0097  1283               	bcf	3,5	;RP0=0, select bank0
  1799  0098  1303               	bcf	3,6	;RP1=0, select bank0
  1800  0099  00C7               	movwf	___flmul@temp+1
  1801  009A  0874               	movf	?__Umul8_16,w
  1802  009B  00C6               	movwf	___flmul@temp
  1803  009C                     l1915:
  1804  009C  0846               	movf	___flmul@temp,w
  1805  009D  00B6               	movwf	??___flmul
  1806  009E  01B7               	clrf	??___flmul+1
  1807  009F  01B8               	clrf	??___flmul+2
  1808  00A0  01B9               	clrf	??___flmul+3
  1809  00A1  0839               	movf	??___flmul+3,w
  1810  00A2  00C0               	movwf	___flmul@grs+3
  1811  00A3  0838               	movf	??___flmul+2,w
  1812  00A4  00BF               	movwf	___flmul@grs+2
  1813  00A5  0837               	movf	??___flmul+1,w
  1814  00A6  00BE               	movwf	___flmul@grs+1
  1815  00A7  0836               	movf	??___flmul,w
  1816  00A8  00BD               	movwf	___flmul@grs
  1817  00A9                     l1917:
  1818  00A9  0847               	movf	___flmul@temp+1,w
  1819  00AA  00B6               	movwf	??___flmul
  1820  00AB  01B7               	clrf	??___flmul+1
  1821  00AC  01B8               	clrf	??___flmul+2
  1822  00AD  01B9               	clrf	??___flmul+3
  1823  00AE  0839               	movf	??___flmul+3,w
  1824  00AF  00C5               	movwf	___flmul@prod+3
  1825  00B0  0838               	movf	??___flmul+2,w
  1826  00B1  00C4               	movwf	___flmul@prod+2
  1827  00B2  0837               	movf	??___flmul+1,w
  1828  00B3  00C3               	movwf	___flmul@prod+1
  1829  00B4  0836               	movf	??___flmul,w
  1830  00B5  00C2               	movwf	___flmul@prod
  1831  00B6  082F               	movf	___flmul@b+1,w
  1832  00B7  00B6               	movwf	??___flmul
  1833  00B8  0836               	movf	??___flmul,w
  1834  00B9  00F4               	movwf	__Umul8_16@multiplicand
  1835  00BA  0833               	movf	___flmul@a+1,w
  1836  00BB  120A  158A  26D2  120A  118A  	fcall	__Umul8_16
  1837  00C0  0875               	movf	?__Umul8_16+1,w
  1838  00C1  1283               	bcf	3,5	;RP0=0, select bank0
  1839  00C2  1303               	bcf	3,6	;RP1=0, select bank0
  1840  00C3  00C7               	movwf	___flmul@temp+1
  1841  00C4  0874               	movf	?__Umul8_16,w
  1842  00C5  00C6               	movwf	___flmul@temp
  1843  00C6                     l1919:
  1844  00C6  0846               	movf	___flmul@temp,w
  1845  00C7  00B6               	movwf	??___flmul
  1846  00C8  01B7               	clrf	??___flmul+1
  1847  00C9  01B8               	clrf	??___flmul+2
  1848  00CA  01B9               	clrf	??___flmul+3
  1849  00CB  0836               	movf	??___flmul,w
  1850  00CC  07BD               	addwf	___flmul@grs,f
  1851  00CD  0837               	movf	??___flmul+1,w
  1852  00CE  1103               	clrz
  1853  00CF  1803               	skipnc
  1854  00D0  3E01               	addlw	1
  1855  00D1  1903               	skipnz
  1856  00D2  28D4               	goto	u2501
  1857  00D3  07BE               	addwf	___flmul@grs+1,f
  1858  00D4                     u2501:
  1859  00D4  0838               	movf	??___flmul+2,w
  1860  00D5  1103               	clrz
  1861  00D6  1803               	skipnc
  1862  00D7  3E01               	addlw	1
  1863  00D8  1903               	skipnz
  1864  00D9  28DB               	goto	u2502
  1865  00DA  07BF               	addwf	___flmul@grs+2,f
  1866  00DB                     u2502:
  1867  00DB  0839               	movf	??___flmul+3,w
  1868  00DC  1103               	clrz
  1869  00DD  1803               	skipnc
  1870  00DE  3E01               	addlw	1
  1871  00DF  1903               	skipnz
  1872  00E0  28E2               	goto	u2503
  1873  00E1  07C0               	addwf	___flmul@grs+3,f
  1874  00E2                     u2503:
  1875  00E2                     l1921:
  1876  00E2  0847               	movf	___flmul@temp+1,w
  1877  00E3  00B6               	movwf	??___flmul
  1878  00E4  01B7               	clrf	??___flmul+1
  1879  00E5  01B8               	clrf	??___flmul+2
  1880  00E6  01B9               	clrf	??___flmul+3
  1881  00E7  0836               	movf	??___flmul,w
  1882  00E8  07C2               	addwf	___flmul@prod,f
  1883  00E9  0837               	movf	??___flmul+1,w
  1884  00EA  1103               	clrz
  1885  00EB  1803               	skipnc
  1886  00EC  3E01               	addlw	1
  1887  00ED  1903               	skipnz
  1888  00EE  28F0               	goto	u2511
  1889  00EF  07C3               	addwf	___flmul@prod+1,f
  1890  00F0                     u2511:
  1891  00F0  0838               	movf	??___flmul+2,w
  1892  00F1  1103               	clrz
  1893  00F2  1803               	skipnc
  1894  00F3  3E01               	addlw	1
  1895  00F4  1903               	skipnz
  1896  00F5  28F7               	goto	u2512
  1897  00F6  07C4               	addwf	___flmul@prod+2,f
  1898  00F7                     u2512:
  1899  00F7  0839               	movf	??___flmul+3,w
  1900  00F8  1103               	clrz
  1901  00F9  1803               	skipnc
  1902  00FA  3E01               	addlw	1
  1903  00FB  1903               	skipnz
  1904  00FC  28FE               	goto	u2513
  1905  00FD  07C5               	addwf	___flmul@prod+3,f
  1906  00FE                     u2513:
  1907  00FE  0830               	movf	___flmul@b+2,w
  1908  00FF  00B6               	movwf	??___flmul
  1909  0100  0836               	movf	??___flmul,w
  1910  0101  00F4               	movwf	__Umul8_16@multiplicand
  1911  0102  0832               	movf	___flmul@a,w
  1912  0103  120A  158A  26D2  120A  118A  	fcall	__Umul8_16
  1913  0108  0875               	movf	?__Umul8_16+1,w
  1914  0109  1283               	bcf	3,5	;RP0=0, select bank0
  1915  010A  1303               	bcf	3,6	;RP1=0, select bank0
  1916  010B  00C7               	movwf	___flmul@temp+1
  1917  010C  0874               	movf	?__Umul8_16,w
  1918  010D  00C6               	movwf	___flmul@temp
  1919  010E                     l1923:
  1920  010E  0846               	movf	___flmul@temp,w
  1921  010F  00B6               	movwf	??___flmul
  1922  0110  01B7               	clrf	??___flmul+1
  1923  0111  01B8               	clrf	??___flmul+2
  1924  0112  01B9               	clrf	??___flmul+3
  1925  0113  0836               	movf	??___flmul,w
  1926  0114  07BD               	addwf	___flmul@grs,f
  1927  0115  0837               	movf	??___flmul+1,w
  1928  0116  1103               	clrz
  1929  0117  1803               	skipnc
  1930  0118  3E01               	addlw	1
  1931  0119  1903               	skipnz
  1932  011A  291C               	goto	u2521
  1933  011B  07BE               	addwf	___flmul@grs+1,f
  1934  011C                     u2521:
  1935  011C  0838               	movf	??___flmul+2,w
  1936  011D  1103               	clrz
  1937  011E  1803               	skipnc
  1938  011F  3E01               	addlw	1
  1939  0120  1903               	skipnz
  1940  0121  2923               	goto	u2522
  1941  0122  07BF               	addwf	___flmul@grs+2,f
  1942  0123                     u2522:
  1943  0123  0839               	movf	??___flmul+3,w
  1944  0124  1103               	clrz
  1945  0125  1803               	skipnc
  1946  0126  3E01               	addlw	1
  1947  0127  1903               	skipnz
  1948  0128  292A               	goto	u2523
  1949  0129  07C0               	addwf	___flmul@grs+3,f
  1950  012A                     u2523:
  1951  012A                     l1925:
  1952  012A  0847               	movf	___flmul@temp+1,w
  1953  012B  00B6               	movwf	??___flmul
  1954  012C  01B7               	clrf	??___flmul+1
  1955  012D  01B8               	clrf	??___flmul+2
  1956  012E  01B9               	clrf	??___flmul+3
  1957  012F  0836               	movf	??___flmul,w
  1958  0130  07C2               	addwf	___flmul@prod,f
  1959  0131  0837               	movf	??___flmul+1,w
  1960  0132  1103               	clrz
  1961  0133  1803               	skipnc
  1962  0134  3E01               	addlw	1
  1963  0135  1903               	skipnz
  1964  0136  2938               	goto	u2531
  1965  0137  07C3               	addwf	___flmul@prod+1,f
  1966  0138                     u2531:
  1967  0138  0838               	movf	??___flmul+2,w
  1968  0139  1103               	clrz
  1969  013A  1803               	skipnc
  1970  013B  3E01               	addlw	1
  1971  013C  1903               	skipnz
  1972  013D  293F               	goto	u2532
  1973  013E  07C4               	addwf	___flmul@prod+2,f
  1974  013F                     u2532:
  1975  013F  0839               	movf	??___flmul+3,w
  1976  0140  1103               	clrz
  1977  0141  1803               	skipnc
  1978  0142  3E01               	addlw	1
  1979  0143  1903               	skipnz
  1980  0144  2946               	goto	u2533
  1981  0145  07C5               	addwf	___flmul@prod+3,f
  1982  0146                     u2533:
  1983  0146                     l1927:
  1984  0146  3008               	movlw	8
  1985  0147  00B6               	movwf	??___flmul
  1986  0148                     u2545:
  1987  0148  1003               	clrc
  1988  0149  0DBD               	rlf	___flmul@grs,f
  1989  014A  0DBE               	rlf	___flmul@grs+1,f
  1990  014B  0DBF               	rlf	___flmul@grs+2,f
  1991  014C  0DC0               	rlf	___flmul@grs+3,f
  1992  014D  0BB6               	decfsz	??___flmul,f
  1993  014E  2948               	goto	u2545
  1994  014F                     l1929:
  1995  014F  082F               	movf	___flmul@b+1,w
  1996  0150  00B6               	movwf	??___flmul
  1997  0151  0836               	movf	??___flmul,w
  1998  0152  00F4               	movwf	__Umul8_16@multiplicand
  1999  0153  0832               	movf	___flmul@a,w
  2000  0154  120A  158A  26D2  120A  118A  	fcall	__Umul8_16
  2001  0159  0875               	movf	?__Umul8_16+1,w
  2002  015A  1283               	bcf	3,5	;RP0=0, select bank0
  2003  015B  1303               	bcf	3,6	;RP1=0, select bank0
  2004  015C  00C7               	movwf	___flmul@temp+1
  2005  015D  0874               	movf	?__Umul8_16,w
  2006  015E  00C6               	movwf	___flmul@temp
  2007  015F                     l1931:
  2008  015F  0846               	movf	___flmul@temp,w
  2009  0160  00B6               	movwf	??___flmul
  2010  0161  0847               	movf	___flmul@temp+1,w
  2011  0162  00B7               	movwf	??___flmul+1
  2012  0163  01B8               	clrf	??___flmul+2
  2013  0164  01B9               	clrf	??___flmul+3
  2014  0165  0836               	movf	??___flmul,w
  2015  0166  07BD               	addwf	___flmul@grs,f
  2016  0167  0837               	movf	??___flmul+1,w
  2017  0168  1103               	clrz
  2018  0169  1803               	skipnc
  2019  016A  3E01               	addlw	1
  2020  016B  1903               	skipnz
  2021  016C  296E               	goto	u2551
  2022  016D  07BE               	addwf	___flmul@grs+1,f
  2023  016E                     u2551:
  2024  016E  0838               	movf	??___flmul+2,w
  2025  016F  1103               	clrz
  2026  0170  1803               	skipnc
  2027  0171  3E01               	addlw	1
  2028  0172  1903               	skipnz
  2029  0173  2975               	goto	u2552
  2030  0174  07BF               	addwf	___flmul@grs+2,f
  2031  0175                     u2552:
  2032  0175  0839               	movf	??___flmul+3,w
  2033  0176  1103               	clrz
  2034  0177  1803               	skipnc
  2035  0178  3E01               	addlw	1
  2036  0179  1903               	skipnz
  2037  017A  297C               	goto	u2553
  2038  017B  07C0               	addwf	___flmul@grs+3,f
  2039  017C                     u2553:
  2040  017C                     l1933:
  2041  017C  082E               	movf	___flmul@b,w
  2042  017D  00B6               	movwf	??___flmul
  2043  017E  0836               	movf	??___flmul,w
  2044  017F  00F4               	movwf	__Umul8_16@multiplicand
  2045  0180  0833               	movf	___flmul@a+1,w
  2046  0181  120A  158A  26D2  120A  118A  	fcall	__Umul8_16
  2047  0186  0875               	movf	?__Umul8_16+1,w
  2048  0187  1283               	bcf	3,5	;RP0=0, select bank0
  2049  0188  1303               	bcf	3,6	;RP1=0, select bank0
  2050  0189  00C7               	movwf	___flmul@temp+1
  2051  018A  0874               	movf	?__Umul8_16,w
  2052  018B  00C6               	movwf	___flmul@temp
  2053  018C                     l1935:
  2054  018C  0846               	movf	___flmul@temp,w
  2055  018D  00B6               	movwf	??___flmul
  2056  018E  0847               	movf	___flmul@temp+1,w
  2057  018F  00B7               	movwf	??___flmul+1
  2058  0190  01B8               	clrf	??___flmul+2
  2059  0191  01B9               	clrf	??___flmul+3
  2060  0192  0836               	movf	??___flmul,w
  2061  0193  07BD               	addwf	___flmul@grs,f
  2062  0194  0837               	movf	??___flmul+1,w
  2063  0195  1103               	clrz
  2064  0196  1803               	skipnc
  2065  0197  3E01               	addlw	1
  2066  0198  1903               	skipnz
  2067  0199  299B               	goto	u2561
  2068  019A  07BE               	addwf	___flmul@grs+1,f
  2069  019B                     u2561:
  2070  019B  0838               	movf	??___flmul+2,w
  2071  019C  1103               	clrz
  2072  019D  1803               	skipnc
  2073  019E  3E01               	addlw	1
  2074  019F  1903               	skipnz
  2075  01A0  29A2               	goto	u2562
  2076  01A1  07BF               	addwf	___flmul@grs+2,f
  2077  01A2                     u2562:
  2078  01A2  0839               	movf	??___flmul+3,w
  2079  01A3  1103               	clrz
  2080  01A4  1803               	skipnc
  2081  01A5  3E01               	addlw	1
  2082  01A6  1903               	skipnz
  2083  01A7  29A9               	goto	u2563
  2084  01A8  07C0               	addwf	___flmul@grs+3,f
  2085  01A9                     u2563:
  2086  01A9                     l1937:
  2087  01A9  3008               	movlw	8
  2088  01AA  00B6               	movwf	??___flmul
  2089  01AB                     u2575:
  2090  01AB  1003               	clrc
  2091  01AC  0DBD               	rlf	___flmul@grs,f
  2092  01AD  0DBE               	rlf	___flmul@grs+1,f
  2093  01AE  0DBF               	rlf	___flmul@grs+2,f
  2094  01AF  0DC0               	rlf	___flmul@grs+3,f
  2095  01B0  0BB6               	decfsz	??___flmul,f
  2096  01B1  29AB               	goto	u2575
  2097  01B2  082E               	movf	___flmul@b,w
  2098  01B3  00B6               	movwf	??___flmul
  2099  01B4  0836               	movf	??___flmul,w
  2100  01B5  00F4               	movwf	__Umul8_16@multiplicand
  2101  01B6  0832               	movf	___flmul@a,w
  2102  01B7  120A  158A  26D2  120A  118A  	fcall	__Umul8_16
  2103  01BC  0875               	movf	?__Umul8_16+1,w
  2104  01BD  1283               	bcf	3,5	;RP0=0, select bank0
  2105  01BE  1303               	bcf	3,6	;RP1=0, select bank0
  2106  01BF  00C7               	movwf	___flmul@temp+1
  2107  01C0  0874               	movf	?__Umul8_16,w
  2108  01C1  00C6               	movwf	___flmul@temp
  2109  01C2                     l1939:
  2110  01C2  0846               	movf	___flmul@temp,w
  2111  01C3  00B6               	movwf	??___flmul
  2112  01C4  0847               	movf	___flmul@temp+1,w
  2113  01C5  00B7               	movwf	??___flmul+1
  2114  01C6  01B8               	clrf	??___flmul+2
  2115  01C7  01B9               	clrf	??___flmul+3
  2116  01C8  0836               	movf	??___flmul,w
  2117  01C9  07BD               	addwf	___flmul@grs,f
  2118  01CA  0837               	movf	??___flmul+1,w
  2119  01CB  1103               	clrz
  2120  01CC  1803               	skipnc
  2121  01CD  3E01               	addlw	1
  2122  01CE  1903               	skipnz
  2123  01CF  29D1               	goto	u2581
  2124  01D0  07BE               	addwf	___flmul@grs+1,f
  2125  01D1                     u2581:
  2126  01D1  0838               	movf	??___flmul+2,w
  2127  01D2  1103               	clrz
  2128  01D3  1803               	skipnc
  2129  01D4  3E01               	addlw	1
  2130  01D5  1903               	skipnz
  2131  01D6  29D8               	goto	u2582
  2132  01D7  07BF               	addwf	___flmul@grs+2,f
  2133  01D8                     u2582:
  2134  01D8  0839               	movf	??___flmul+3,w
  2135  01D9  1103               	clrz
  2136  01DA  1803               	skipnc
  2137  01DB  3E01               	addlw	1
  2138  01DC  1903               	skipnz
  2139  01DD  29DF               	goto	u2583
  2140  01DE  07C0               	addwf	___flmul@grs+3,f
  2141  01DF                     u2583:
  2142  01DF                     l1941:
  2143  01DF  082F               	movf	___flmul@b+1,w
  2144  01E0  00B6               	movwf	??___flmul
  2145  01E1  0836               	movf	??___flmul,w
  2146  01E2  00F4               	movwf	__Umul8_16@multiplicand
  2147  01E3  0834               	movf	___flmul@a+2,w
  2148  01E4  120A  158A  26D2  120A  118A  	fcall	__Umul8_16
  2149  01E9  0875               	movf	?__Umul8_16+1,w
  2150  01EA  1283               	bcf	3,5	;RP0=0, select bank0
  2151  01EB  1303               	bcf	3,6	;RP1=0, select bank0
  2152  01EC  00C7               	movwf	___flmul@temp+1
  2153  01ED  0874               	movf	?__Umul8_16,w
  2154  01EE  00C6               	movwf	___flmul@temp
  2155  01EF  0846               	movf	___flmul@temp,w
  2156  01F0  00B6               	movwf	??___flmul
  2157  01F1  0847               	movf	___flmul@temp+1,w
  2158  01F2  00B7               	movwf	??___flmul+1
  2159  01F3  01B8               	clrf	??___flmul+2
  2160  01F4  01B9               	clrf	??___flmul+3
  2161  01F5  0836               	movf	??___flmul,w
  2162  01F6  07C2               	addwf	___flmul@prod,f
  2163  01F7  0837               	movf	??___flmul+1,w
  2164  01F8  1103               	clrz
  2165  01F9  1803               	skipnc
  2166  01FA  3E01               	addlw	1
  2167  01FB  1903               	skipnz
  2168  01FC  29FE               	goto	u2591
  2169  01FD  07C3               	addwf	___flmul@prod+1,f
  2170  01FE                     u2591:
  2171  01FE  0838               	movf	??___flmul+2,w
  2172  01FF  1103               	clrz
  2173  0200  1803               	skipnc
  2174  0201  3E01               	addlw	1
  2175  0202  1903               	skipnz
  2176  0203  2A05               	goto	u2592
  2177  0204  07C4               	addwf	___flmul@prod+2,f
  2178  0205                     u2592:
  2179  0205  0839               	movf	??___flmul+3,w
  2180  0206  1103               	clrz
  2181  0207  1803               	skipnc
  2182  0208  3E01               	addlw	1
  2183  0209  1903               	skipnz
  2184  020A  2A0C               	goto	u2593
  2185  020B  07C5               	addwf	___flmul@prod+3,f
  2186  020C                     u2593:
  2187  020C                     l1943:
  2188  020C  0830               	movf	___flmul@b+2,w
  2189  020D  00B6               	movwf	??___flmul
  2190  020E  0836               	movf	??___flmul,w
  2191  020F  00F4               	movwf	__Umul8_16@multiplicand
  2192  0210  0833               	movf	___flmul@a+1,w
  2193  0211  120A  158A  26D2  120A  118A  	fcall	__Umul8_16
  2194  0216  0875               	movf	?__Umul8_16+1,w
  2195  0217  1283               	bcf	3,5	;RP0=0, select bank0
  2196  0218  1303               	bcf	3,6	;RP1=0, select bank0
  2197  0219  00C7               	movwf	___flmul@temp+1
  2198  021A  0874               	movf	?__Umul8_16,w
  2199  021B  00C6               	movwf	___flmul@temp
  2200  021C                     l1945:
  2201  021C  0846               	movf	___flmul@temp,w
  2202  021D  00B6               	movwf	??___flmul
  2203  021E  0847               	movf	___flmul@temp+1,w
  2204  021F  00B7               	movwf	??___flmul+1
  2205  0220  01B8               	clrf	??___flmul+2
  2206  0221  01B9               	clrf	??___flmul+3
  2207  0222  0836               	movf	??___flmul,w
  2208  0223  07C2               	addwf	___flmul@prod,f
  2209  0224  0837               	movf	??___flmul+1,w
  2210  0225  1103               	clrz
  2211  0226  1803               	skipnc
  2212  0227  3E01               	addlw	1
  2213  0228  1903               	skipnz
  2214  0229  2A2B               	goto	u2601
  2215  022A  07C3               	addwf	___flmul@prod+1,f
  2216  022B                     u2601:
  2217  022B  0838               	movf	??___flmul+2,w
  2218  022C  1103               	clrz
  2219  022D  1803               	skipnc
  2220  022E  3E01               	addlw	1
  2221  022F  1903               	skipnz
  2222  0230  2A32               	goto	u2602
  2223  0231  07C4               	addwf	___flmul@prod+2,f
  2224  0232                     u2602:
  2225  0232  0839               	movf	??___flmul+3,w
  2226  0233  1103               	clrz
  2227  0234  1803               	skipnc
  2228  0235  3E01               	addlw	1
  2229  0236  1903               	skipnz
  2230  0237  2A39               	goto	u2603
  2231  0238  07C5               	addwf	___flmul@prod+3,f
  2232  0239                     u2603:
  2233  0239  0830               	movf	___flmul@b+2,w
  2234  023A  00B6               	movwf	??___flmul
  2235  023B  0836               	movf	??___flmul,w
  2236  023C  00F4               	movwf	__Umul8_16@multiplicand
  2237  023D  0834               	movf	___flmul@a+2,w
  2238  023E  120A  158A  26D2  120A  118A  	fcall	__Umul8_16
  2239  0243  0875               	movf	?__Umul8_16+1,w
  2240  0244  1283               	bcf	3,5	;RP0=0, select bank0
  2241  0245  1303               	bcf	3,6	;RP1=0, select bank0
  2242  0246  00C7               	movwf	___flmul@temp+1
  2243  0247  0874               	movf	?__Umul8_16,w
  2244  0248  00C6               	movwf	___flmul@temp
  2245  0249                     l1947:
  2246  0249  0846               	movf	___flmul@temp,w
  2247  024A  00B6               	movwf	??___flmul
  2248  024B  0847               	movf	___flmul@temp+1,w
  2249  024C  00B7               	movwf	??___flmul+1
  2250  024D  01B8               	clrf	??___flmul+2
  2251  024E  01B9               	clrf	??___flmul+3
  2252  024F  3008               	movlw	8
  2253  0250                     u2615:
  2254  0250  1003               	clrc
  2255  0251  0DB6               	rlf	??___flmul,f
  2256  0252  0DB7               	rlf	??___flmul+1,f
  2257  0253  0DB8               	rlf	??___flmul+2,f
  2258  0254  0DB9               	rlf	??___flmul+3,f
  2259  0255                     u2610:
  2260  0255  3EFF               	addlw	-1
  2261  0256  1D03               	skipz
  2262  0257  2A50               	goto	u2615
  2263  0258  0836               	movf	??___flmul,w
  2264  0259  07C2               	addwf	___flmul@prod,f
  2265  025A  0837               	movf	??___flmul+1,w
  2266  025B  1103               	clrz
  2267  025C  1803               	skipnc
  2268  025D  3E01               	addlw	1
  2269  025E  1903               	skipnz
  2270  025F  2A61               	goto	u2621
  2271  0260  07C3               	addwf	___flmul@prod+1,f
  2272  0261                     u2621:
  2273  0261  0838               	movf	??___flmul+2,w
  2274  0262  1103               	clrz
  2275  0263  1803               	skipnc
  2276  0264  3E01               	addlw	1
  2277  0265  1903               	skipnz
  2278  0266  2A68               	goto	u2622
  2279  0267  07C4               	addwf	___flmul@prod+2,f
  2280  0268                     u2622:
  2281  0268  0839               	movf	??___flmul+3,w
  2282  0269  1103               	clrz
  2283  026A  1803               	skipnc
  2284  026B  3E01               	addlw	1
  2285  026C  1903               	skipnz
  2286  026D  2A6F               	goto	u2623
  2287  026E  07C5               	addwf	___flmul@prod+3,f
  2288  026F                     u2623:
  2289  026F                     l1949:
  2290  026F  083D               	movf	___flmul@grs,w
  2291  0270  00B6               	movwf	??___flmul
  2292  0271  083E               	movf	___flmul@grs+1,w
  2293  0272  00B7               	movwf	??___flmul+1
  2294  0273  083F               	movf	___flmul@grs+2,w
  2295  0274  00B8               	movwf	??___flmul+2
  2296  0275  0840               	movf	___flmul@grs+3,w
  2297  0276  00B9               	movwf	??___flmul+3
  2298  0277  3018               	movlw	24
  2299  0278                     u2635:
  2300  0278  1003               	clrc
  2301  0279  0CB9               	rrf	??___flmul+3,f
  2302  027A  0CB8               	rrf	??___flmul+2,f
  2303  027B  0CB7               	rrf	??___flmul+1,f
  2304  027C  0CB6               	rrf	??___flmul,f
  2305  027D                     u2630:
  2306  027D  3EFF               	addlw	-1
  2307  027E  1D03               	skipz
  2308  027F  2A78               	goto	u2635
  2309  0280  0836               	movf	??___flmul,w
  2310  0281  07C2               	addwf	___flmul@prod,f
  2311  0282  0837               	movf	??___flmul+1,w
  2312  0283  1103               	clrz
  2313  0284  1803               	skipnc
  2314  0285  3E01               	addlw	1
  2315  0286  1903               	skipnz
  2316  0287  2A89               	goto	u2641
  2317  0288  07C3               	addwf	___flmul@prod+1,f
  2318  0289                     u2641:
  2319  0289  0838               	movf	??___flmul+2,w
  2320  028A  1103               	clrz
  2321  028B  1803               	skipnc
  2322  028C  3E01               	addlw	1
  2323  028D  1903               	skipnz
  2324  028E  2A90               	goto	u2642
  2325  028F  07C4               	addwf	___flmul@prod+2,f
  2326  0290                     u2642:
  2327  0290  0839               	movf	??___flmul+3,w
  2328  0291  1103               	clrz
  2329  0292  1803               	skipnc
  2330  0293  3E01               	addlw	1
  2331  0294  1903               	skipnz
  2332  0295  2A97               	goto	u2643
  2333  0296  07C5               	addwf	___flmul@prod+3,f
  2334  0297                     u2643:
  2335  0297                     l1951:
  2336  0297  3008               	movlw	8
  2337  0298  00B6               	movwf	??___flmul
  2338  0299                     u2655:
  2339  0299  1003               	clrc
  2340  029A  0DBD               	rlf	___flmul@grs,f
  2341  029B  0DBE               	rlf	___flmul@grs+1,f
  2342  029C  0DBF               	rlf	___flmul@grs+2,f
  2343  029D  0DC0               	rlf	___flmul@grs+3,f
  2344  029E  0BB6               	decfsz	??___flmul,f
  2345  029F  2A99               	goto	u2655
  2346  02A0                     l1953:
  2347  02A0  0841               	movf	___flmul@bexp,w
  2348  02A1  073C               	addwf	___flmul@aexp,w
  2349  02A2  00B6               	movwf	??___flmul
  2350  02A3  01B7               	clrf	??___flmul+1
  2351  02A4  0DB7               	rlf	??___flmul+1,f
  2352  02A5  0836               	movf	??___flmul,w
  2353  02A6  3E82               	addlw	130
  2354  02A7  00C6               	movwf	___flmul@temp
  2355  02A8  0837               	movf	??___flmul+1,w
  2356  02A9  1803               	skipnc
  2357  02AA  3E01               	addlw	1
  2358  02AB  3EFF               	addlw	255
  2359  02AC  00C7               	movwf	___flmul@temp+1
  2360  02AD  2ACB               	goto	l1965
  2361  02AE                     l1955:
  2362  02AE  3001               	movlw	1
  2363  02AF  00B6               	movwf	??___flmul
  2364  02B0                     u2665:
  2365  02B0  1003               	clrc
  2366  02B1  0DC2               	rlf	___flmul@prod,f
  2367  02B2  0DC3               	rlf	___flmul@prod+1,f
  2368  02B3  0DC4               	rlf	___flmul@prod+2,f
  2369  02B4  0DC5               	rlf	___flmul@prod+3,f
  2370  02B5  0BB6               	decfsz	??___flmul,f
  2371  02B6  2AB0               	goto	u2665
  2372  02B7                     l1957:
  2373  02B7  1FC0               	btfss	___flmul@grs+3,7
  2374  02B8  2ABA               	goto	u2671
  2375  02B9  2ABB               	goto	u2670
  2376  02BA                     u2671:
  2377  02BA  2ABC               	goto	l1961
  2378  02BB                     u2670:
  2379  02BB                     l1959:
  2380  02BB  1442               	bsf	___flmul@prod,0
  2381  02BC                     l1961:
  2382  02BC  3001               	movlw	1
  2383  02BD  00B6               	movwf	??___flmul
  2384  02BE                     u2685:
  2385  02BE  1003               	clrc
  2386  02BF  0DBD               	rlf	___flmul@grs,f
  2387  02C0  0DBE               	rlf	___flmul@grs+1,f
  2388  02C1  0DBF               	rlf	___flmul@grs+2,f
  2389  02C2  0DC0               	rlf	___flmul@grs+3,f
  2390  02C3  0BB6               	decfsz	??___flmul,f
  2391  02C4  2ABE               	goto	u2685
  2392  02C5                     l1963:
  2393  02C5  30FF               	movlw	255
  2394  02C6  07C6               	addwf	___flmul@temp,f
  2395  02C7  1803               	skipnc
  2396  02C8  0AC7               	incf	___flmul@temp+1,f
  2397  02C9  30FF               	movlw	255
  2398  02CA  07C7               	addwf	___flmul@temp+1,f
  2399  02CB                     l1965:
  2400  02CB  1FC4               	btfss	___flmul@prod+2,7
  2401  02CC  2ACE               	goto	u2691
  2402  02CD  2ACF               	goto	u2690
  2403  02CE                     u2691:
  2404  02CE  2AAE               	goto	l1955
  2405  02CF                     u2690:
  2406  02CF                     l1967:
  2407  02CF  01BC               	clrf	___flmul@aexp
  2408  02D0                     l1969:
  2409  02D0  1FC0               	btfss	___flmul@grs+3,7
  2410  02D1  2AD3               	goto	u2701
  2411  02D2  2AD4               	goto	u2700
  2412  02D3                     u2701:
  2413  02D3  2AF0               	goto	l1977
  2414  02D4                     u2700:
  2415  02D4                     l1971:
  2416  02D4  30FF               	movlw	255
  2417  02D5  053D               	andwf	___flmul@grs,w
  2418  02D6  00B6               	movwf	??___flmul
  2419  02D7  30FF               	movlw	255
  2420  02D8  053E               	andwf	___flmul@grs+1,w
  2421  02D9  00B7               	movwf	??___flmul+1
  2422  02DA  30FF               	movlw	255
  2423  02DB  053F               	andwf	___flmul@grs+2,w
  2424  02DC  00B8               	movwf	??___flmul+2
  2425  02DD  307F               	movlw	127
  2426  02DE  0540               	andwf	___flmul@grs+3,w
  2427  02DF  00B9               	movwf	??___flmul+3
  2428  02E0  0839               	movf	??___flmul+3,w
  2429  02E1  0438               	iorwf	??___flmul+2,w
  2430  02E2  0437               	iorwf	??___flmul+1,w
  2431  02E3  0436               	iorwf	??___flmul,w
  2432  02E4  1903               	skipnz
  2433  02E5  2AE7               	goto	u2711
  2434  02E6  2AE8               	goto	u2710
  2435  02E7                     u2711:
  2436  02E7  2AEB               	goto	l584
  2437  02E8                     u2710:
  2438  02E8                     l1973:
  2439  02E8  01BC               	clrf	___flmul@aexp
  2440  02E9  0ABC               	incf	___flmul@aexp,f
  2441  02EA  2AF0               	goto	l1977
  2442  02EB                     l584:
  2443  02EB  1C42               	btfss	___flmul@prod,0
  2444  02EC  2AEE               	goto	u2721
  2445  02ED  2AEF               	goto	u2720
  2446  02EE                     u2721:
  2447  02EE  2AF0               	goto	l1977
  2448  02EF                     u2720:
  2449  02EF  2AE8               	goto	l1973
  2450  02F0                     l1977:
  2451  02F0  083C               	movf	___flmul@aexp,w
  2452  02F1  1903               	btfsc	3,2
  2453  02F2  2AF4               	goto	u2731
  2454  02F3  2AF5               	goto	u2730
  2455  02F4                     u2731:
  2456  02F4  2B26               	goto	l1987
  2457  02F5                     u2730:
  2458  02F5                     l1979:
  2459  02F5  3001               	movlw	1
  2460  02F6  07C2               	addwf	___flmul@prod,f
  2461  02F7  3000               	movlw	0
  2462  02F8  1803               	skipnc
  2463  02F9  3001               	movlw	1
  2464  02FA  07C3               	addwf	___flmul@prod+1,f
  2465  02FB  3000               	movlw	0
  2466  02FC  1803               	skipnc
  2467  02FD  3001               	movlw	1
  2468  02FE  07C4               	addwf	___flmul@prod+2,f
  2469  02FF  3000               	movlw	0
  2470  0300  1803               	skipnc
  2471  0301  3001               	movlw	1
  2472  0302  07C5               	addwf	___flmul@prod+3,f
  2473  0303                     l1981:
  2474  0303  1C45               	btfss	___flmul@prod+3,0
  2475  0304  2B06               	goto	u2741
  2476  0305  2B07               	goto	u2740
  2477  0306                     u2741:
  2478  0306  2B26               	goto	l1987
  2479  0307                     u2740:
  2480  0307                     l1983:
  2481  0307  0842               	movf	___flmul@prod,w
  2482  0308  00B6               	movwf	??___flmul
  2483  0309  0843               	movf	___flmul@prod+1,w
  2484  030A  00B7               	movwf	??___flmul+1
  2485  030B  0844               	movf	___flmul@prod+2,w
  2486  030C  00B8               	movwf	??___flmul+2
  2487  030D  0845               	movf	___flmul@prod+3,w
  2488  030E  00B9               	movwf	??___flmul+3
  2489  030F  3001               	movlw	1
  2490  0310  00BA               	movwf	??___flmul+4
  2491  0311                     u2755:
  2492  0311  0D39               	rlf	??___flmul+3,w
  2493  0312  0CB9               	rrf	??___flmul+3,f
  2494  0313  0CB8               	rrf	??___flmul+2,f
  2495  0314  0CB7               	rrf	??___flmul+1,f
  2496  0315  0CB6               	rrf	??___flmul,f
  2497  0316                     u2750:
  2498  0316  0BBA               	decfsz	??___flmul+4,f
  2499  0317  2B11               	goto	u2755
  2500  0318  0839               	movf	??___flmul+3,w
  2501  0319  00C5               	movwf	___flmul@prod+3
  2502  031A  0838               	movf	??___flmul+2,w
  2503  031B  00C4               	movwf	___flmul@prod+2
  2504  031C  0837               	movf	??___flmul+1,w
  2505  031D  00C3               	movwf	___flmul@prod+1
  2506  031E  0836               	movf	??___flmul,w
  2507  031F  00C2               	movwf	___flmul@prod
  2508  0320                     l1985:
  2509  0320  3001               	movlw	1
  2510  0321  07C6               	addwf	___flmul@temp,f
  2511  0322  1803               	skipnc
  2512  0323  0AC7               	incf	___flmul@temp+1,f
  2513  0324  3000               	movlw	0
  2514  0325  07C7               	addwf	___flmul@temp+1,f
  2515  0326                     l1987:
  2516  0326  0847               	movf	___flmul@temp+1,w
  2517  0327  3A80               	xorlw	128
  2518  0328  00FF               	movwf	btemp+1
  2519  0329  3080               	movlw	128
  2520  032A  027F               	subwf	btemp+1,w
  2521  032B  1D03               	skipz
  2522  032C  2B2F               	goto	u2765
  2523  032D  30FF               	movlw	255
  2524  032E  0246               	subwf	___flmul@temp,w
  2525  032F                     u2765:
  2526  032F  1C03               	skipc
  2527  0330  2B32               	goto	u2761
  2528  0331  2B33               	goto	u2760
  2529  0332                     u2761:
  2530  0332  2B3E               	goto	l1991
  2531  0333                     u2760:
  2532  0333                     l1989:
  2533  0333  307F               	movlw	127
  2534  0334  1283               	bcf	3,5	;RP0=0, select bank0
  2535  0335  1303               	bcf	3,6	;RP1=0, select bank0
  2536  0336  00C5               	movwf	___flmul@prod+3
  2537  0337  3080               	movlw	128
  2538  0338  00C4               	movwf	___flmul@prod+2
  2539  0339  3000               	movlw	0
  2540  033A  00C3               	movwf	___flmul@prod+1
  2541  033B  3000               	movlw	0
  2542  033C  00C2               	movwf	___flmul@prod
  2543  033D  2B73               	goto	l590
  2544  033E                     l1991:
  2545  033E  1283               	bcf	3,5	;RP0=0, select bank0
  2546  033F  1303               	bcf	3,6	;RP1=0, select bank0
  2547  0340  0847               	movf	___flmul@temp+1,w
  2548  0341  3A80               	xorlw	128
  2549  0342  00FF               	movwf	btemp+1
  2550  0343  3080               	movlw	128
  2551  0344  027F               	subwf	btemp+1,w
  2552  0345  1D03               	skipz
  2553  0346  2B49               	goto	u2775
  2554  0347  3001               	movlw	1
  2555  0348  0246               	subwf	___flmul@temp,w
  2556  0349                     u2775:
  2557  0349  1803               	skipnc
  2558  034A  2B4C               	goto	u2771
  2559  034B  2B4D               	goto	u2770
  2560  034C                     u2771:
  2561  034C  2B59               	goto	l1997
  2562  034D                     u2770:
  2563  034D                     l1993:
  2564  034D  3000               	movlw	0
  2565  034E  1283               	bcf	3,5	;RP0=0, select bank0
  2566  034F  1303               	bcf	3,6	;RP1=0, select bank0
  2567  0350  00C5               	movwf	___flmul@prod+3
  2568  0351  3000               	movlw	0
  2569  0352  00C4               	movwf	___flmul@prod+2
  2570  0353  3000               	movlw	0
  2571  0354  00C3               	movwf	___flmul@prod+1
  2572  0355  3000               	movlw	0
  2573  0356  00C2               	movwf	___flmul@prod
  2574  0357                     l1995:
  2575  0357  01BB               	clrf	___flmul@sign
  2576  0358  2B73               	goto	l590
  2577  0359                     l1997:
  2578  0359  1283               	bcf	3,5	;RP0=0, select bank0
  2579  035A  1303               	bcf	3,6	;RP1=0, select bank0
  2580  035B  0846               	movf	___flmul@temp,w
  2581  035C  00B6               	movwf	??___flmul
  2582  035D  0836               	movf	??___flmul,w
  2583  035E  00C1               	movwf	___flmul@bexp
  2584  035F  30FF               	movlw	255
  2585  0360  05C2               	andwf	___flmul@prod,f
  2586  0361  30FF               	movlw	255
  2587  0362  05C3               	andwf	___flmul@prod+1,f
  2588  0363  307F               	movlw	127
  2589  0364  05C4               	andwf	___flmul@prod+2,f
  2590  0365  3000               	movlw	0
  2591  0366  05C5               	andwf	___flmul@prod+3,f
  2592  0367                     l1999:
  2593  0367  1C41               	btfss	___flmul@bexp,0
  2594  0368  2B6A               	goto	u2781
  2595  0369  2B6B               	goto	u2780
  2596  036A                     u2781:
  2597  036A  2B6C               	goto	l2003
  2598  036B                     u2780:
  2599  036B                     l2001:
  2600  036B  17C4               	bsf	___flmul@prod+2,7
  2601  036C                     l2003:
  2602  036C  0841               	movf	___flmul@bexp,w
  2603  036D  00B6               	movwf	??___flmul
  2604  036E  1003               	clrc
  2605  036F  0C36               	rrf	??___flmul,w
  2606  0370  00B7               	movwf	??___flmul+1
  2607  0371  0837               	movf	??___flmul+1,w
  2608  0372  00C5               	movwf	___flmul@prod+3
  2609  0373                     l590:
  2610  0373  083B               	movf	___flmul@sign,w
  2611  0374  00B6               	movwf	??___flmul
  2612  0375  0836               	movf	??___flmul,w
  2613  0376  04C5               	iorwf	___flmul@prod+3,f
  2614  0377                     l2005:
  2615  0377  0845               	movf	___flmul@prod+3,w
  2616  0378  00B1               	movwf	?___flmul+3
  2617  0379  0844               	movf	___flmul@prod+2,w
  2618  037A  00B0               	movwf	?___flmul+2
  2619  037B  0843               	movf	___flmul@prod+1,w
  2620  037C  00AF               	movwf	?___flmul+1
  2621  037D  0842               	movf	___flmul@prod,w
  2622  037E  00AE               	movwf	?___flmul
  2623  037F                     l578:
  2624  037F  0008               	return
  2625  0380                     __end_of___flmul:
  2626                           
  2627                           	psect	text6
  2628  0ED2                     __ptext6:	
  2629 ;; *************** function __Umul8_16 *****************
  2630 ;; Defined at:
  2631 ;;		line 4 in file "C:\Program Files\Microchip\xc8\v2.31\pic\sources\c90\common\Umul8_16.c"
  2632 ;; Parameters:    Size  Location     Type
  2633 ;;  multiplier      1    wreg     unsigned char 
  2634 ;;  multiplicand    1    4[COMMON] unsigned char 
  2635 ;; Auto vars:     Size  Location     Type
  2636 ;;  multiplier      1    6[BANK0 ] unsigned char 
  2637 ;;  word_mpld       2    4[BANK0 ] unsigned int 
  2638 ;;  product         2    2[BANK0 ] unsigned int 
  2639 ;; Return value:  Size  Location     Type
  2640 ;;                  2    4[COMMON] unsigned int 
  2641 ;; Registers used:
  2642 ;;		wreg, status,2, status,0
  2643 ;; Tracked objects:
  2644 ;;		On entry : 0/0
  2645 ;;		On exit  : 0/0
  2646 ;;		Unchanged: 0/0
  2647 ;; Data sizes:     COMMON   BANK0   BANK1   BANK3   BANK2
  2648 ;;      Params:         2       0       0       0       0
  2649 ;;      Locals:         0       5       0       0       0
  2650 ;;      Temps:          0       2       0       0       0
  2651 ;;      Totals:         2       7       0       0       0
  2652 ;;Total ram usage:        9 bytes
  2653 ;; Hardware stack levels used:    1
  2654 ;; Hardware stack levels required when called:    1
  2655 ;; This function calls:
  2656 ;;		Nothing
  2657 ;; This function is called by:
  2658 ;;		___flmul
  2659 ;; This function uses a non-reentrant model
  2660 ;;
  2661                           
  2662                           
  2663                           ;psect for function __Umul8_16
  2664  0ED2                     __Umul8_16:
  2665                           
  2666                           ;incstack = 0
  2667                           ; Regs used in __Umul8_16: [wreg+status,2+status,0]
  2668                           ;__Umul8_16@multiplier stored from wreg
  2669  0ED2  1283               	bcf	3,5	;RP0=0, select bank0
  2670  0ED3  1303               	bcf	3,6	;RP1=0, select bank0
  2671  0ED4  00A6               	movwf	__Umul8_16@multiplier
  2672  0ED5                     l1819:
  2673  0ED5  01A2               	clrf	__Umul8_16@product
  2674  0ED6  01A3               	clrf	__Umul8_16@product+1
  2675  0ED7                     l1821:
  2676  0ED7  0874               	movf	__Umul8_16@multiplicand,w
  2677  0ED8  00A0               	movwf	??__Umul8_16
  2678  0ED9  01A1               	clrf	??__Umul8_16+1
  2679  0EDA  0820               	movf	??__Umul8_16,w
  2680  0EDB  00A4               	movwf	__Umul8_16@word_mpld
  2681  0EDC  0821               	movf	??__Umul8_16+1,w
  2682  0EDD  00A5               	movwf	__Umul8_16@word_mpld+1
  2683  0EDE                     l1823:
  2684  0EDE  1C26               	btfss	__Umul8_16@multiplier,0
  2685  0EDF  2EE1               	goto	u2291
  2686  0EE0  2EE2               	goto	u2290
  2687  0EE1                     u2291:
  2688  0EE1  2EE8               	goto	l597
  2689  0EE2                     u2290:
  2690  0EE2                     l1825:
  2691  0EE2  0824               	movf	__Umul8_16@word_mpld,w
  2692  0EE3  07A2               	addwf	__Umul8_16@product,f
  2693  0EE4  1803               	skipnc
  2694  0EE5  0AA3               	incf	__Umul8_16@product+1,f
  2695  0EE6  0825               	movf	__Umul8_16@word_mpld+1,w
  2696  0EE7  07A3               	addwf	__Umul8_16@product+1,f
  2697  0EE8                     l597:
  2698  0EE8  3001               	movlw	1
  2699  0EE9                     u2305:
  2700  0EE9  1003               	clrc
  2701  0EEA  0DA4               	rlf	__Umul8_16@word_mpld,f
  2702  0EEB  0DA5               	rlf	__Umul8_16@word_mpld+1,f
  2703  0EEC  3EFF               	addlw	-1
  2704  0EED  1D03               	skipz
  2705  0EEE  2EE9               	goto	u2305
  2706  0EEF  1003               	clrc
  2707  0EF0  0CA6               	rrf	__Umul8_16@multiplier,f
  2708  0EF1                     l1827:
  2709  0EF1  0826               	movf	__Umul8_16@multiplier,w
  2710  0EF2  1D03               	btfss	3,2
  2711  0EF3  2EF5               	goto	u2311
  2712  0EF4  2EF6               	goto	u2310
  2713  0EF5                     u2311:
  2714  0EF5  2EDE               	goto	l1823
  2715  0EF6                     u2310:
  2716  0EF6                     l1829:
  2717  0EF6  0823               	movf	__Umul8_16@product+1,w
  2718  0EF7  00F5               	movwf	?__Umul8_16+1
  2719  0EF8  0822               	movf	__Umul8_16@product,w
  2720  0EF9  00F4               	movwf	?__Umul8_16
  2721  0EFA                     l599:
  2722  0EFA  0008               	return
  2723  0EFB                     __end_of__Umul8_16:
  2724                           
  2725                           	psect	text7
  2726  0380                     __ptext7:	
  2727 ;; *************** function ___fladd *****************
  2728 ;; Defined at:
  2729 ;;		line 10 in file "C:\Program Files\Microchip\xc8\v2.31\pic\sources\c90\common\sprcadd.c"
  2730 ;; Parameters:    Size  Location     Type
  2731 ;;  b               4   40[BANK0 ] unsigned int 
  2732 ;;  a               4   44[BANK0 ] unsigned int 
  2733 ;; Auto vars:     Size  Location     Type
  2734 ;;  grs             1   59[BANK0 ] unsigned char 
  2735 ;;  bexp            1   58[BANK0 ] unsigned char 
  2736 ;;  aexp            1   57[BANK0 ] unsigned char 
  2737 ;;  signs           1   56[BANK0 ] unsigned char 
  2738 ;; Return value:  Size  Location     Type
  2739 ;;                  4   40[BANK0 ] unsigned char 
  2740 ;; Registers used:
  2741 ;;		wreg, status,2, status,0, btemp+1
  2742 ;; Tracked objects:
  2743 ;;		On entry : 0/0
  2744 ;;		On exit  : 0/0
  2745 ;;		Unchanged: 0/0
  2746 ;; Data sizes:     COMMON   BANK0   BANK1   BANK3   BANK2
  2747 ;;      Params:         0       8       0       0       0
  2748 ;;      Locals:         0       4       0       0       0
  2749 ;;      Temps:          0       8       0       0       0
  2750 ;;      Totals:         0      20       0       0       0
  2751 ;;Total ram usage:       20 bytes
  2752 ;; Hardware stack levels used:    1
  2753 ;; Hardware stack levels required when called:    1
  2754 ;; This function calls:
  2755 ;;		Nothing
  2756 ;; This function is called by:
  2757 ;;		_ANALOGICOS
  2758 ;; This function uses a non-reentrant model
  2759 ;;
  2760                           
  2761                           
  2762                           ;psect for function ___fladd
  2763  0380                     ___fladd:
  2764  0380                     l1307:	
  2765                           ;incstack = 0
  2766                           ; Regs used in ___fladd: [wreg+status,2+status,0+btemp+1]
  2767                           
  2768  0380  1283               	bcf	3,5	;RP0=0, select bank0
  2769  0381  1303               	bcf	3,6	;RP1=0, select bank0
  2770  0382  084B               	movf	___fladd@b+3,w
  2771  0383  3980               	andlw	128
  2772  0384  00D0               	movwf	??___fladd
  2773  0385  0850               	movf	??___fladd,w
  2774  0386  00D8               	movwf	___fladd@signs
  2775  0387                     l1309:
  2776  0387  084B               	movf	___fladd@b+3,w
  2777  0388  00D0               	movwf	??___fladd
  2778  0389  0750               	addwf	??___fladd,w
  2779  038A  00D1               	movwf	??___fladd+1
  2780  038B  0851               	movf	??___fladd+1,w
  2781  038C  00DA               	movwf	___fladd@bexp
  2782  038D                     l1311:
  2783  038D  1FCA               	btfss	___fladd@b+2,7
  2784  038E  2B90               	goto	u1281
  2785  038F  2B91               	goto	u1280
  2786  0390                     u1281:
  2787  0390  2B92               	goto	l1315
  2788  0391                     u1280:
  2789  0391                     l1313:
  2790  0391  145A               	bsf	___fladd@bexp,0
  2791  0392                     l1315:
  2792  0392  085A               	movf	___fladd@bexp,w
  2793  0393  1903               	btfsc	3,2
  2794  0394  2B96               	goto	u1291
  2795  0395  2B97               	goto	u1290
  2796  0396                     u1291:
  2797  0396  2BA7               	goto	l1325
  2798  0397                     u1290:
  2799  0397                     l1317:
  2800  0397  0A5A               	incf	___fladd@bexp,w
  2801  0398  1D03               	btfss	3,2
  2802  0399  2B9B               	goto	u1301
  2803  039A  2B9C               	goto	u1300
  2804  039B                     u1301:
  2805  039B  2BA4               	goto	l1321
  2806  039C                     u1300:
  2807  039C                     l1319:
  2808  039C  3000               	movlw	0
  2809  039D  00CB               	movwf	___fladd@b+3
  2810  039E  3000               	movlw	0
  2811  039F  00CA               	movwf	___fladd@b+2
  2812  03A0  3000               	movlw	0
  2813  03A1  00C9               	movwf	___fladd@b+1
  2814  03A2  3000               	movlw	0
  2815  03A3  00C8               	movwf	___fladd@b
  2816  03A4                     l1321:
  2817  03A4  17CA               	bsf	___fladd@b+2,7
  2818  03A5                     l1323:
  2819  03A5  01CB               	clrf	___fladd@b+3
  2820  03A6  2BAF               	goto	l1327
  2821  03A7                     l1325:
  2822  03A7  3000               	movlw	0
  2823  03A8  00CB               	movwf	___fladd@b+3
  2824  03A9  3000               	movlw	0
  2825  03AA  00CA               	movwf	___fladd@b+2
  2826  03AB  3000               	movlw	0
  2827  03AC  00C9               	movwf	___fladd@b+1
  2828  03AD  3000               	movlw	0
  2829  03AE  00C8               	movwf	___fladd@b
  2830  03AF                     l1327:
  2831  03AF  084F               	movf	___fladd@a+3,w
  2832  03B0  3980               	andlw	128
  2833  03B1  00D0               	movwf	??___fladd
  2834  03B2  0850               	movf	??___fladd,w
  2835  03B3  00D9               	movwf	___fladd@aexp
  2836  03B4                     l1329:
  2837  03B4  0859               	movf	___fladd@aexp,w
  2838  03B5  0658               	xorwf	___fladd@signs,w
  2839  03B6  1903               	skipnz
  2840  03B7  2BB9               	goto	u1311
  2841  03B8  2BBA               	goto	u1310
  2842  03B9                     u1311:
  2843  03B9  2BBB               	goto	l1333
  2844  03BA                     u1310:
  2845  03BA                     l1331:
  2846  03BA  1758               	bsf	___fladd@signs,6
  2847  03BB                     l1333:
  2848  03BB  084F               	movf	___fladd@a+3,w
  2849  03BC  00D0               	movwf	??___fladd
  2850  03BD  0750               	addwf	??___fladd,w
  2851  03BE  00D1               	movwf	??___fladd+1
  2852  03BF  0851               	movf	??___fladd+1,w
  2853  03C0  00D9               	movwf	___fladd@aexp
  2854  03C1                     l1335:
  2855  03C1  1FCE               	btfss	___fladd@a+2,7
  2856  03C2  2BC4               	goto	u1321
  2857  03C3  2BC5               	goto	u1320
  2858  03C4                     u1321:
  2859  03C4  2BC6               	goto	l1339
  2860  03C5                     u1320:
  2861  03C5                     l1337:
  2862  03C5  1459               	bsf	___fladd@aexp,0
  2863  03C6                     l1339:
  2864  03C6  0859               	movf	___fladd@aexp,w
  2865  03C7  1903               	btfsc	3,2
  2866  03C8  2BCA               	goto	u1331
  2867  03C9  2BCB               	goto	u1330
  2868  03CA                     u1331:
  2869  03CA  2BDB               	goto	l1349
  2870  03CB                     u1330:
  2871  03CB                     l1341:
  2872  03CB  0A59               	incf	___fladd@aexp,w
  2873  03CC  1D03               	btfss	3,2
  2874  03CD  2BCF               	goto	u1341
  2875  03CE  2BD0               	goto	u1340
  2876  03CF                     u1341:
  2877  03CF  2BD8               	goto	l1345
  2878  03D0                     u1340:
  2879  03D0                     l1343:
  2880  03D0  3000               	movlw	0
  2881  03D1  00CF               	movwf	___fladd@a+3
  2882  03D2  3000               	movlw	0
  2883  03D3  00CE               	movwf	___fladd@a+2
  2884  03D4  3000               	movlw	0
  2885  03D5  00CD               	movwf	___fladd@a+1
  2886  03D6  3000               	movlw	0
  2887  03D7  00CC               	movwf	___fladd@a
  2888  03D8                     l1345:
  2889  03D8  17CE               	bsf	___fladd@a+2,7
  2890  03D9                     l1347:
  2891  03D9  01CF               	clrf	___fladd@a+3
  2892  03DA  2BE3               	goto	l482
  2893  03DB                     l1349:
  2894  03DB  3000               	movlw	0
  2895  03DC  00CF               	movwf	___fladd@a+3
  2896  03DD  3000               	movlw	0
  2897  03DE  00CE               	movwf	___fladd@a+2
  2898  03DF  3000               	movlw	0
  2899  03E0  00CD               	movwf	___fladd@a+1
  2900  03E1  3000               	movlw	0
  2901  03E2  00CC               	movwf	___fladd@a
  2902  03E3                     l482:
  2903  03E3  085A               	movf	___fladd@bexp,w
  2904  03E4  0259               	subwf	___fladd@aexp,w
  2905  03E5  1803               	skipnc
  2906  03E6  2BE8               	goto	u1351
  2907  03E7  2BE9               	goto	u1350
  2908  03E8                     u1351:
  2909  03E8  2C2D               	goto	l1385
  2910  03E9                     u1350:
  2911  03E9                     l1351:
  2912  03E9  1F58               	btfss	___fladd@signs,6
  2913  03EA  2BEC               	goto	u1361
  2914  03EB  2BED               	goto	u1360
  2915  03EC                     u1361:
  2916  03EC  2BF1               	goto	l1355
  2917  03ED                     u1360:
  2918  03ED                     l1353:
  2919  03ED  3080               	movlw	128
  2920  03EE  00D0               	movwf	??___fladd
  2921  03EF  0850               	movf	??___fladd,w
  2922  03F0  06D8               	xorwf	___fladd@signs,f
  2923  03F1                     l1355:
  2924  03F1  085A               	movf	___fladd@bexp,w
  2925  03F2  00D0               	movwf	??___fladd
  2926  03F3  0850               	movf	??___fladd,w
  2927  03F4  00DB               	movwf	___fladd@grs
  2928  03F5                     l1357:
  2929  03F5  0859               	movf	___fladd@aexp,w
  2930  03F6  00D0               	movwf	??___fladd
  2931  03F7  0850               	movf	??___fladd,w
  2932  03F8  00DA               	movwf	___fladd@bexp
  2933  03F9                     l1359:
  2934  03F9  085B               	movf	___fladd@grs,w
  2935  03FA  00D0               	movwf	??___fladd
  2936  03FB  0850               	movf	??___fladd,w
  2937  03FC  00D9               	movwf	___fladd@aexp
  2938  03FD                     l1361:
  2939  03FD  0848               	movf	___fladd@b,w
  2940  03FE  00D0               	movwf	??___fladd
  2941  03FF  0850               	movf	??___fladd,w
  2942  0400  00DB               	movwf	___fladd@grs
  2943  0401                     l1363:
  2944  0401  084C               	movf	___fladd@a,w
  2945  0402  00D0               	movwf	??___fladd
  2946  0403  0850               	movf	??___fladd,w
  2947  0404  00C8               	movwf	___fladd@b
  2948  0405                     l1365:
  2949  0405  085B               	movf	___fladd@grs,w
  2950  0406  00D0               	movwf	??___fladd
  2951  0407  0850               	movf	??___fladd,w
  2952  0408  00CC               	movwf	___fladd@a
  2953  0409                     l1367:
  2954  0409  0849               	movf	___fladd@b+1,w
  2955  040A  00D0               	movwf	??___fladd
  2956  040B  0850               	movf	??___fladd,w
  2957  040C  00DB               	movwf	___fladd@grs
  2958  040D                     l1369:
  2959  040D  084D               	movf	___fladd@a+1,w
  2960  040E  00D0               	movwf	??___fladd
  2961  040F  0850               	movf	??___fladd,w
  2962  0410  00C9               	movwf	___fladd@b+1
  2963  0411                     l1371:
  2964  0411  085B               	movf	___fladd@grs,w
  2965  0412  00D0               	movwf	??___fladd
  2966  0413  0850               	movf	??___fladd,w
  2967  0414  00CD               	movwf	___fladd@a+1
  2968  0415                     l1373:
  2969  0415  084A               	movf	___fladd@b+2,w
  2970  0416  00D0               	movwf	??___fladd
  2971  0417  0850               	movf	??___fladd,w
  2972  0418  00DB               	movwf	___fladd@grs
  2973  0419                     l1375:
  2974  0419  084E               	movf	___fladd@a+2,w
  2975  041A  00D0               	movwf	??___fladd
  2976  041B  0850               	movf	??___fladd,w
  2977  041C  00CA               	movwf	___fladd@b+2
  2978  041D                     l1377:
  2979  041D  085B               	movf	___fladd@grs,w
  2980  041E  00D0               	movwf	??___fladd
  2981  041F  0850               	movf	??___fladd,w
  2982  0420  00CE               	movwf	___fladd@a+2
  2983  0421                     l1379:
  2984  0421  084B               	movf	___fladd@b+3,w
  2985  0422  00D0               	movwf	??___fladd
  2986  0423  0850               	movf	??___fladd,w
  2987  0424  00DB               	movwf	___fladd@grs
  2988  0425                     l1381:
  2989  0425  084F               	movf	___fladd@a+3,w
  2990  0426  00D0               	movwf	??___fladd
  2991  0427  0850               	movf	??___fladd,w
  2992  0428  00CB               	movwf	___fladd@b+3
  2993  0429                     l1383:
  2994  0429  085B               	movf	___fladd@grs,w
  2995  042A  00D0               	movwf	??___fladd
  2996  042B  0850               	movf	??___fladd,w
  2997  042C  00CF               	movwf	___fladd@a+3
  2998  042D                     l1385:
  2999  042D  01DB               	clrf	___fladd@grs
  3000  042E                     l1387:
  3001  042E  0859               	movf	___fladd@aexp,w
  3002  042F  00D0               	movwf	??___fladd
  3003  0430  01D1               	clrf	??___fladd+1
  3004  0431  0851               	movf	??___fladd+1,w
  3005  0432  00D3               	movwf	??___fladd+3
  3006  0433  085A               	movf	___fladd@bexp,w
  3007  0434  0250               	subwf	??___fladd,w
  3008  0435  00D2               	movwf	??___fladd+2
  3009  0436  1C03               	skipc
  3010  0437  03D3               	decf	??___fladd+3,f
  3011  0438  0853               	movf	??___fladd+3,w
  3012  0439  3A80               	xorlw	128
  3013  043A  00FF               	movwf	btemp+1
  3014  043B  3080               	movlw	128
  3015  043C  027F               	subwf	btemp+1,w
  3016  043D  1D03               	skipz
  3017  043E  2C41               	goto	u1375
  3018  043F  301A               	movlw	26
  3019  0440  0252               	subwf	??___fladd+2,w
  3020  0441                     u1375:
  3021  0441  1C03               	skipc
  3022  0442  2C44               	goto	u1371
  3023  0443  2C45               	goto	u1370
  3024  0444                     u1371:
  3025  0444  2C82               	goto	l1403
  3026  0445                     u1370:
  3027  0445                     l1389:
  3028  0445  1283               	bcf	3,5	;RP0=0, select bank0
  3029  0446  1303               	bcf	3,6	;RP1=0, select bank0
  3030  0447  084B               	movf	___fladd@b+3,w
  3031  0448  044A               	iorwf	___fladd@b+2,w
  3032  0449  0449               	iorwf	___fladd@b+1,w
  3033  044A  0448               	iorwf	___fladd@b,w
  3034  044B  1D03               	skipz
  3035  044C  2C4E               	goto	u1381
  3036  044D  2C50               	goto	u1380
  3037  044E                     u1381:
  3038  044E  3001               	movlw	1
  3039  044F  2C51               	goto	u1390
  3040  0450                     u1380:
  3041  0450  3000               	movlw	0
  3042  0451                     u1390:
  3043  0451  00D0               	movwf	??___fladd
  3044  0452  0850               	movf	??___fladd,w
  3045  0453  00DB               	movwf	___fladd@grs
  3046  0454  3000               	movlw	0
  3047  0455  00CB               	movwf	___fladd@b+3
  3048  0456  3000               	movlw	0
  3049  0457  00CA               	movwf	___fladd@b+2
  3050  0458  3000               	movlw	0
  3051  0459  00C9               	movwf	___fladd@b+1
  3052  045A  3000               	movlw	0
  3053  045B  00C8               	movwf	___fladd@b
  3054  045C  0859               	movf	___fladd@aexp,w
  3055  045D  00D0               	movwf	??___fladd
  3056  045E  0850               	movf	??___fladd,w
  3057  045F  00DA               	movwf	___fladd@bexp
  3058  0460  2C8A               	goto	l486
  3059  0461                     l488:
  3060  0461  1C5B               	btfss	___fladd@grs,0
  3061  0462  2C64               	goto	u1401
  3062  0463  2C65               	goto	u1400
  3063  0464                     u1401:
  3064  0464  2C6E               	goto	l1393
  3065  0465                     u1400:
  3066  0465                     l1391:
  3067  0465  085B               	movf	___fladd@grs,w
  3068  0466  00D0               	movwf	??___fladd
  3069  0467  1003               	clrc
  3070  0468  0C50               	rrf	??___fladd,w
  3071  0469  3801               	iorlw	1
  3072  046A  00D1               	movwf	??___fladd+1
  3073  046B  0851               	movf	??___fladd+1,w
  3074  046C  00DB               	movwf	___fladd@grs
  3075  046D  2C70               	goto	l1395
  3076  046E                     l1393:
  3077  046E  1003               	clrc
  3078  046F  0CDB               	rrf	___fladd@grs,f
  3079  0470                     l1395:
  3080  0470  1C48               	btfss	___fladd@b,0
  3081  0471  2C73               	goto	u1411
  3082  0472  2C74               	goto	u1410
  3083  0473                     u1411:
  3084  0473  2C75               	goto	l1399
  3085  0474                     u1410:
  3086  0474                     l1397:
  3087  0474  17DB               	bsf	___fladd@grs,7
  3088  0475                     l1399:
  3089  0475  3001               	movlw	1
  3090  0476  00D0               	movwf	??___fladd
  3091  0477                     u1425:
  3092  0477  0D4B               	rlf	___fladd@b+3,w
  3093  0478  0CCB               	rrf	___fladd@b+3,f
  3094  0479  0CCA               	rrf	___fladd@b+2,f
  3095  047A  0CC9               	rrf	___fladd@b+1,f
  3096  047B  0CC8               	rrf	___fladd@b,f
  3097  047C  0BD0               	decfsz	??___fladd& (0+127),f
  3098  047D  2C77               	goto	u1425
  3099  047E                     l1401:
  3100  047E  3001               	movlw	1
  3101  047F  00D0               	movwf	??___fladd
  3102  0480  0850               	movf	??___fladd,w
  3103  0481  07DA               	addwf	___fladd@bexp,f
  3104  0482                     l1403:
  3105  0482  1283               	bcf	3,5	;RP0=0, select bank0
  3106  0483  1303               	bcf	3,6	;RP1=0, select bank0
  3107  0484  0859               	movf	___fladd@aexp,w
  3108  0485  025A               	subwf	___fladd@bexp,w
  3109  0486  1C03               	skipc
  3110  0487  2C89               	goto	u1431
  3111  0488  2C8A               	goto	u1430
  3112  0489                     u1431:
  3113  0489  2C61               	goto	l488
  3114  048A                     u1430:
  3115  048A                     l486:
  3116  048A  1B58               	btfsc	___fladd@signs,6
  3117  048B  2C8D               	goto	u1441
  3118  048C  2C8E               	goto	u1440
  3119  048D                     u1441:
  3120  048D  2CD9               	goto	l1429
  3121  048E                     u1440:
  3122  048E                     l1405:
  3123  048E  085A               	movf	___fladd@bexp,w
  3124  048F  1D03               	btfss	3,2
  3125  0490  2C92               	goto	u1451
  3126  0491  2C93               	goto	u1450
  3127  0492                     u1451:
  3128  0492  2C9C               	goto	l1411
  3129  0493                     u1450:
  3130  0493                     l1407:
  3131  0493  3000               	movlw	0
  3132  0494  00CB               	movwf	?___fladd+3
  3133  0495  3000               	movlw	0
  3134  0496  00CA               	movwf	?___fladd+2
  3135  0497  3000               	movlw	0
  3136  0498  00C9               	movwf	?___fladd+1
  3137  0499  3000               	movlw	0
  3138  049A  00C8               	movwf	?___fladd
  3139  049B  2E07               	goto	l495
  3140  049C                     l1411:
  3141  049C  084C               	movf	___fladd@a,w
  3142  049D  07C8               	addwf	___fladd@b,f
  3143  049E  084D               	movf	___fladd@a+1,w
  3144  049F  1103               	clrz
  3145  04A0  1803               	skipnc
  3146  04A1  3E01               	addlw	1
  3147  04A2  1903               	skipnz
  3148  04A3  2CA5               	goto	u1461
  3149  04A4  07C9               	addwf	___fladd@b+1,f
  3150  04A5                     u1461:
  3151  04A5  084E               	movf	___fladd@a+2,w
  3152  04A6  1103               	clrz
  3153  04A7  1803               	skipnc
  3154  04A8  3E01               	addlw	1
  3155  04A9  1903               	skipnz
  3156  04AA  2CAC               	goto	u1462
  3157  04AB  07CA               	addwf	___fladd@b+2,f
  3158  04AC                     u1462:
  3159  04AC  084F               	movf	___fladd@a+3,w
  3160  04AD  1103               	clrz
  3161  04AE  1803               	skipnc
  3162  04AF  3E01               	addlw	1
  3163  04B0  1903               	skipnz
  3164  04B1  2CB3               	goto	u1463
  3165  04B2  07CB               	addwf	___fladd@b+3,f
  3166  04B3                     u1463:
  3167  04B3                     l1413:
  3168  04B3  1C4B               	btfss	___fladd@b+3,0
  3169  04B4  2CB6               	goto	u1471
  3170  04B5  2CB7               	goto	u1470
  3171  04B6                     u1471:
  3172  04B6  2D8D               	goto	l1463
  3173  04B7                     u1470:
  3174  04B7                     l1415:
  3175  04B7  1C5B               	btfss	___fladd@grs,0
  3176  04B8  2CBA               	goto	u1481
  3177  04B9  2CBB               	goto	u1480
  3178  04BA                     u1481:
  3179  04BA  2CC4               	goto	l1419
  3180  04BB                     u1480:
  3181  04BB                     l1417:
  3182  04BB  085B               	movf	___fladd@grs,w
  3183  04BC  00D0               	movwf	??___fladd
  3184  04BD  1003               	clrc
  3185  04BE  0C50               	rrf	??___fladd,w
  3186  04BF  3801               	iorlw	1
  3187  04C0  00D1               	movwf	??___fladd+1
  3188  04C1  0851               	movf	??___fladd+1,w
  3189  04C2  00DB               	movwf	___fladd@grs
  3190  04C3  2CC6               	goto	l1421
  3191  04C4                     l1419:
  3192  04C4  1003               	clrc
  3193  04C5  0CDB               	rrf	___fladd@grs,f
  3194  04C6                     l1421:
  3195  04C6  1C48               	btfss	___fladd@b,0
  3196  04C7  2CC9               	goto	u1491
  3197  04C8  2CCA               	goto	u1490
  3198  04C9                     u1491:
  3199  04C9  2CCB               	goto	l1425
  3200  04CA                     u1490:
  3201  04CA                     l1423:
  3202  04CA  17DB               	bsf	___fladd@grs,7
  3203  04CB                     l1425:
  3204  04CB  3001               	movlw	1
  3205  04CC  00D0               	movwf	??___fladd
  3206  04CD                     u1505:
  3207  04CD  0D4B               	rlf	___fladd@b+3,w
  3208  04CE  0CCB               	rrf	___fladd@b+3,f
  3209  04CF  0CCA               	rrf	___fladd@b+2,f
  3210  04D0  0CC9               	rrf	___fladd@b+1,f
  3211  04D1  0CC8               	rrf	___fladd@b,f
  3212  04D2  0BD0               	decfsz	??___fladd& (0+127),f
  3213  04D3  2CCD               	goto	u1505
  3214  04D4                     l1427:
  3215  04D4  3001               	movlw	1
  3216  04D5  00D0               	movwf	??___fladd
  3217  04D6  0850               	movf	??___fladd,w
  3218  04D7  07DA               	addwf	___fladd@bexp,f
  3219  04D8  2D8D               	goto	l1463
  3220  04D9                     l1429:
  3221  04D9  084B               	movf	___fladd@b+3,w
  3222  04DA  3A80               	xorlw	128
  3223  04DB  00FF               	movwf	btemp+1
  3224  04DC  084F               	movf	___fladd@a+3,w
  3225  04DD  3A80               	xorlw	128
  3226  04DE  027F               	subwf	btemp+1,w
  3227  04DF  1D03               	skipz
  3228  04E0  2CEB               	goto	u1513
  3229  04E1  084E               	movf	___fladd@a+2,w
  3230  04E2  024A               	subwf	___fladd@b+2,w
  3231  04E3  1D03               	skipz
  3232  04E4  2CEB               	goto	u1513
  3233  04E5  084D               	movf	___fladd@a+1,w
  3234  04E6  0249               	subwf	___fladd@b+1,w
  3235  04E7  1D03               	skipz
  3236  04E8  2CEB               	goto	u1513
  3237  04E9  084C               	movf	___fladd@a,w
  3238  04EA  0248               	subwf	___fladd@b,w
  3239  04EB                     u1513:
  3240  04EB  1803               	skipnc
  3241  04EC  2CEE               	goto	u1511
  3242  04ED  2CEF               	goto	u1510
  3243  04EE                     u1511:
  3244  04EE  2D47               	goto	l1439
  3245  04EF                     u1510:
  3246  04EF                     l1431:
  3247  04EF  30FF               	movlw	255
  3248  04F0  00D0               	movwf	??___fladd
  3249  04F1  30FF               	movlw	255
  3250  04F2  00D1               	movwf	??___fladd+1
  3251  04F3  30FF               	movlw	255
  3252  04F4  00D2               	movwf	??___fladd+2
  3253  04F5  30FF               	movlw	255
  3254  04F6  00D3               	movwf	??___fladd+3
  3255  04F7  084C               	movf	___fladd@a,w
  3256  04F8  00D4               	movwf	??___fladd+4
  3257  04F9  084D               	movf	___fladd@a+1,w
  3258  04FA  00D5               	movwf	??___fladd+5
  3259  04FB  084E               	movf	___fladd@a+2,w
  3260  04FC  00D6               	movwf	??___fladd+6
  3261  04FD  084F               	movf	___fladd@a+3,w
  3262  04FE  00D7               	movwf	??___fladd+7
  3263  04FF  0848               	movf	___fladd@b,w
  3264  0500  02D4               	subwf	??___fladd+4,f
  3265  0501  0849               	movf	___fladd@b+1,w
  3266  0502  1C03               	skipc
  3267  0503  0F49               	incfsz	___fladd@b+1,w
  3268  0504  2D06               	goto	u1521
  3269  0505  2D07               	goto	u1522
  3270  0506                     u1521:
  3271  0506  02D5               	subwf	??___fladd+5,f
  3272  0507                     u1522:
  3273  0507  084A               	movf	___fladd@b+2,w
  3274  0508  1C03               	skipc
  3275  0509  0F4A               	incfsz	___fladd@b+2,w
  3276  050A  2D0C               	goto	u1523
  3277  050B  2D0D               	goto	u1524
  3278  050C                     u1523:
  3279  050C  02D6               	subwf	??___fladd+6,f
  3280  050D                     u1524:
  3281  050D  084B               	movf	___fladd@b+3,w
  3282  050E  1C03               	skipc
  3283  050F  0F4B               	incfsz	___fladd@b+3,w
  3284  0510  2D12               	goto	u1525
  3285  0511  2D13               	goto	u1526
  3286  0512                     u1525:
  3287  0512  02D7               	subwf	??___fladd+7,f
  3288  0513                     u1526:
  3289  0513  0854               	movf	??___fladd+4,w
  3290  0514  07D0               	addwf	??___fladd,f
  3291  0515  0855               	movf	??___fladd+5,w
  3292  0516  1803               	skipnc
  3293  0517  0F55               	incfsz	??___fladd+5,w
  3294  0518  2D1A               	goto	u1530
  3295  0519  2D1B               	goto	u1531
  3296  051A                     u1530:
  3297  051A  07D1               	addwf	??___fladd+1,f
  3298  051B                     u1531:
  3299  051B  0856               	movf	??___fladd+6,w
  3300  051C  1803               	skipnc
  3301  051D  0F56               	incfsz	??___fladd+6,w
  3302  051E  2D20               	goto	u1532
  3303  051F  2D21               	goto	u1533
  3304  0520                     u1532:
  3305  0520  07D2               	addwf	??___fladd+2,f
  3306  0521                     u1533:
  3307  0521  0857               	movf	??___fladd+7,w
  3308  0522  1803               	skipnc
  3309  0523  0A57               	incf	??___fladd+7,w
  3310  0524  07D3               	addwf	??___fladd+3,f
  3311  0525  0853               	movf	??___fladd+3,w
  3312  0526  00CB               	movwf	___fladd@b+3
  3313  0527  0852               	movf	??___fladd+2,w
  3314  0528  00CA               	movwf	___fladd@b+2
  3315  0529  0851               	movf	??___fladd+1,w
  3316  052A  00C9               	movwf	___fladd@b+1
  3317  052B  0850               	movf	??___fladd,w
  3318  052C  00C8               	movwf	___fladd@b
  3319  052D                     l1433:
  3320  052D  3080               	movlw	128
  3321  052E  00D0               	movwf	??___fladd
  3322  052F  0850               	movf	??___fladd,w
  3323  0530  06D8               	xorwf	___fladd@signs,f
  3324  0531  09DB               	comf	___fladd@grs,f
  3325  0532  0ADB               	incf	___fladd@grs,f
  3326  0533                     l1435:
  3327  0533  085B               	movf	___fladd@grs,w
  3328  0534  1D03               	btfss	3,2
  3329  0535  2D37               	goto	u1541
  3330  0536  2D38               	goto	u1540
  3331  0537                     u1541:
  3332  0537  2D55               	goto	l503
  3333  0538                     u1540:
  3334  0538                     l1437:
  3335  0538  3001               	movlw	1
  3336  0539  07C8               	addwf	___fladd@b,f
  3337  053A  3000               	movlw	0
  3338  053B  1803               	skipnc
  3339  053C  3001               	movlw	1
  3340  053D  07C9               	addwf	___fladd@b+1,f
  3341  053E  3000               	movlw	0
  3342  053F  1803               	skipnc
  3343  0540  3001               	movlw	1
  3344  0541  07CA               	addwf	___fladd@b+2,f
  3345  0542  3000               	movlw	0
  3346  0543  1803               	skipnc
  3347  0544  3001               	movlw	1
  3348  0545  07CB               	addwf	___fladd@b+3,f
  3349  0546  2D55               	goto	l503
  3350  0547                     l1439:
  3351  0547  084C               	movf	___fladd@a,w
  3352  0548  02C8               	subwf	___fladd@b,f
  3353  0549  084D               	movf	___fladd@a+1,w
  3354  054A  1C03               	skipc
  3355  054B  0F4D               	incfsz	___fladd@a+1,w
  3356  054C  02C9               	subwf	___fladd@b+1,f
  3357  054D  084E               	movf	___fladd@a+2,w
  3358  054E  1C03               	skipc
  3359  054F  0F4E               	incfsz	___fladd@a+2,w
  3360  0550  02CA               	subwf	___fladd@b+2,f
  3361  0551  084F               	movf	___fladd@a+3,w
  3362  0552  1C03               	skipc
  3363  0553  0F4F               	incfsz	___fladd@a+3,w
  3364  0554  02CB               	subwf	___fladd@b+3,f
  3365  0555                     l503:
  3366  0555  084B               	movf	___fladd@b+3,w
  3367  0556  044A               	iorwf	___fladd@b+2,w
  3368  0557  0449               	iorwf	___fladd@b+1,w
  3369  0558  0448               	iorwf	___fladd@b,w
  3370  0559  1D03               	skipz
  3371  055A  2D5C               	goto	u1551
  3372  055B  2D5D               	goto	u1550
  3373  055C                     u1551:
  3374  055C  2D89               	goto	l1461
  3375  055D                     u1550:
  3376  055D                     l1441:
  3377  055D  085B               	movf	___fladd@grs,w
  3378  055E  1D03               	btfss	3,2
  3379  055F  2D61               	goto	u1561
  3380  0560  2D62               	goto	u1560
  3381  0561                     u1561:
  3382  0561  2D89               	goto	l1461
  3383  0562                     u1560:
  3384  0562                     l1443:
  3385  0562  3000               	movlw	0
  3386  0563  00CB               	movwf	?___fladd+3
  3387  0564  3000               	movlw	0
  3388  0565  00CA               	movwf	?___fladd+2
  3389  0566  3000               	movlw	0
  3390  0567  00C9               	movwf	?___fladd+1
  3391  0568  3000               	movlw	0
  3392  0569  00C8               	movwf	?___fladd
  3393  056A  2E07               	goto	l495
  3394  056B                     l1447:
  3395  056B  3001               	movlw	1
  3396  056C  00D0               	movwf	??___fladd
  3397  056D                     u1575:
  3398  056D  1003               	clrc
  3399  056E  0DC8               	rlf	___fladd@b,f
  3400  056F  0DC9               	rlf	___fladd@b+1,f
  3401  0570  0DCA               	rlf	___fladd@b+2,f
  3402  0571  0DCB               	rlf	___fladd@b+3,f
  3403  0572  0BD0               	decfsz	??___fladd,f
  3404  0573  2D6D               	goto	u1575
  3405  0574                     l1449:
  3406  0574  1FDB               	btfss	___fladd@grs,7
  3407  0575  2D77               	goto	u1581
  3408  0576  2D78               	goto	u1580
  3409  0577                     u1581:
  3410  0577  2D79               	goto	l507
  3411  0578                     u1580:
  3412  0578                     l1451:
  3413  0578  1448               	bsf	___fladd@b,0
  3414  0579                     l507:
  3415  0579  1C5B               	btfss	___fladd@grs,0
  3416  057A  2D7C               	goto	u1591
  3417  057B  2D7D               	goto	u1590
  3418  057C                     u1591:
  3419  057C  2D80               	goto	l1455
  3420  057D                     u1590:
  3421  057D                     l1453:
  3422  057D  1403               	setc
  3423  057E  0DDB               	rlf	___fladd@grs,f
  3424  057F  2D82               	goto	l1457
  3425  0580                     l1455:
  3426  0580  1003               	clrc
  3427  0581  0DDB               	rlf	___fladd@grs,f
  3428  0582                     l1457:
  3429  0582  085A               	movf	___fladd@bexp,w
  3430  0583  1903               	btfsc	3,2
  3431  0584  2D86               	goto	u1601
  3432  0585  2D87               	goto	u1600
  3433  0586                     u1601:
  3434  0586  2D89               	goto	l1461
  3435  0587                     u1600:
  3436  0587                     l1459:
  3437  0587  3001               	movlw	1
  3438  0588  02DA               	subwf	___fladd@bexp,f
  3439  0589                     l1461:
  3440  0589  1FCA               	btfss	___fladd@b+2,7
  3441  058A  2D8C               	goto	u1611
  3442  058B  2D8D               	goto	u1610
  3443  058C                     u1611:
  3444  058C  2D6B               	goto	l1447
  3445  058D                     u1610:
  3446  058D                     l1463:
  3447  058D  01D9               	clrf	___fladd@aexp
  3448  058E                     l1465:
  3449  058E  1FDB               	btfss	___fladd@grs,7
  3450  058F  2D91               	goto	u1621
  3451  0590  2D92               	goto	u1620
  3452  0591                     u1621:
  3453  0591  2DA0               	goto	l1473
  3454  0592                     u1620:
  3455  0592                     l1467:
  3456  0592  085B               	movf	___fladd@grs,w
  3457  0593  397F               	andlw	127
  3458  0594  1903               	btfsc	3,2
  3459  0595  2D97               	goto	u1631
  3460  0596  2D98               	goto	u1630
  3461  0597                     u1631:
  3462  0597  2D9B               	goto	l513
  3463  0598                     u1630:
  3464  0598                     l1469:
  3465  0598  01D9               	clrf	___fladd@aexp
  3466  0599  0AD9               	incf	___fladd@aexp,f
  3467  059A  2DA0               	goto	l1473
  3468  059B                     l513:
  3469  059B  1C48               	btfss	___fladd@b,0
  3470  059C  2D9E               	goto	u1641
  3471  059D  2D9F               	goto	u1640
  3472  059E                     u1641:
  3473  059E  2DA0               	goto	l1473
  3474  059F                     u1640:
  3475  059F  2D98               	goto	l1469
  3476  05A0                     l1473:
  3477  05A0  0859               	movf	___fladd@aexp,w
  3478  05A1  1903               	btfsc	3,2
  3479  05A2  2DA4               	goto	u1651
  3480  05A3  2DA5               	goto	u1650
  3481  05A4                     u1651:
  3482  05A4  2DD9               	goto	l516
  3483  05A5                     u1650:
  3484  05A5                     l1475:
  3485  05A5  3001               	movlw	1
  3486  05A6  07C8               	addwf	___fladd@b,f
  3487  05A7  3000               	movlw	0
  3488  05A8  1803               	skipnc
  3489  05A9  3001               	movlw	1
  3490  05AA  07C9               	addwf	___fladd@b+1,f
  3491  05AB  3000               	movlw	0
  3492  05AC  1803               	skipnc
  3493  05AD  3001               	movlw	1
  3494  05AE  07CA               	addwf	___fladd@b+2,f
  3495  05AF  3000               	movlw	0
  3496  05B0  1803               	skipnc
  3497  05B1  3001               	movlw	1
  3498  05B2  07CB               	addwf	___fladd@b+3,f
  3499  05B3                     l1477:
  3500  05B3  1C4B               	btfss	___fladd@b+3,0
  3501  05B4  2DB6               	goto	u1661
  3502  05B5  2DB7               	goto	u1660
  3503  05B6                     u1661:
  3504  05B6  2DD9               	goto	l516
  3505  05B7                     u1660:
  3506  05B7                     l1479:
  3507  05B7  0848               	movf	___fladd@b,w
  3508  05B8  00D0               	movwf	??___fladd
  3509  05B9  0849               	movf	___fladd@b+1,w
  3510  05BA  00D1               	movwf	??___fladd+1
  3511  05BB  084A               	movf	___fladd@b+2,w
  3512  05BC  00D2               	movwf	??___fladd+2
  3513  05BD  084B               	movf	___fladd@b+3,w
  3514  05BE  00D3               	movwf	??___fladd+3
  3515  05BF  3001               	movlw	1
  3516  05C0  00D4               	movwf	??___fladd+4
  3517  05C1                     u1675:
  3518  05C1  0D53               	rlf	??___fladd+3,w
  3519  05C2  0CD3               	rrf	??___fladd+3,f
  3520  05C3  0CD2               	rrf	??___fladd+2,f
  3521  05C4  0CD1               	rrf	??___fladd+1,f
  3522  05C5  0CD0               	rrf	??___fladd,f
  3523  05C6                     u1670:
  3524  05C6  0BD4               	decfsz	??___fladd+4,f
  3525  05C7  2DC1               	goto	u1675
  3526  05C8  0853               	movf	??___fladd+3,w
  3527  05C9  00CB               	movwf	___fladd@b+3
  3528  05CA  0852               	movf	??___fladd+2,w
  3529  05CB  00CA               	movwf	___fladd@b+2
  3530  05CC  0851               	movf	??___fladd+1,w
  3531  05CD  00C9               	movwf	___fladd@b+1
  3532  05CE  0850               	movf	??___fladd,w
  3533  05CF  00C8               	movwf	___fladd@b
  3534  05D0  0A5A               	incf	___fladd@bexp,w
  3535  05D1  1903               	btfsc	3,2
  3536  05D2  2DD4               	goto	u1681
  3537  05D3  2DD5               	goto	u1680
  3538  05D4                     u1681:
  3539  05D4  2DD9               	goto	l516
  3540  05D5                     u1680:
  3541  05D5                     l1481:
  3542  05D5  3001               	movlw	1
  3543  05D6  00D0               	movwf	??___fladd
  3544  05D7  0850               	movf	??___fladd,w
  3545  05D8  07DA               	addwf	___fladd@bexp,f
  3546  05D9                     l516:
  3547  05D9  0A5A               	incf	___fladd@bexp,w
  3548  05DA  1903               	btfsc	3,2
  3549  05DB  2DDD               	goto	u1691
  3550  05DC  2DDE               	goto	u1690
  3551  05DD                     u1691:
  3552  05DD  2DE3               	goto	l1485
  3553  05DE                     u1690:
  3554  05DE                     l1483:
  3555  05DE  085A               	movf	___fladd@bexp,w
  3556  05DF  1D03               	btfss	3,2
  3557  05E0  2DE2               	goto	u1701
  3558  05E1  2DE3               	goto	u1700
  3559  05E2                     u1701:
  3560  05E2  2DF1               	goto	l1491
  3561  05E3                     u1700:
  3562  05E3                     l1485:
  3563  05E3  3000               	movlw	0
  3564  05E4  00CB               	movwf	___fladd@b+3
  3565  05E5  3000               	movlw	0
  3566  05E6  00CA               	movwf	___fladd@b+2
  3567  05E7  3000               	movlw	0
  3568  05E8  00C9               	movwf	___fladd@b+1
  3569  05E9  3000               	movlw	0
  3570  05EA  00C8               	movwf	___fladd@b
  3571  05EB                     l1487:
  3572  05EB  085A               	movf	___fladd@bexp,w
  3573  05EC  1D03               	btfss	3,2
  3574  05ED  2DEF               	goto	u1711
  3575  05EE  2DF0               	goto	u1710
  3576  05EF                     u1711:
  3577  05EF  2DF1               	goto	l1491
  3578  05F0                     u1710:
  3579  05F0                     l1489:
  3580  05F0  01D8               	clrf	___fladd@signs
  3581  05F1                     l1491:
  3582  05F1  1C5A               	btfss	___fladd@bexp,0
  3583  05F2  2DF4               	goto	u1721
  3584  05F3  2DF5               	goto	u1720
  3585  05F4                     u1721:
  3586  05F4  2DF7               	goto	l1495
  3587  05F5                     u1720:
  3588  05F5                     l1493:
  3589  05F5  17CA               	bsf	___fladd@b+2,7
  3590  05F6  2DFB               	goto	l524
  3591  05F7                     l1495:
  3592  05F7  307F               	movlw	127
  3593  05F8  00D0               	movwf	??___fladd
  3594  05F9  0850               	movf	??___fladd,w
  3595  05FA  05CA               	andwf	___fladd@b+2,f
  3596  05FB                     l524:
  3597  05FB  085A               	movf	___fladd@bexp,w
  3598  05FC  00D0               	movwf	??___fladd
  3599  05FD  1003               	clrc
  3600  05FE  0C50               	rrf	??___fladd,w
  3601  05FF  00D1               	movwf	??___fladd+1
  3602  0600  0851               	movf	??___fladd+1,w
  3603  0601  00CB               	movwf	___fladd@b+3
  3604  0602                     l1497:
  3605  0602  1FD8               	btfss	___fladd@signs,7
  3606  0603  2E05               	goto	u1731
  3607  0604  2E06               	goto	u1730
  3608  0605                     u1731:
  3609  0605  2E07               	goto	l525
  3610  0606                     u1730:
  3611  0606                     l1499:
  3612  0606  17CB               	bsf	___fladd@b+3,7
  3613  0607                     l525:
  3614  0607                     l495:
  3615  0607  0008               	return
  3616  0608                     __end_of___fladd:
  3617                           
  3618                           	psect	text8
  3619  07C3                     __ptext8:	
  3620 ;; *************** function _isr *****************
  3621 ;; Defined at:
  3622 ;;		line 43 in file "main.c"
  3623 ;; Parameters:    Size  Location     Type
  3624 ;;		None
  3625 ;; Auto vars:     Size  Location     Type
  3626 ;;		None
  3627 ;; Return value:  Size  Location     Type
  3628 ;;                  1    wreg      void 
  3629 ;; Registers used:
  3630 ;;		wreg
  3631 ;; Tracked objects:
  3632 ;;		On entry : 0/0
  3633 ;;		On exit  : 0/0
  3634 ;;		Unchanged: 0/0
  3635 ;; Data sizes:     COMMON   BANK0   BANK1   BANK3   BANK2
  3636 ;;      Params:         0       0       0       0       0
  3637 ;;      Locals:         0       0       0       0       0
  3638 ;;      Temps:          4       0       0       0       0
  3639 ;;      Totals:         4       0       0       0       0
  3640 ;;Total ram usage:        4 bytes
  3641 ;; Hardware stack levels used:    1
  3642 ;; This function calls:
  3643 ;;		Nothing
  3644 ;; This function is called by:
  3645 ;;		Interrupt level 1
  3646 ;; This function uses a non-reentrant model
  3647 ;;
  3648                           
  3649                           
  3650                           ;psect for function _isr
  3651  07C3                     _isr:
  3652  07C3                     i1l1779:
  3653                           
  3654                           ;main.c: 44:     while(1){
  3655  07C3  138B               	bcf	11,7	;volatile
  3656                           
  3657                           ;main.c: 45: 
  3658  07C4  1D0B               	btfss	11,2	;volatile
  3659  07C5  2FC7               	goto	u225_21
  3660  07C6  2FC8               	goto	u225_20
  3661  07C7                     u225_21:
  3662  07C7  2FE8               	goto	i1l79
  3663  07C8                     u225_20:
  3664  07C8                     i1l1781:
  3665                           
  3666                           ;main.c: 46:         if (PWM3>= 50){
  3667  07C8  30E7               	movlw	231
  3668  07C9  1283               	bcf	3,5	;RP0=0, select bank0
  3669  07CA  1303               	bcf	3,6	;RP1=0, select bank0
  3670  07CB  0081               	movwf	1	;volatile
  3671                           
  3672                           ;main.c: 47:           PWM3 = 0;}
  3673  07CC  3001               	movlw	1
  3674  07CD  07ED               	addwf	_PWM3,f
  3675  07CE  1803               	skipnc
  3676  07CF  0AEE               	incf	_PWM3+1,f
  3677  07D0  3000               	movlw	0
  3678  07D1  07EE               	addwf	_PWM3+1,f
  3679                           
  3680                           ;main.c: 49: 
  3681  07D2  086E               	movf	_PWM3+1,w
  3682  07D3  3A80               	xorlw	128
  3683  07D4  00F0               	movwf	??_isr
  3684  07D5  086C               	movf	_POT0+1,w
  3685  07D6  3A80               	xorlw	128
  3686  07D7  0270               	subwf	??_isr,w
  3687  07D8  1D03               	skipz
  3688  07D9  2FDC               	goto	u226_25
  3689  07DA  086B               	movf	_POT0,w
  3690  07DB  026D               	subwf	_PWM3,w
  3691  07DC                     u226_25:
  3692  07DC  1C03               	skipc
  3693  07DD  2FDF               	goto	u226_21
  3694  07DE  2FE0               	goto	u226_20
  3695  07DF                     u226_21:
  3696  07DF  2FE4               	goto	i1l80
  3697  07E0                     u226_20:
  3698  07E0                     i1l1783:
  3699                           
  3700                           ;main.c: 50:     }
  3701  07E0  1283               	bcf	3,5	;RP0=0, select bank0
  3702  07E1  1303               	bcf	3,6	;RP1=0, select bank0
  3703  07E2  1187               	bcf	7,3	;volatile
  3704                           
  3705                           ;main.c: 52: }
  3706  07E3  2FE7               	goto	i1l81
  3707  07E4                     i1l80:	
  3708                           ;main.c: 53: void setup(void){
  3709                           
  3710                           
  3711                           ;main.c: 54: 
  3712  07E4  1283               	bcf	3,5	;RP0=0, select bank0
  3713  07E5  1303               	bcf	3,6	;RP1=0, select bank0
  3714  07E6  1587               	bsf	7,3	;volatile
  3715  07E7                     i1l81:	
  3716                           ;main.c: 55:     ANSEL = 0B00000111;
  3717                           
  3718                           
  3719                           ;main.c: 58:     TRISA = 0B00000111;
  3720  07E7  110B               	bcf	11,2	;volatile
  3721  07E8                     i1l79:	
  3722                           ;main.c: 59:     TRISC = 0X00;
  3723                           
  3724                           
  3725                           ;main.c: 60:     TRISD = 0X00;
  3726  07E8  1283               	bcf	3,5	;RP0=0, select bank0
  3727  07E9  1303               	bcf	3,6	;RP1=0, select bank0
  3728  07EA  1F0C               	btfss	12,6	;volatile
  3729  07EB  2FED               	goto	u227_21
  3730  07EC  2FEE               	goto	u227_20
  3731  07ED                     u227_21:
  3732  07ED  2FF6               	goto	i1l1789
  3733  07EE                     u227_20:
  3734  07EE                     i1l1785:
  3735                           
  3736                           ;main.c: 61:     TRISE = 0X00;
  3737  07EE  081E               	movf	30,w	;volatile
  3738  07EF  00F0               	movwf	??_isr
  3739  07F0  01F1               	clrf	??_isr+1
  3740  07F1  0870               	movf	??_isr,w
  3741  07F2  00E9               	movwf	_VALORAN
  3742  07F3  0871               	movf	??_isr+1,w
  3743  07F4  00EA               	movwf	_VALORAN+1
  3744  07F5                     i1l1787:
  3745                           
  3746                           ;main.c: 64:     PORTA = 0X00;
  3747  07F5  130C               	bcf	12,6	;volatile
  3748  07F6                     i1l1789:
  3749                           
  3750                           ;main.c: 67:     PORTE = 0X00;
  3751  07F6  178B               	bsf	11,7	;volatile
  3752  07F7                     i1l83:
  3753  07F7  0873               	movf	??_isr+3,w
  3754  07F8  008A               	movwf	10
  3755  07F9  0E72               	swapf	??_isr+2,w
  3756  07FA  0083               	movwf	3
  3757  07FB  0EFE               	swapf	btemp,f
  3758  07FC  0E7E               	swapf	btemp,w
  3759  07FD  0009               	retfie
  3760  07FE                     __end_of_isr:
  3761  007E                     btemp	set	126	;btemp
  3762  007E                     wtemp0	set	126
  3763                           
  3764                           	psect	intentry
  3765  0004                     __pintentry:	
  3766                           ;incstack = 0
  3767                           ; Regs used in _isr: [wreg]
  3768                           
  3769  0004                     interrupt_function:
  3770  007E                     saved_w	set	btemp
  3771  0004  00FE               	movwf	btemp
  3772  0005  0E03               	swapf	3,w
  3773  0006  00F2               	movwf	??_isr+2
  3774  0007  080A               	movf	10,w
  3775  0008  00F3               	movwf	??_isr+3
  3776  0009  120A  118A  2FC3   	ljmp	_isr
  3777                           
  3778                           	psect	config
  3779                           
  3780                           ;Config register CONFIG1 @ 0x2007
  3781                           ;	Oscillator Selection bits
  3782                           ;	FOSC = INTRC_CLKOUT, INTOSC oscillator: CLKOUT function on RA6/OSC2/CLKOUT pin, I/O fu
      +                          nction on RA7/OSC1/CLKIN
  3783                           ;	Watchdog Timer Enable bit
  3784                           ;	WDTE = OFF, WDT disabled and can be enabled by SWDTEN bit of the WDTCON register
  3785                           ;	Power-up Timer Enable bit
  3786                           ;	PWRTE = OFF, PWRT disabled
  3787                           ;	RE3/MCLR pin function select bit
  3788                           ;	MCLRE = OFF, RE3/MCLR pin function is digital input, MCLR internally tied to VDD
  3789                           ;	Code Protection bit
  3790                           ;	CP = OFF, Program memory code protection is disabled
  3791                           ;	Data Code Protection bit
  3792                           ;	CPD = OFF, Data memory code protection is disabled
  3793                           ;	Brown Out Reset Selection bits
  3794                           ;	BOREN = OFF, BOR disabled
  3795                           ;	Internal External Switchover bit
  3796                           ;	IESO = OFF, Internal/External Switchover mode is disabled
  3797                           ;	Fail-Safe Clock Monitor Enabled bit
  3798                           ;	FCMEN = OFF, Fail-Safe Clock Monitor is disabled
  3799                           ;	Low Voltage Programming Enable bit
  3800                           ;	LVP = OFF, RB3 pin has digital I/O, HV on MCLR must be used for programming
  3801                           ;	In-Circuit Debugger Mode bit
  3802                           ;	DEBUG = 0x1, unprogrammed default
  3803  2007                     	org	8199
  3804  2007  20D5               	dw	8405
  3805                           
  3806                           ;Config register CONFIG2 @ 0x2008
  3807                           ;	Brown-out Reset Selection bit
  3808                           ;	BOR4V = BOR40V, Brown-out Reset set to 4.0V
  3809                           ;	Flash Program Memory Self Write Enable bits
  3810                           ;	WRT = OFF, Write protection off
  3811  2008                     	org	8200
  3812  2008  3FFF               	dw	16383

Data Sizes:
    Strings     0
    Constant    0
    Data        0
    BSS         10
    Persistent  0
    Stack       0

Auto Spaces:
    Space          Size  Autos    Used
    COMMON           14      6      10
    BANK0            80     73      79
    BANK1            80      3       3
    BANK3            96      0       0
    BANK2            96      0       0

Pointer List with Targets:

    None.

Critical Paths under _main in COMMON

    ___flmul->__Umul8_16

Critical Paths under _isr in COMMON

    None.

Critical Paths under _main in BANK0

    _main->_ANALOGICOS
    _ANALOGICOS->___fltol
    ___fltol->___fladd
    ___flmul->___xxtofl
    ___fladd->___flmul

Critical Paths under _isr in BANK0

    None.

Critical Paths under _main in BANK1

    _main->_ANALOGICOS

Critical Paths under _isr in BANK1

    None.

Critical Paths under _main in BANK3

    None.

Critical Paths under _isr in BANK3

    None.

Critical Paths under _main in BANK2

    None.

Critical Paths under _isr in BANK2

    None.

Call Graph Tables:

 ---------------------------------------------------------------------------------
 (Depth) Function   	        Calls       Base Space   Used Autos Params    Refs
 ---------------------------------------------------------------------------------
 (0) _main                                                 0     0      0    7815
                         _ANALOGICOS
                              _setup
 ---------------------------------------------------------------------------------
 (1) _setup                                                1     1      0       0
                                              4 COMMON     1     1      0
 ---------------------------------------------------------------------------------
 (1) _ANALOGICOS                                           5     3      2    7815
                                             71 BANK0      2     0      2
                                              0 BANK1      3     3      0
                            ___fladd
                            ___flmul
                            ___fltol
                           ___xxtofl
 ---------------------------------------------------------------------------------
 (2) ___xxtofl                                            14    10      4     746
                                              0 BANK0     14    10      4
 ---------------------------------------------------------------------------------
 (2) ___fltol                                             11     7      4     607
                                             60 BANK0     11     7      4
                            ___fladd (ARG)
                            ___flmul (ARG)
                           ___xxtofl (ARG)
 ---------------------------------------------------------------------------------
 (2) ___flmul                                             26    18      8    3713
                                             14 BANK0     26    18      8
                          __Umul8_16
                           ___xxtofl (ARG)
 ---------------------------------------------------------------------------------
 (3) __Umul8_16                                            9     7      2     980
                                              4 COMMON     2     0      2
                                              0 BANK0      7     7      0
 ---------------------------------------------------------------------------------
 (2) ___fladd                                             20    12      8    2566
                                             40 BANK0     20    12      8
                            ___flmul (ARG)
                           ___xxtofl (ARG)
 ---------------------------------------------------------------------------------
 Estimated maximum stack depth 3
 ---------------------------------------------------------------------------------
 (Depth) Function   	        Calls       Base Space   Used Autos Params    Refs
 ---------------------------------------------------------------------------------
 (4) _isr                                                  4     4      0       0
                                              0 COMMON     4     4      0
 ---------------------------------------------------------------------------------
 Estimated maximum stack depth 4
 ---------------------------------------------------------------------------------

 Call Graph Graphs:

 _main (ROOT)
   _ANALOGICOS
     ___fladd
       ___flmul (ARG)
         __Umul8_16
         ___xxtofl (ARG)
       ___xxtofl (ARG)
     ___flmul
       __Umul8_16
       ___xxtofl (ARG)
     ___fltol
       ___fladd (ARG)
         ___flmul (ARG)
           __Umul8_16
           ___xxtofl (ARG)
         ___xxtofl (ARG)
       ___flmul (ARG)
         __Umul8_16
         ___xxtofl (ARG)
       ___xxtofl (ARG)
     ___xxtofl
   _setup

 _isr (ROOT)

 Address spaces:
Name               Size   Autos  Total    Cost      Usage
BITCOMMON            E      0       0       0        0.0%
EEDATA             100      0       0       0        0.0%
NULL                 0      0       0       0        0.0%
CODE                 0      0       0       0        0.0%
COMMON               E      6       A       1       71.4%
BITSFR0              0      0       0       1        0.0%
SFR0                 0      0       0       1        0.0%
BITSFR1              0      0       0       2        0.0%
SFR1                 0      0       0       2        0.0%
STACK                0      0       0       2        0.0%
ABS                  0      0      5C       3        0.0%
BITBANK0            50      0       0       4        0.0%
BITSFR3              0      0       0       4        0.0%
SFR3                 0      0       0       4        0.0%
BANK0               50     49      4F       5       98.8%
BITSFR2              0      0       0       5        0.0%
SFR2                 0      0       0       5        0.0%
BITBANK1            50      0       0       6        0.0%
BANK1               50      3       3       7        3.8%
BITBANK3            60      0       0       8        0.0%
BANK3               60      0       0       9        0.0%
BITBANK2            60      0       0      10        0.0%
BANK2               60      0       0      11        0.0%
DATA                 0      0      5C      12        0.0%


Microchip Technology PIC Macro Assembler V2.31 build 20201012212115 
Symbol Table                                                                                   Fri May 21 00:03:18 2021

                     l95 0F43      __Umul8_16@word_mpld 0024                      l103 0746  
                    l503 0555                      l513 059B                      l507 0579  
                    l524 05FB                      l516 05D9                      l525 0607  
                    l382 07AD                      l622 0F68                      l375 07C2  
                    l624 0FFF                      l385 07C2                      l482 03E3  
                    l635 0FC9                      l636 0FD5                      l628 0FAD  
                    l486 048A                      l590 0373                      l495 0607  
                    l488 0461                      l584 02EB                      l578 037F  
                    l597 0EE8                      l599 0EFA                      _PR2 0092  
    __size_of_ANALOGICOS 013F                      _isr 07C3             ___flmul@aexp 003C  
           ___flmul@bexp 0041             ___flmul@sign 003B             ___flmul@temp 0046  
           ___flmul@prod 0042             ___fltol@exp1 0066                     l2001 036B  
                   l2003 036C                     l2011 0F4C                     l2005 0377  
                   l2021 0F79                     l2013 0F50                     l1311 038D  
                   l2031 0FA4                     l2023 0F7E                     l2015 0F60  
                   l1401 047E                     l1321 03A4                     l1313 0391  
                   l2041 0FD7                     l2033 0FB4                     l2025 0F8B  
                   l2017 0F70                     l2009 0F47                     l1411 049C  
                   l1403 0482                     l1331 03BA                     l1323 03A5  
                   l1315 0392                     l1307 0380                     l2043 0FED  
                   l2035 0FBF                     l2027 0F92                     l2115 073B  
                   l1421 04C6                     l1413 04B3                     l1405 048E  
                   l1341 03CB                     l1333 03BB                     l1317 0397  
                   l1325 03A7                     l1309 0387                     l2045 0FF2  
                   l2037 0FC3                     l2029 0F96                     l2061 0668  
                   l2053 0608                     l1431 04EF                     l1423 04CA  
                   l1415 04B7                     l1407 0493                     l1351 03E9  
                   l1343 03D0                     l1335 03C1                     l1327 03AF  
                   l1319 039C                     l2047 0FF6                     l2039 0FCD  
                   l2071 06CD                     l2063 066C                     l2055 0609  
                   l1441 055D                     l1433 052D                     l1425 04CB  
                   l1417 04BB                     l1361 03FD                     l1353 03ED  
                   l1345 03D8                     l1337 03C5                     l1329 03B4  
                   l2049 0FF7                     l2073 071F                     l2065 06BE  
                   l2057 065D                     l2081 072C                     l1451 0578  
                   l1443 0562                     l1435 0533                     l1427 04D4  
                   l1419 04C4                     l1371 0411                     l1363 0401  
                   l1355 03F1                     l1347 03D9                     l1339 03C6  
                   l2075 0721                     l2067 06C2                     l2059 0661  
                   l2091 0EBF                     l1453 057D                     l1461 0589  
                   l1437 0538                     l1429 04D9                     l1381 0425  
                   l1373 0415                     l1365 0405                     l1357 03F5  
                   l1349 03DB                     l2077 0728                     l2069 06C9  
                   l1701 0F16                     l2093 0EC3                     l1455 0580  
                   l1447 056B                     l1439 0547                     l1463 058D  
                   l1391 0465                     l1383 0429                     l1375 0419  
                   l1367 0409                     l1359 03F9                     l1711 0F25  
                   l1703 0F1A                     l2087 0EAB                     l1481 05D5  
                   l1473 05A0                     l1465 058E                     l1457 0582  
                   l1449 0574                     l1393 046E                     l1377 041D  
                   l1369 040D                     l1385 042D                     l1721 0F2A  
                   l1713 0F26                     l1705 0F1C                     l2089 0EB0  
                   l1491 05F1                     l1483 05DE                     l1475 05A5  
                   l1467 0592                     l1459 0587                     l1395 0470  
                   l1387 042E                     l1379 0421                     l1731 0F3A  
                   l1723 0F2B                     l1715 0F27                     l1707 0F20  
                   l1493 05F5                     l1485 05E3                     l1477 05B3  
                   l1469 0598                     l1397 0474                     l1389 0445  
                   l1821 0ED7                     l1901 006F                     l1741 0F3F  
                   l1733 0F3B                     l1725 0F2D                     l1717 0F28  
                   l1709 0F24                     l1495 05F7                     l1487 05EB  
                   l1479 05B7                     l1399 0475                     l1823 0EDE  
                   l1903 0071                     l1743 0F40                     l1735 0F3C  
                   l1727 0F31                     l1719 0F29                     l1497 0602  
                   l1489 05F0                     l1825 0EE2                     l1921 00E2  
                   l1913 008C                     l1905 0079                     l1841 0772  
                   l1833 0747                     l1737 0F3D                     l1729 0F37  
                   l1499 0606                     l1827 0EF1                     l1819 0ED5  
                   l1931 015F                     l1923 010E                     l1915 009C  
                   l1907 007E                     l1843 0773                     l1835 0754  
                   l1739 0F3E                     l1691 0F0E                     l1829 0EF6  
                   l1941 01DF                     l1933 017C                     l1925 012A  
                   l1917 00A9                     l1909 0083                     l1845 077B  
                   l1693 0F11                     l1685 0EFB                     l1951 0297  
                   l1943 020C                     l1935 018C                     l1927 0146  
                   l1919 00C6                     l1871 0026                     l1863 07A2  
                   l1855 0789                     l1847 077D                     l1839 075D  
                   l1695 0F12                     l1687 0EFF                     l1961 02BC  
                   l1953 02A0                     l1945 021C                     l1937 01A9  
                   l1929 014F                     l1881 003B                     l1873 002C  
                   l1865 07B2                     l1849 0781                     l1857 079B  
                   l1697 0F13                     l1689 0F00                     l1971 02D4  
                   l1963 02C5                     l1955 02AE                     l1947 0249  
                   l1939 01C2                     l1891 0058                     l1883 0043  
                   l1875 0030                     l1867 07B7                     l1699 0F14  
                   l1981 0303                     l1973 02E8                     l1957 02B7  
                   l1965 02CB                     l1949 026F                     l1893 005C  
                   l1885 0045                     l1877 0031                     l1869 001F  
                   l1991 033E                     l1983 0307                     l1967 02CF  
                   l1959 02BB                     l1895 005D                     l1887 004D  
                   l1879 0036                     l1993 034D                     l1985 0320  
                   l1977 02F0                     l1969 02D0                     l1897 0062  
                   l1889 0052                     l1995 0357                     l1979 02F5  
                   l1987 0326                     l1899 0067                     l1997 0359  
                   l1989 0333                     l1999 0367                     _ADIF 0066  
                   ?_isr 0070                     _T0IF 005A                     u1300 039C  
                   u1301 039B                     u1310 03BA                     u1311 03B9  
                   u1400 0465                     u1320 03C5                     u1401 0464  
                   u1321 03C4                     u1410 0474                     u1330 03CB  
                   u1411 0473                     u1331 03CA                     u1340 03D0  
                   u1341 03CF                     u1510 04EF                     u1430 048A  
                   u1350 03E9                     u2310 0EF6                     u1511 04EE  
                   u1431 0489                     u1351 03E8                     u2311 0EF5  
                   u1600 0587                     u1440 048E                     u1360 03ED  
                   u1280 0391                     u2400 07B2                     u2320 0754  
                   u1601 0586                     u1521 0506                     u1513 04EB  
                   u1505 04CD                     u1441 048D                     u1425 0477  
                   u1361 03EC                     u1281 0390                     u2305 0EE9  
                   u2401 07B1                     u2321 0753                     u1610 058D  
                   u1530 051A                     u1522 0507                     u1450 0493  
                   u1370 0445                     u1290 0397                     u2410 07B7  
                   u2330 076B                     u1611 058C                     u1531 051B  
                   u1523 050C                     u1451 0492                     u1371 0444  
                   u1291 0396                     u2411 07B6                     u1700 05E3  
                   u1620 0592                     u1540 0538                     u1532 0520  
                   u1524 050D                     u1380 0450                     u2420 0030  
                   u2340 0781                     u1701 05E2                     u1621 0591  
                   u1541 0537                     u1533 0521                     u1525 0512  
                   u1461 04A5                     u1381 044E                     u2501 00D4  
                   u2421 002F                     u2341 0780                     u1710 05F0  
                   u1630 0598                     u1550 055D                     u1526 0513  
                   u1470 04B7                     u1462 04AC                     u1390 0451  
                   u2502 00DB                     u2430 0036                     u2350 0788  
                   u1711 05EF                     u1631 0597                     u1551 055C  
                   u1471 04B6                     u1463 04B3                     u1375 0441  
                   u2511 00F0                     u2503 00E2                     u2431 0035  
                   u2351 0787                     u2335 0766                     u1720 05F5  
                   u1640 059F                     u1560 0562                     u1480 04BB  
                   u2512 00F7                     u2440 003B                     u1721 05F4  
                   u1641 059E                     u1561 0561                     u1481 04BA  
                   u2601 022B                     u2521 011C                     u2513 00FE  
                   u2441 003A                     u1730 0606                     u1650 05A5  
                   u1490 04CA                     u2290 0EE2                     u2610 0255  
                   u2602 0232                     u2522 0123                     u2450 005C  
                   u2370 079A                     u1731 0605                     u1651 05A4  
                   u1491 04C9                     u2291 0EE1                     u2603 0239  
                   u2531 0138                     u2523 012A                     u2451 005B  
                   u2371 0799                     u1660 05B7                     u1580 0578  
                   u2700 02D4                     u2532 013F                     u2460 0062  
                   u2380 07A1                     u1661 05B6                     u1581 0577  
                   u2701 02D3                     u2621 0261                     u2533 0146  
                   u2461 0061                     u2381 07A0                     u2365 078A  
                   u1670 05C6                     u1590 057D                     u2710 02E8  
                   u2630 027D                     u2622 0268                     u2470 0067  
                   u1591 057C                     u1575 056D                     u2711 02E7  
                   u2623 026F                     u2615 0250                     u2551 016E  
                   u2471 0066                     u1680 05D5                     u2720 02EF  
                   u2552 0175                     u2480 007E                     u2800 0F50  
                   u1681 05D4                     u2721 02EE                     u2641 0289  
                   u2561 019B                     u2553 017C                     u2545 0148  
                   u2481 007D                     u2801 0F4F                     u1690 05DE  
                   u2730 02F5                     u2642 0290                     u2562 01A2  
                   u2490 0083                     u2810 0F70                     u1691 05DD  
                   u1675 05C1                     u2731 02F4                     u2643 0297  
                   u2635 0278                     u2563 01A9                     u2491 0082  
                   u2395 07A4                     u2811 0F6F                     u2740 0307  
                   u2900 0FE2                     u2741 0306                     u2581 01D1  
                   u2750 0316                     u2670 02BB                     u2582 01D8  
                   u2910 0FF2                     u2830 0F91                     u2671 02BA  
                   u2655 0299                     u2591 01FE                     u2583 01DF  
                   u2575 01AB                     u2911 0FF1                     u2831 0F90  
                   u2760 0333                     u2592 0205                     u2920 0FF6  
                   u2761 0332                     u2665 02B0                     u2593 020C  
                   u2921 0FF5                     u2905 0FDD                     u2825 0F83  
                   u2770 034D                     u2690 02CF                     u2850 0FB3  
                   u2930 0EBF                     u2771 034C                     u2755 0311  
                   u2691 02CE                     u2851 0FB2                     u2931 0EBE  
                   u2780 036B                     u2781 036A                     u2765 032F  
                   u2685 02BE                     u2845 0FA5                     u2870 0FC3  
                   u2790 0F4C                     u2775 0349                     u2871 0FC2  
                   u2791 0F4B                     u2935 0EBB                     u2880 0FC9  
                   u2881 0FC8                     u2865 0FB8                     u2890 0FCD  
                   u2891 0FCC                     u2947 0F2F                     u2957 0665  
                   u2967 06C6                     i1l80 07E4                     i1l81 07E7  
                   u2977 0725                     i1l83 07F7                     i1l79 07E8  
                   _POT0 006B                     _POT1 0078                     _POT2 0076  
                   _TMR0 0001                     _PWM3 006D                     _main 0EAB  
                   btemp 007E                     start 000C                    ??_isr 0070  
          ___fltol@sign1 0065          __end_of___fladd 0608                    ?_main 0070  
        __end_of___flmul 0380          __end_of___fltol 07C3                    _ANSEL 0188  
                  _T2CON 0012                    _PORTA 0005                    _PORTC 0007  
                  _PORTD 0008                    _PORTE 0009                    _TRISA 0085  
                  _TRISB 0086                    _TRISC 0087                    _TRISD 0088  
                  _TRISE 0089                    _setup 0EFB                    pclath 000A  
                  status 0003                    wtemp0 007E          __initialization 000F  
           __end_of_main 0ED2                   ??_main 0076                   _ADRESH 001E  
                 _CCPR1L 0015                   _CCPR2L 001B                   ?_setup 0070  
                 _ANSELH 0189                   i1l1781 07C8                   i1l1783 07E0  
                 i1l1785 07EE                   i1l1787 07F5                   i1l1779 07C3  
                 i1l1789 07F6                   u225_20 07C8                   u225_21 07C7  
                 u226_20 07E0                   u226_21 07DF                   u226_25 07DC  
                 u227_20 07EE                   u227_21 07ED             ??_ANALOGICOS 00A0  
       __end_of___xxtofl 1000                ??___fladd 0050                ??___flmul 0036  
              ??___fltol 0060       __end_of_ANALOGICOS 0747       __size_of__Umul8_16 0029  
                 saved_w 007E             ___xxtofl@arg 002A             ___xxtofl@exp 0029  
           ___xxtofl@val 0020  __end_of__initialization 001B               ___fltol@f1 005C  
         __pcstackCOMMON 0070            __end_of_setup 0F44                  ??_setup 0074  
             __pbssBANK0 0069        __end_of__Umul8_16 0EFB               __pmaintext 0EAB  
             __pintentry 0004                  _CCP1CON 0017                ?___xxtofl 0020  
                _VALORAN 0069                  ___fladd 0380                  ___flmul 001F  
                ___fltol 0747                  __ptext1 0EFB                  __ptext2 0608  
                __ptext3 0F44                  __ptext4 0747                  __ptext5 001F  
                __ptext6 0ED2                  __ptext7 0380                  __ptext8 07C3  
           __size_of_isr 003B               ??___xxtofl 0024     end_of_initialization 001B  
              _PORTCbits 0007              ___fladd@grs 005B            ___xxtofl@sign 0028  
            ___flmul@grs 003D              _CCP2CONbits 001D      start_initialization 000F  
      ANALOGICOS@VALORAN 0067              __end_of_isr 07FE                __Umul8_16 0ED2  
              ___fladd@a 004C                ___fladd@b 0048                ___flmul@a 0032  
              ___flmul@b 002E              __pbssCOMMON 0076                ___latbits 0002  
          __pcstackBANK0 0020            __pcstackBANK1 00A0        __size_of___xxtofl 00BC  
               ?___fladd 0048                 ?___flmul 002E                 ?___fltol 005C  
             ?__Umul8_16 0074           __size_of_setup 0049        interrupt_function 0004  
               _PIE1bits 008C                 _PIR1bits 000C               _ADCON0bits 001F  
             _ADCON1bits 009F               _ANALOGICOS 0608              ??__Umul8_16 0020  
       __size_of___fladd 0288         __size_of___flmul 0361         __size_of___fltol 007C  
               ___xxtofl 0F44            __size_of_main 0027               _INTCONbits 000B  
               intlevel1 0000              ?_ANALOGICOS 0067               _OSCCONbits 008F  
 __Umul8_16@multiplicand 0074               _OPTION_REG 0081            ___fladd@signs 0058  
           ___fladd@aexp 0059             ___fladd@bexp 005A     __Umul8_16@multiplier 0026  
      __Umul8_16@product 0022  
